
build/kernel.elf:     file format elf64-littleaarch64


Disassembly of section .text.boot:

0000000000080000 <__text_start>:
   80000:	d2a12014 	mov	x20, #0x9000000             	// #150994944
   80004:	d2a81000 	mov	x0, #0x40800000            	// #1082130432
   80008:	9100001f 	mov	sp, x0
   8000c:	52800a62 	mov	w2, #0x53                  	// #83
   80010:	aa1403e1 	mov	x1, x20
   80014:	b9000022 	str	w2, [x1]
   80018:	910003e0 	mov	x0, sp
   8001c:	940008db 	bl	82388 <uart_puthex>
   80020:	aa1403e1 	mov	x1, x20
   80024:	52800b02 	mov	w2, #0x58                  	// #88
   80028:	b9000022 	str	w2, [x1]
   8002c:	d290000f 	mov	x15, #0x8000                	// #32768
   80030:	f10005ef 	subs	x15, x15, #0x1
   80034:	54ffffe1 	b.ne	80030 <__text_start+0x30>  // b.any
   80038:	52800842 	mov	w2, #0x42                  	// #66
   8003c:	b9000022 	str	w2, [x1]
   80040:	d290000f 	mov	x15, #0x8000                	// #32768
   80044:	f10005ef 	subs	x15, x15, #0x1
   80048:	54ffffe1 	b.ne	80044 <__text_start+0x44>  // b.any
   8004c:	58001320 	ldr	x0, 802b0 <halt+0xc>
   80050:	58001341 	ldr	x1, 802b8 <halt+0x14>
   80054:	eb01001f 	cmp	x0, x1
   80058:	54000080 	b.eq	80068 <skip_bss_init_new>  // b.none

000000000008005c <bss_loop_new>:
   8005c:	a8817c1f 	stp	xzr, xzr, [x0], #16
   80060:	eb01001f 	cmp	x0, x1
   80064:	54ffffc3 	b.cc	8005c <bss_loop_new>  // b.lo, b.ul, b.last

0000000000080068 <skip_bss_init_new>:
   80068:	52800c42 	mov	w2, #0x62                  	// #98
   8006c:	aa1403e1 	mov	x1, x20
   80070:	b9000022 	str	w2, [x1]
   80074:	d290000f 	mov	x15, #0x8000                	// #32768
   80078:	f10005ef 	subs	x15, x15, #0x1
   8007c:	54ffffe1 	b.ne	80078 <skip_bss_init_new+0x10>  // b.any
   80080:	528009a2 	mov	w2, #0x4d                  	// #77
   80084:	b9000022 	str	w2, [x1]
   80088:	d290000f 	mov	x15, #0x8000                	// #32768
   8008c:	f10005ef 	subs	x15, x15, #0x1
   80090:	54ffffe1 	b.ne	8008c <skip_bss_init_new+0x24>  // b.any
   80094:	f81f0ffe 	str	x30, [sp, #-16]!
   80098:	52800e62 	mov	w2, #0x73                  	// #115
   8009c:	b9000022 	str	w2, [x1]
   800a0:	d290000f 	mov	x15, #0x8000                	// #32768
   800a4:	f10005ef 	subs	x15, x15, #0x1
   800a8:	54ffffe1 	b.ne	800a4 <skip_bss_init_new+0x3c>  // b.any
   800ac:	52800622 	mov	w2, #0x31                  	// #49
   800b0:	b9000022 	str	w2, [x1]
   800b4:	d290000f 	mov	x15, #0x8000                	// #32768
   800b8:	f10005ef 	subs	x15, x15, #0x1
   800bc:	54ffffe1 	b.ne	800b8 <skip_bss_init_new+0x50>  // b.any
   800c0:	d280001e 	mov	x30, #0x0                   	// #0
   800c4:	100000fe 	adr	x30, 800e0 <return_label>
   800c8:	52800f02 	mov	w2, #0x78                  	// #120
   800cc:	b9000022 	str	w2, [x1]
   800d0:	d290000f 	mov	x15, #0x8000                	// #32768
   800d4:	f10005ef 	subs	x15, x15, #0x1
   800d8:	54ffffe1 	b.ne	800d4 <skip_bss_init_new+0x6c>  // b.any
   800dc:	1400098e 	b	82714 <test_return>

00000000000800e0 <return_label>:
   800e0:	52800f22 	mov	w2, #0x79                  	// #121
   800e4:	b9000022 	str	w2, [x1]
   800e8:	d290000f 	mov	x15, #0x8000                	// #32768
   800ec:	f10005ef 	subs	x15, x15, #0x1
   800f0:	54ffffe1 	b.ne	800ec <return_label+0xc>  // b.any
   800f4:	94000bc7 	bl	83010 <init_pmm>
   800f8:	52800642 	mov	w2, #0x32                  	// #50
   800fc:	b9000022 	str	w2, [x1]
   80100:	d290000f 	mov	x15, #0x8000                	// #32768
   80104:	f10005ef 	subs	x15, x15, #0x1
   80108:	54ffffe1 	b.ne	80104 <return_label+0x24>  // b.any
   8010c:	f84107fe 	ldr	x30, [sp], #16
   80110:	52800a02 	mov	w2, #0x50                  	// #80
   80114:	b9000022 	str	w2, [x1]
   80118:	d290000f 	mov	x15, #0x8000                	// #32768
   8011c:	f10005ef 	subs	x15, x15, #0x1
   80120:	54ffffe1 	b.ne	8011c <return_label+0x3c>  // b.any
   80124:	52800c62 	mov	w2, #0x63                  	// #99
   80128:	b9000022 	str	w2, [x1]
   8012c:	d290000f 	mov	x15, #0x8000                	// #32768
   80130:	f10005ef 	subs	x15, x15, #0x1
   80134:	54ffffe1 	b.ne	80130 <return_label+0x50>  // b.any
   80138:	52800a62 	mov	w2, #0x53                  	// #83
   8013c:	b9000022 	str	w2, [x1]
   80140:	d290000f 	mov	x15, #0x8000                	// #32768
   80144:	f10005ef 	subs	x15, x15, #0x1
   80148:	54ffffe1 	b.ne	80144 <return_label+0x64>  // b.any
   8014c:	910003e0 	mov	x0, sp
   80150:	9400088e 	bl	82388 <uart_puthex>
   80154:	aa1403e1 	mov	x1, x20
   80158:	528008c2 	mov	w2, #0x46                  	// #70
   8015c:	b9000022 	str	w2, [x1]
   80160:	d290000f 	mov	x15, #0x8000                	// #32768
   80164:	f10005ef 	subs	x15, x15, #0x1
   80168:	54ffffe1 	b.ne	80164 <return_label+0x84>  // b.any
   8016c:	910003e3 	mov	x3, sp
   80170:	92400c64 	and	x4, x3, #0xf
   80174:	1100c082 	add	w2, w4, #0x30
   80178:	b9000022 	str	w2, [x1]
   8017c:	d290000f 	mov	x15, #0x8000                	// #32768
   80180:	f10005ef 	subs	x15, x15, #0x1
   80184:	54ffffe1 	b.ne	80180 <return_label+0xa0>  // b.any
   80188:	927cec63 	and	x3, x3, #0xfffffffffffffff0
   8018c:	9100007f 	mov	sp, x3
   80190:	528009c2 	mov	w2, #0x4e                  	// #78
   80194:	b9000022 	str	w2, [x1]
   80198:	d290000f 	mov	x15, #0x8000                	// #32768
   8019c:	f10005ef 	subs	x15, x15, #0x1
   801a0:	54ffffe1 	b.ne	8019c <return_label+0xbc>  // b.any
   801a4:	910003e0 	mov	x0, sp
   801a8:	94000878 	bl	82388 <uart_puthex>
   801ac:	aa1403e1 	mov	x1, x20
   801b0:	910003e3 	mov	x3, sp
   801b4:	92400c64 	and	x4, x3, #0xf
   801b8:	1100c082 	add	w2, w4, #0x30
   801bc:	b9000022 	str	w2, [x1]
   801c0:	d290000f 	mov	x15, #0x8000                	// #32768
   801c4:	f10005ef 	subs	x15, x15, #0x1
   801c8:	54ffffe1 	b.ne	801c4 <return_label+0xe4>  // b.any
   801cc:	52800ec2 	mov	w2, #0x76                  	// #118
   801d0:	b9000022 	str	w2, [x1]
   801d4:	d290000f 	mov	x15, #0x8000                	// #32768
   801d8:	f10005ef 	subs	x15, x15, #0x1
   801dc:	54ffffe1 	b.ne	801d8 <return_label+0xf8>  // b.any
   801e0:	52800ac2 	mov	w2, #0x56                  	// #86
   801e4:	b9000022 	str	w2, [x1]
   801e8:	52800842 	mov	w2, #0x42                  	// #66
   801ec:	b9000022 	str	w2, [x1]
   801f0:	52800742 	mov	w2, #0x3a                  	// #58
   801f4:	b9000022 	str	w2, [x1]
   801f8:	58000640 	ldr	x0, 802c0 <halt+0x1c>
   801fc:	d518c000 	msr	vbar_el1, x0
   80200:	d5033fdf 	isb
   80204:	d538c000 	mrs	x0, vbar_el1
   80208:	aa0003e2 	mov	x2, x0
   8020c:	d35cfc00 	lsr	x0, x0, #28
   80210:	92400c00 	and	x0, x0, #0xf
   80214:	f100281f 	cmp	x0, #0xa
   80218:	5400006b 	b.lt	80224 <return_label+0x144>  // b.tstop
   8021c:	1100dc00 	add	w0, w0, #0x37
   80220:	14000002 	b	80228 <return_label+0x148>
   80224:	1100c000 	add	w0, w0, #0x30
   80228:	b9000020 	str	w0, [x1]
   8022c:	52800742 	mov	w2, #0x3a                  	// #58
   80230:	b9000022 	str	w2, [x1]
   80234:	9400171e 	bl	85eac <init_vmm>
   80238:	52800ac2 	mov	w2, #0x56                  	// #86
   8023c:	b9000022 	str	w2, [x1]
   80240:	d290000f 	mov	x15, #0x8000                	// #32768
   80244:	f10005ef 	subs	x15, x15, #0x1
   80248:	54ffffe1 	b.ne	80244 <return_label+0x164>  // b.any
   8024c:	aa1403e1 	mov	x1, x20
   80250:	52800ac2 	mov	w2, #0x56                  	// #86
   80254:	b9000022 	str	w2, [x1]
   80258:	d290000f 	mov	x15, #0x8000                	// #32768
   8025c:	f10005ef 	subs	x15, x15, #0x1
   80260:	54ffffe1 	b.ne	8025c <return_label+0x17c>  // b.any
   80264:	52800a62 	mov	w2, #0x53                  	// #83
   80268:	b9000022 	str	w2, [x1]
   8026c:	d290000f 	mov	x15, #0x8000                	// #32768
   80270:	f10005ef 	subs	x15, x15, #0x1
   80274:	54ffffe1 	b.ne	80270 <return_label+0x190>  // b.any
   80278:	52800622 	mov	w2, #0x31                  	// #49
   8027c:	b9000022 	str	w2, [x1]
   80280:	d290000f 	mov	x15, #0x8000                	// #32768
   80284:	f10005ef 	subs	x15, x15, #0x1
   80288:	54ffffe1 	b.ne	80284 <return_label+0x1a4>  // b.any
   8028c:	94000025 	bl	80320 <kernel_main>
   80290:	52800642 	mov	w2, #0x32                  	// #50
   80294:	b9000022 	str	w2, [x1]
   80298:	d290000f 	mov	x15, #0x8000                	// #32768
   8029c:	f10005ef 	subs	x15, x15, #0x1
   802a0:	54ffffe1 	b.ne	8029c <return_label+0x1bc>  // b.any

00000000000802a4 <halt>:
   802a4:	d503205f 	wfe
   802a8:	17ffffff 	b	802a4 <halt>
   802ac:	00000000 	udf	#0
   802b0:	01004000 	.word	0x01004000
   802b4:	00000000 	.word	0x00000000
   802b8:	010040c4 	.word	0x010040c4
   802bc:	00000000 	.word	0x00000000
   802c0:	00089000 	.word	0x00089000
   802c4:	00000000 	.word	0x00000000

00000000000802c8 <test_uart_directly>:
   802c8:	a9bf7bfd 	stp	x29, x30, [sp, #-16]!
   802cc:	910003fd 	mov	x29, sp
   802d0:	58000241 	ldr	x1, 80318 <test_uart_directly+0x50>
   802d4:	52800a82 	mov	w2, #0x54                  	// #84
   802d8:	b9000022 	str	w2, [x1]
   802dc:	528008a2 	mov	w2, #0x45                  	// #69
   802e0:	b9000022 	str	w2, [x1]
   802e4:	52800a62 	mov	w2, #0x53                  	// #83
   802e8:	b9000022 	str	w2, [x1]
   802ec:	52800a82 	mov	w2, #0x54                  	// #84
   802f0:	b9000022 	str	w2, [x1]
   802f4:	528001a2 	mov	w2, #0xd                   	// #13
   802f8:	b9000022 	str	w2, [x1]
   802fc:	52800142 	mov	w2, #0xa                   	// #10
   80300:	b9000022 	str	w2, [x1]
   80304:	d29fffe3 	mov	x3, #0xffff                	// #65535
   80308:	f1000463 	subs	x3, x3, #0x1
   8030c:	54ffffe1 	b.ne	80308 <test_uart_directly+0x40>  // b.any
   80310:	a8c17bfd 	ldp	x29, x30, [sp], #16
   80314:	d65f03c0 	ret
   80318:	09000000 	.word	0x09000000
   8031c:	00000000 	.word	0x00000000

0000000000080320 <kernel_main>:
   80320:	a9b97bfd 	stp	x29, x30, [sp, #-112]!
   80324:	910003fd 	mov	x29, sp
   80328:	a90153f3 	stp	x19, x20, [sp, #16]
   8032c:	a9025bf5 	stp	x21, x22, [sp, #32]
   80330:	a90363f7 	stp	x23, x24, [sp, #48]
   80334:	a9046bf9 	stp	x25, x26, [sp, #64]
   80338:	a90573fb 	stp	x27, x28, [sp, #80]
   8033c:	d2a12013 	mov	x19, #0x9000000             	// #150994944
   80340:	5280083a 	mov	w26, #0x41                  	// #65
   80344:	b900027a 	str	w26, [x19]
   80348:	528001b8 	mov	w24, #0xd                   	// #13
   8034c:	b9000278 	str	w24, [x19]
   80350:	52800157 	mov	w23, #0xa                   	// #10
   80354:	b9000277 	str	w23, [x19]
   80358:	d5384240 	mrs	x0, currentel
   8035c:	53020c00 	ubfx	w0, w0, #2, #2
   80360:	1100c000 	add	w0, w0, #0x30
   80364:	b9000260 	str	w0, [x19]
   80368:	b9000278 	str	w24, [x19]
   8036c:	b9000277 	str	w23, [x19]
   80370:	528009a0 	mov	w0, #0x4d                  	// #77
   80374:	b9000260 	str	w0, [x19]
   80378:	94000b26 	bl	83010 <init_pmm>
   8037c:	52800620 	mov	w0, #0x31                  	// #49
   80380:	b9000260 	str	w0, [x19]
   80384:	52800896 	mov	w22, #0x44                  	// #68
   80388:	b9000276 	str	w22, [x19]
   8038c:	52800855 	mov	w21, #0x42                  	// #66
   80390:	b9000275 	str	w21, [x19]
   80394:	528008f9 	mov	w25, #0x47                  	// #71
   80398:	b9000279 	str	w25, [x19]
   8039c:	b9000260 	str	w0, [x19]
   803a0:	52800754 	mov	w20, #0x3a                  	// #58
   803a4:	b9000274 	str	w20, [x19]
   803a8:	940016b7 	bl	85e84 <init_vmm_wrapper>
   803ac:	52800640 	mov	w0, #0x32                  	// #50
   803b0:	b9000260 	str	w0, [x19]
   803b4:	52800a9c 	mov	w28, #0x54                  	// #84
   803b8:	b900027c 	str	w28, [x19]
   803bc:	52800a40 	mov	w0, #0x52                  	// #82
   803c0:	b9000260 	str	w0, [x19]
   803c4:	b900027a 	str	w26, [x19]
   803c8:	52800a1b 	mov	w27, #0x50                  	// #80
   803cc:	b900027b 	str	w27, [x19]
   803d0:	b9000274 	str	w20, [x19]
   803d4:	94000786 	bl	821ec <init_traps>
   803d8:	528009e0 	mov	w0, #0x4f                  	// #79
   803dc:	b9000260 	str	w0, [x19]
   803e0:	52800960 	mov	w0, #0x4b                  	// #75
   803e4:	b9000260 	str	w0, [x19]
   803e8:	b9000274 	str	w20, [x19]
   803ec:	b9000276 	str	w22, [x19]
   803f0:	b9000275 	str	w21, [x19]
   803f4:	b9000279 	str	w25, [x19]
   803f8:	52800640 	mov	w0, #0x32                  	// #50
   803fc:	b9000260 	str	w0, [x19]
   80400:	b9000274 	str	w20, [x19]
   80404:	52800ac0 	mov	w0, #0x56                  	// #86
   80408:	b9000260 	str	w0, [x19]
   8040c:	b9000275 	str	w21, [x19]
   80410:	b900027a 	str	w26, [x19]
   80414:	52800a40 	mov	w0, #0x52                  	// #82
   80418:	b9000260 	str	w0, [x19]
   8041c:	b9000274 	str	w20, [x19]
   80420:	94001597 	bl	85a7c <ensure_vbar_after_mmu>
   80424:	52800660 	mov	w0, #0x33                  	// #51
   80428:	b9000260 	str	w0, [x19]
   8042c:	52800aa0 	mov	w0, #0x55                  	// #85
   80430:	b9000260 	str	w0, [x19]
   80434:	528009a0 	mov	w0, #0x4d                  	// #77
   80438:	b9000260 	str	w0, [x19]
   8043c:	b900027a 	str	w26, [x19]
   80440:	b900027b 	str	w27, [x19]
   80444:	b9000274 	str	w20, [x19]
   80448:	9400140a 	bl	85470 <map_user_task_section>
   8044c:	52800660 	mov	w0, #0x33                  	// #51
   80450:	b9000260 	str	w0, [x19]
   80454:	b9000276 	str	w22, [x19]
   80458:	b9000275 	str	w21, [x19]
   8045c:	b9000279 	str	w25, [x19]
   80460:	b9000260 	str	w0, [x19]
   80464:	b9000274 	str	w20, [x19]
   80468:	b9000278 	str	w24, [x19]
   8046c:	b9000277 	str	w23, [x19]
   80470:	528008a0 	mov	w0, #0x45                  	// #69
   80474:	b9000260 	str	w0, [x19]
   80478:	d2a02000 	mov	x0, #0x1000000             	// #16777216
   8047c:	9400155d 	bl	859f0 <get_pte>
   80480:	aa0003fb 	mov	x27, x0
   80484:	90007c00 	adrp	x0, 1000000 <GLOBAL_UART>
   80488:	912b4000 	add	x0, x0, #0xad0
   8048c:	940007a9 	bl	82330 <uart_puts>
   80490:	aa1b03e0 	mov	x0, x27
   80494:	940007eb 	bl	82440 <uart_hex64>
   80498:	90007c1b 	adrp	x27, 1000000 <GLOBAL_UART>
   8049c:	9122a37b 	add	x27, x27, #0x8a8
   804a0:	aa1b03e0 	mov	x0, x27
   804a4:	940007a3 	bl	82330 <uart_puts>
   804a8:	d538c000 	mrs	x0, vbar_el1
   804ac:	f90037e0 	str	x0, [sp, #104]
   804b0:	90007c00 	adrp	x0, 1000000 <GLOBAL_UART>
   804b4:	912bc000 	add	x0, x0, #0xaf0
   804b8:	9400079e 	bl	82330 <uart_puts>
   804bc:	f94037e0 	ldr	x0, [sp, #104]
   804c0:	940007e0 	bl	82440 <uart_hex64>
   804c4:	aa1b03e0 	mov	x0, x27
   804c8:	9400079a 	bl	82330 <uart_puts>
   804cc:	52800620 	mov	w0, #0x31                  	// #49
   804d0:	b9000260 	str	w0, [x19]
   804d4:	b9000278 	str	w24, [x19]
   804d8:	b9000277 	str	w23, [x19]
   804dc:	b9000276 	str	w22, [x19]
   804e0:	52800920 	mov	w0, #0x49                  	// #73
   804e4:	b9000260 	str	w0, [x19]
   804e8:	b900027a 	str	w26, [x19]
   804ec:	b9000279 	str	w25, [x19]
   804f0:	b9000274 	str	w20, [x19]
   804f4:	b9000278 	str	w24, [x19]
   804f8:	b9000277 	str	w23, [x19]
   804fc:	52800620 	mov	w0, #0x31                  	// #49
   80500:	b9000260 	str	w0, [x19]
   80504:	b9000274 	str	w20, [x19]
   80508:	52800640 	mov	w0, #0x32                  	// #50
   8050c:	b9000260 	str	w0, [x19]
   80510:	b9000274 	str	w20, [x19]
   80514:	94001764 	bl	862a4 <ensure_code_is_executable>
   80518:	52800660 	mov	w0, #0x33                  	// #51
   8051c:	b9000260 	str	w0, [x19]
   80520:	b9000274 	str	w20, [x19]
   80524:	9400259b 	bl	89b90 <set_safe_spsr>
   80528:	5280069b 	mov	w27, #0x34                  	// #52
   8052c:	b900027b 	str	w27, [x19]
   80530:	b9000274 	str	w20, [x19]
   80534:	940025b3 	bl	89c00 <check_fix_stack_alignment>
   80538:	90007c00 	adrp	x0, 1000000 <GLOBAL_UART>
   8053c:	912c4000 	add	x0, x0, #0xb10
   80540:	9400077c 	bl	82330 <uart_puts>
   80544:	2a1503e0 	mov	w0, w21
   80548:	94000772 	bl	82310 <uart_putc>
   8054c:	94001881 	bl	86750 <test_context_switch>
   80550:	2a1a03e0 	mov	w0, w26
   80554:	9400076f 	bl	82310 <uart_putc>
   80558:	90007c00 	adrp	x0, 1000000 <GLOBAL_UART>
   8055c:	912ce000 	add	x0, x0, #0xb38
   80560:	94000774 	bl	82330 <uart_puts>
   80564:	940006ca 	bl	8208c <test_uart_direct>
   80568:	90007c00 	adrp	x0, 1000000 <GLOBAL_UART>
   8056c:	912d8000 	add	x0, x0, #0xb60
   80570:	94000770 	bl	82330 <uart_puts>
   80574:	940006d8 	bl	820d4 <test_scheduler>
   80578:	b9000276 	str	w22, [x19]
   8057c:	52800aa0 	mov	w0, #0x55                  	// #85
   80580:	b9000260 	str	w0, [x19]
   80584:	528009a0 	mov	w0, #0x4d                  	// #77
   80588:	b9000260 	str	w0, [x19]
   8058c:	b9000260 	str	w0, [x19]
   80590:	52800b20 	mov	w0, #0x59                  	// #89
   80594:	b9000260 	str	w0, [x19]
   80598:	b9000274 	str	w20, [x19]
   8059c:	94001869 	bl	86740 <dummy_asm>
   805a0:	b9000278 	str	w24, [x19]
   805a4:	b9000277 	str	w23, [x19]
   805a8:	b900027c 	str	w28, [x19]
   805ac:	528008a0 	mov	w0, #0x45                  	// #69
   805b0:	b9000260 	str	w0, [x19]
   805b4:	52800a7a 	mov	w26, #0x53                  	// #83
   805b8:	b900027a 	str	w26, [x19]
   805bc:	b900027c 	str	w28, [x19]
   805c0:	b9000274 	str	w20, [x19]
   805c4:	b9000275 	str	w21, [x19]
   805c8:	94001862 	bl	86750 <test_context_switch>
   805cc:	528008a0 	mov	w0, #0x45                  	// #69
   805d0:	b9000260 	str	w0, [x19]
   805d4:	52800a40 	mov	w0, #0x52                  	// #82
   805d8:	b9000260 	str	w0, [x19]
   805dc:	528008a0 	mov	w0, #0x45                  	// #69
   805e0:	b9000260 	str	w0, [x19]
   805e4:	b900027c 	str	w28, [x19]
   805e8:	52800420 	mov	w0, #0x21                  	// #33
   805ec:	b9000260 	str	w0, [x19]
   805f0:	b9000278 	str	w24, [x19]
   805f4:	b9000277 	str	w23, [x19]
   805f8:	90007c00 	adrp	x0, 1000000 <GLOBAL_UART>
   805fc:	912e6000 	add	x0, x0, #0xb98
   80600:	9400074c 	bl	82330 <uart_puts>
   80604:	528008a0 	mov	w0, #0x45                  	// #69
   80608:	b9000260 	str	w0, [x19]
   8060c:	52800980 	mov	w0, #0x4c                  	// #76
   80610:	b9000260 	str	w0, [x19]
   80614:	52800600 	mov	w0, #0x30                  	// #48
   80618:	b9000260 	str	w0, [x19]
   8061c:	b900027c 	str	w28, [x19]
   80620:	b9000274 	str	w20, [x19]
   80624:	90007c00 	adrp	x0, 1000000 <GLOBAL_UART>
   80628:	912f0000 	add	x0, x0, #0xbc0
   8062c:	94000741 	bl	82330 <uart_puts>
   80630:	d4000001 	svc	#0x0
   80634:	90007c00 	adrp	x0, 1000000 <GLOBAL_UART>
   80638:	912fa000 	add	x0, x0, #0xbe8
   8063c:	9400073d 	bl	82330 <uart_puts>
   80640:	90007c00 	adrp	x0, 1000000 <GLOBAL_UART>
   80644:	91304000 	add	x0, x0, #0xc10
   80648:	9400073a 	bl	82330 <uart_puts>
   8064c:	90000040 	adrp	x0, 88000 <create_el0_task+0x110>
   80650:	91369000 	add	x0, x0, #0xda4
   80654:	94001ea1 	bl	880d8 <start_user_task>
   80658:	90000040 	adrp	x0, 88000 <create_el0_task+0x110>
   8065c:	91284000 	add	x0, x0, #0xa10
   80660:	94001e24 	bl	87ef0 <create_el0_task>
   80664:	b9000276 	str	w22, [x19]
   80668:	b9000275 	str	w21, [x19]
   8066c:	b9000279 	str	w25, [x19]
   80670:	b900027b 	str	w27, [x19]
   80674:	b9000274 	str	w20, [x19]
   80678:	90007c00 	adrp	x0, 1000000 <GLOBAL_UART>
   8067c:	9130c000 	add	x0, x0, #0xc30
   80680:	9400072c 	bl	82330 <uart_puts>
   80684:	d4000001 	svc	#0x0
   80688:	90007c00 	adrp	x0, 1000000 <GLOBAL_UART>
   8068c:	91318000 	add	x0, x0, #0xc60
   80690:	94000728 	bl	82330 <uart_puts>
   80694:	90007c00 	adrp	x0, 1000000 <GLOBAL_UART>
   80698:	91324000 	add	x0, x0, #0xc90
   8069c:	94000725 	bl	82330 <uart_puts>
   806a0:	b900027a 	str	w26, [x19]
   806a4:	52800860 	mov	w0, #0x43                  	// #67
   806a8:	b9000260 	str	w0, [x19]
   806ac:	52800900 	mov	w0, #0x48                  	// #72
   806b0:	b9000260 	str	w0, [x19]
   806b4:	b9000274 	str	w20, [x19]
   806b8:	940006a0 	bl	82138 <ensure_vbar_el1>
   806bc:	9400054c 	bl	81bec <start_scheduler>
   806c0:	b9000276 	str	w22, [x19]
   806c4:	b9000275 	str	w21, [x19]
   806c8:	b9000279 	str	w25, [x19]
   806cc:	528006a0 	mov	w0, #0x35                  	// #53
   806d0:	b9000260 	str	w0, [x19]
   806d4:	b9000274 	str	w20, [x19]
   806d8:	a94153f3 	ldp	x19, x20, [sp, #16]
   806dc:	a9425bf5 	ldp	x21, x22, [sp, #32]
   806e0:	a94363f7 	ldp	x23, x24, [sp, #48]
   806e4:	a9446bf9 	ldp	x25, x26, [sp, #64]
   806e8:	a94573fb 	ldp	x27, x28, [sp, #80]
   806ec:	a8c77bfd 	ldp	x29, x30, [sp], #112
   806f0:	d65f03c0 	ret

Disassembly of section .text:

0000000000081000 <task_a>:
   81000:	d10043ff 	sub	sp, sp, #0x10
   81004:	d2a12000 	mov	x0, #0x9000000             	// #150994944
   81008:	52800822 	mov	w2, #0x41                  	// #65
   8100c:	b9000002 	str	w2, [x0]
   81010:	52800be1 	mov	w1, #0x5f                  	// #95
   81014:	b9000001 	str	w1, [x0]
   81018:	52800a61 	mov	w1, #0x53                  	// #83
   8101c:	b9000001 	str	w1, [x0]
   81020:	52800a81 	mov	w1, #0x54                  	// #84
   81024:	b9000001 	str	w1, [x0]
   81028:	b9000002 	str	w2, [x0]
   8102c:	52800a42 	mov	w2, #0x52                  	// #82
   81030:	b9000002 	str	w2, [x0]
   81034:	b9000001 	str	w1, [x0]
   81038:	528001a1 	mov	w1, #0xd                   	// #13
   8103c:	b9000001 	str	w1, [x0]
   81040:	52800141 	mov	w1, #0xa                   	// #10
   81044:	b9000001 	str	w1, [x0]
   81048:	aa0003e3 	mov	x3, x0
   8104c:	52800822 	mov	w2, #0x41                  	// #65
   81050:	5290d3e1 	mov	w1, #0x869f                	// #34463
   81054:	72a00021 	movk	w1, #0x1, lsl #16
   81058:	b9000062 	str	w2, [x3]
   8105c:	b9000fff 	str	wzr, [sp, #12]
   81060:	b9400fe0 	ldr	w0, [sp, #12]
   81064:	6b01001f 	cmp	w0, w1
   81068:	54ffff8c 	b.gt	81058 <task_a+0x58>
   8106c:	b9400fe0 	ldr	w0, [sp, #12]
   81070:	11000400 	add	w0, w0, #0x1
   81074:	b9000fe0 	str	w0, [sp, #12]
   81078:	b9400fe0 	ldr	w0, [sp, #12]
   8107c:	6b01001f 	cmp	w0, w1
   81080:	54ffff6d 	b.le	8106c <task_a+0x6c>
   81084:	17fffff5 	b	81058 <task_a+0x58>

0000000000081088 <debug_print>:
   81088:	b4000280 	cbz	x0, 810d8 <debug_print+0x50>
   8108c:	39400001 	ldrb	w1, [x0]
   81090:	34000241 	cbz	w1, 810d8 <debug_print+0x50>
   81094:	d2800302 	mov	x2, #0x18                  	// #24
   81098:	f2a12002 	movk	x2, #0x900, lsl #16
   8109c:	d2a12003 	mov	x3, #0x9000000             	// #150994944
   810a0:	528001a4 	mov	w4, #0xd                   	// #13
   810a4:	14000007 	b	810c0 <debug_print+0x38>
   810a8:	b9400041 	ldr	w1, [x2]
   810ac:	372fffe1 	tbnz	w1, #5, 810a8 <debug_print+0x20>
   810b0:	38401401 	ldrb	w1, [x0], #1
   810b4:	b9000061 	str	w1, [x3]
   810b8:	39400001 	ldrb	w1, [x0]
   810bc:	340000e1 	cbz	w1, 810d8 <debug_print+0x50>
   810c0:	7100283f 	cmp	w1, #0xa
   810c4:	54ffff21 	b.ne	810a8 <debug_print+0x20>  // b.any
   810c8:	b9400041 	ldr	w1, [x2]
   810cc:	372fffe1 	tbnz	w1, #5, 810c8 <debug_print+0x40>
   810d0:	b9000064 	str	w4, [x3]
   810d4:	17fffff5 	b	810a8 <debug_print+0x20>
   810d8:	d65f03c0 	ret

00000000000810dc <debug_hex64>:
   810dc:	a9be7bfd 	stp	x29, x30, [sp, #-32]!
   810e0:	910003fd 	mov	x29, sp
   810e4:	f9000bf3 	str	x19, [sp, #16]
   810e8:	aa0103f3 	mov	x19, x1
   810ec:	97ffffe7 	bl	81088 <debug_print>
   810f0:	d2800301 	mov	x1, #0x18                  	// #24
   810f4:	f2a12001 	movk	x1, #0x900, lsl #16
   810f8:	b9400020 	ldr	w0, [x1]
   810fc:	372fffe0 	tbnz	w0, #5, 810f8 <debug_hex64+0x1c>
   81100:	d2a12000 	mov	x0, #0x9000000             	// #150994944
   81104:	52800601 	mov	w1, #0x30                  	// #48
   81108:	b9000001 	str	w1, [x0]
   8110c:	d2800301 	mov	x1, #0x18                  	// #24
   81110:	f2a12001 	movk	x1, #0x900, lsl #16
   81114:	b9400020 	ldr	w0, [x1]
   81118:	372fffe0 	tbnz	w0, #5, 81114 <debug_hex64+0x38>
   8111c:	d2a12000 	mov	x0, #0x9000000             	// #150994944
   81120:	52800f01 	mov	w1, #0x78                  	// #120
   81124:	b9000001 	str	w1, [x0]
   81128:	52800783 	mov	w3, #0x3c                  	// #60
   8112c:	d2800302 	mov	x2, #0x18                  	// #24
   81130:	f2a12002 	movk	x2, #0x900, lsl #16
   81134:	aa0003e1 	mov	x1, x0
   81138:	9ac32660 	lsr	x0, x19, x3
   8113c:	12000c00 	and	w0, w0, #0xf
   81140:	1100c005 	add	w5, w0, #0x30
   81144:	1100dc04 	add	w4, w0, #0x37
   81148:	7100241f 	cmp	w0, #0x9
   8114c:	1a85c084 	csel	w4, w4, w5, gt
   81150:	b9400040 	ldr	w0, [x2]
   81154:	372fffe0 	tbnz	w0, #5, 81150 <debug_hex64+0x74>
   81158:	b9000024 	str	w4, [x1]
   8115c:	51001063 	sub	w3, w3, #0x4
   81160:	3100107f 	cmn	w3, #0x4
   81164:	54fffea1 	b.ne	81138 <debug_hex64+0x5c>  // b.any
   81168:	d2800301 	mov	x1, #0x18                  	// #24
   8116c:	f2a12001 	movk	x1, #0x900, lsl #16
   81170:	b9400020 	ldr	w0, [x1]
   81174:	372fffe0 	tbnz	w0, #5, 81170 <debug_hex64+0x94>
   81178:	d2a12000 	mov	x0, #0x9000000             	// #150994944
   8117c:	528001a1 	mov	w1, #0xd                   	// #13
   81180:	b9000001 	str	w1, [x0]
   81184:	d2800301 	mov	x1, #0x18                  	// #24
   81188:	f2a12001 	movk	x1, #0x900, lsl #16
   8118c:	b9400020 	ldr	w0, [x1]
   81190:	372fffe0 	tbnz	w0, #5, 8118c <debug_hex64+0xb0>
   81194:	d2a12000 	mov	x0, #0x9000000             	// #150994944
   81198:	52800141 	mov	w1, #0xa                   	// #10
   8119c:	b9000001 	str	w1, [x0]
   811a0:	f9400bf3 	ldr	x19, [sp, #16]
   811a4:	a8c27bfd 	ldp	x29, x30, [sp], #32
   811a8:	d65f03c0 	ret

00000000000811ac <decode_pte>:
   811ac:	a9be7bfd 	stp	x29, x30, [sp, #-32]!
   811b0:	910003fd 	mov	x29, sp
   811b4:	f9000bf3 	str	x19, [sp, #16]
   811b8:	aa0003f3 	mov	x19, x0
   811bc:	aa0003e1 	mov	x1, x0
   811c0:	f0007be0 	adrp	x0, 1000000 <GLOBAL_UART>
   811c4:	9100e000 	add	x0, x0, #0x38
   811c8:	97ffffc5 	bl	810dc <debug_hex64>
   811cc:	d2a12000 	mov	x0, #0x9000000             	// #150994944
   811d0:	528008c1 	mov	w1, #0x46                  	// #70
   811d4:	b9000001 	str	w1, [x0]
   811d8:	52800981 	mov	w1, #0x4c                  	// #76
   811dc:	b9000001 	str	w1, [x0]
   811e0:	52800821 	mov	w1, #0x41                  	// #65
   811e4:	b9000001 	str	w1, [x0]
   811e8:	528008e1 	mov	w1, #0x47                  	// #71
   811ec:	b9000001 	str	w1, [x0]
   811f0:	52800a61 	mov	w1, #0x53                  	// #83
   811f4:	b9000001 	str	w1, [x0]
   811f8:	52800741 	mov	w1, #0x3a                  	// #58
   811fc:	b9000001 	str	w1, [x0]
   81200:	52800401 	mov	w1, #0x20                  	// #32
   81204:	b9000001 	str	w1, [x0]
   81208:	36000513 	tbz	w19, #0, 812a8 <decode_pte+0xfc>
   8120c:	52800ac1 	mov	w1, #0x56                  	// #86
   81210:	b9000001 	str	w1, [x0]
   81214:	36080533 	tbz	w19, #1, 812b8 <decode_pte+0x10c>
   81218:	d2a12000 	mov	x0, #0x9000000             	// #150994944
   8121c:	52800a81 	mov	w1, #0x54                  	// #84
   81220:	b9000001 	str	w1, [x0]
   81224:	53061e60 	ubfx	w0, w19, #6, #2
   81228:	35000500 	cbnz	w0, 812c8 <decode_pte+0x11c>
   8122c:	d2a12000 	mov	x0, #0x9000000             	// #150994944
   81230:	52800ae1 	mov	w1, #0x57                  	// #87
   81234:	b9000001 	str	w1, [x0]
   81238:	53082660 	ubfx	w0, w19, #8, #2
   8123c:	35000660 	cbnz	w0, 81308 <decode_pte+0x15c>
   81240:	d2a12000 	mov	x0, #0x9000000             	// #150994944
   81244:	528009c1 	mov	w1, #0x4e                  	// #78
   81248:	b9000001 	str	w1, [x0]
   8124c:	365007f3 	tbz	w19, #10, 81348 <decode_pte+0x19c>
   81250:	d2a12000 	mov	x0, #0x9000000             	// #150994944
   81254:	52800821 	mov	w1, #0x41                  	// #65
   81258:	b9000001 	str	w1, [x0]
   8125c:	b6a807f3 	tbz	x19, #53, 81358 <decode_pte+0x1ac>
   81260:	d2a12000 	mov	x0, #0x9000000             	// #150994944
   81264:	52800a01 	mov	w1, #0x50                  	// #80
   81268:	b9000001 	str	w1, [x0]
   8126c:	b6b007f3 	tbz	x19, #54, 81368 <decode_pte+0x1bc>
   81270:	d2a12000 	mov	x0, #0x9000000             	// #150994944
   81274:	52800aa1 	mov	w1, #0x55                  	// #85
   81278:	b9000001 	str	w1, [x0]
   8127c:	53021273 	ubfx	w19, w19, #2, #3
   81280:	1100c273 	add	w19, w19, #0x30
   81284:	d2a12000 	mov	x0, #0x9000000             	// #150994944
   81288:	b9000013 	str	w19, [x0]
   8128c:	528001a1 	mov	w1, #0xd                   	// #13
   81290:	b9000001 	str	w1, [x0]
   81294:	52800141 	mov	w1, #0xa                   	// #10
   81298:	b9000001 	str	w1, [x0]
   8129c:	f9400bf3 	ldr	x19, [sp, #16]
   812a0:	a8c27bfd 	ldp	x29, x30, [sp], #32
   812a4:	d65f03c0 	ret
   812a8:	d2a12000 	mov	x0, #0x9000000             	// #150994944
   812ac:	52800ec1 	mov	w1, #0x76                  	// #118
   812b0:	b9000001 	str	w1, [x0]
   812b4:	17ffffd8 	b	81214 <decode_pte+0x68>
   812b8:	d2a12000 	mov	x0, #0x9000000             	// #150994944
   812bc:	52800841 	mov	w1, #0x42                  	// #66
   812c0:	b9000001 	str	w1, [x0]
   812c4:	17ffffd8 	b	81224 <decode_pte+0x78>
   812c8:	7100041f 	cmp	w0, #0x1
   812cc:	540000e0 	b.eq	812e8 <decode_pte+0x13c>  // b.none
   812d0:	7100081f 	cmp	w0, #0x2
   812d4:	54000120 	b.eq	812f8 <decode_pte+0x14c>  // b.none
   812d8:	d2a12000 	mov	x0, #0x9000000             	// #150994944
   812dc:	52800e41 	mov	w1, #0x72                  	// #114
   812e0:	b9000001 	str	w1, [x0]
   812e4:	17ffffd5 	b	81238 <decode_pte+0x8c>
   812e8:	d2a12000 	mov	x0, #0x9000000             	// #150994944
   812ec:	52800a41 	mov	w1, #0x52                  	// #82
   812f0:	b9000001 	str	w1, [x0]
   812f4:	17ffffd1 	b	81238 <decode_pte+0x8c>
   812f8:	d2a12000 	mov	x0, #0x9000000             	// #150994944
   812fc:	52800ee1 	mov	w1, #0x77                  	// #119
   81300:	b9000001 	str	w1, [x0]
   81304:	17ffffcd 	b	81238 <decode_pte+0x8c>
   81308:	7100041f 	cmp	w0, #0x1
   8130c:	540000e0 	b.eq	81328 <decode_pte+0x17c>  // b.none
   81310:	7100081f 	cmp	w0, #0x2
   81314:	54000120 	b.eq	81338 <decode_pte+0x18c>  // b.none
   81318:	d2a12000 	mov	x0, #0x9000000             	// #150994944
   8131c:	52800a61 	mov	w1, #0x53                  	// #83
   81320:	b9000001 	str	w1, [x0]
   81324:	17ffffca 	b	8124c <decode_pte+0xa0>
   81328:	d2a12000 	mov	x0, #0x9000000             	// #150994944
   8132c:	528009e1 	mov	w1, #0x4f                  	// #79
   81330:	b9000001 	str	w1, [x0]
   81334:	17ffffc6 	b	8124c <decode_pte+0xa0>
   81338:	d2a12000 	mov	x0, #0x9000000             	// #150994944
   8133c:	52800921 	mov	w1, #0x49                  	// #73
   81340:	b9000001 	str	w1, [x0]
   81344:	17ffffc2 	b	8124c <decode_pte+0xa0>
   81348:	d2a12000 	mov	x0, #0x9000000             	// #150994944
   8134c:	52800c21 	mov	w1, #0x61                  	// #97
   81350:	b9000001 	str	w1, [x0]
   81354:	17ffffc2 	b	8125c <decode_pte+0xb0>
   81358:	d2a12000 	mov	x0, #0x9000000             	// #150994944
   8135c:	52800e01 	mov	w1, #0x70                  	// #112
   81360:	b9000001 	str	w1, [x0]
   81364:	17ffffc2 	b	8126c <decode_pte+0xc0>
   81368:	d2a12000 	mov	x0, #0x9000000             	// #150994944
   8136c:	52800ea1 	mov	w1, #0x75                  	// #117
   81370:	b9000001 	str	w1, [x0]
   81374:	17ffffc2 	b	8127c <decode_pte+0xd0>

0000000000081378 <dump_page_mapping>:
   81378:	a9bc7bfd 	stp	x29, x30, [sp, #-64]!
   8137c:	910003fd 	mov	x29, sp
   81380:	a90153f3 	stp	x19, x20, [sp, #16]
   81384:	a9025bf5 	stp	x21, x22, [sp, #32]
   81388:	f9001bf7 	str	x23, [sp, #48]
   8138c:	aa0003f5 	mov	x21, x0
   81390:	aa0103f3 	mov	x19, x1
   81394:	f0007bf4 	adrp	x20, 1000000 <GLOBAL_UART>
   81398:	91012294 	add	x20, x20, #0x48
   8139c:	aa1403e0 	mov	x0, x20
   813a0:	97ffff3a 	bl	81088 <debug_print>
   813a4:	aa1503e0 	mov	x0, x21
   813a8:	97ffff38 	bl	81088 <debug_print>
   813ac:	aa1403e0 	mov	x0, x20
   813b0:	97ffff36 	bl	81088 <debug_print>
   813b4:	aa1303e1 	mov	x1, x19
   813b8:	f0007be0 	adrp	x0, 1000000 <GLOBAL_UART>
   813bc:	9101e000 	add	x0, x0, #0x78
   813c0:	97ffff47 	bl	810dc <debug_hex64>
   813c4:	d34c5276 	ubfx	x22, x19, #12, #9
   813c8:	d3557675 	ubfx	x21, x19, #21, #9
   813cc:	d35e9a74 	ubfx	x20, x19, #30, #9
   813d0:	d367be73 	ubfx	x19, x19, #39, #9
   813d4:	d2a12000 	mov	x0, #0x9000000             	// #150994944
   813d8:	52800981 	mov	w1, #0x4c                  	// #76
   813dc:	b9000001 	str	w1, [x0]
   813e0:	52800601 	mov	w1, #0x30                  	// #48
   813e4:	b9000001 	str	w1, [x0]
   813e8:	52800741 	mov	w1, #0x3a                  	// #58
   813ec:	b9000001 	str	w1, [x0]
   813f0:	52800101 	mov	w1, #0x8                   	// #8
   813f4:	aa0003e2 	mov	x2, x0
   813f8:	9ac12660 	lsr	x0, x19, x1
   813fc:	12000000 	and	w0, w0, #0x1
   81400:	1100c000 	add	w0, w0, #0x30
   81404:	b9000040 	str	w0, [x2]
   81408:	51000421 	sub	w1, w1, #0x1
   8140c:	3100043f 	cmn	w1, #0x1
   81410:	54ffff41 	b.ne	813f8 <dump_page_mapping+0x80>  // b.any
   81414:	d2a12000 	mov	x0, #0x9000000             	// #150994944
   81418:	52800401 	mov	w1, #0x20                  	// #32
   8141c:	b9000001 	str	w1, [x0]
   81420:	52800981 	mov	w1, #0x4c                  	// #76
   81424:	b9000001 	str	w1, [x0]
   81428:	52800621 	mov	w1, #0x31                  	// #49
   8142c:	b9000001 	str	w1, [x0]
   81430:	52800741 	mov	w1, #0x3a                  	// #58
   81434:	b9000001 	str	w1, [x0]
   81438:	52800101 	mov	w1, #0x8                   	// #8
   8143c:	aa0003e2 	mov	x2, x0
   81440:	9ac12680 	lsr	x0, x20, x1
   81444:	12000000 	and	w0, w0, #0x1
   81448:	1100c000 	add	w0, w0, #0x30
   8144c:	b9000040 	str	w0, [x2]
   81450:	51000421 	sub	w1, w1, #0x1
   81454:	3100043f 	cmn	w1, #0x1
   81458:	54ffff41 	b.ne	81440 <dump_page_mapping+0xc8>  // b.any
   8145c:	d2a12000 	mov	x0, #0x9000000             	// #150994944
   81460:	52800401 	mov	w1, #0x20                  	// #32
   81464:	b9000001 	str	w1, [x0]
   81468:	52800981 	mov	w1, #0x4c                  	// #76
   8146c:	b9000001 	str	w1, [x0]
   81470:	52800641 	mov	w1, #0x32                  	// #50
   81474:	b9000001 	str	w1, [x0]
   81478:	52800741 	mov	w1, #0x3a                  	// #58
   8147c:	b9000001 	str	w1, [x0]
   81480:	52800101 	mov	w1, #0x8                   	// #8
   81484:	aa0003e2 	mov	x2, x0
   81488:	9ac126a0 	lsr	x0, x21, x1
   8148c:	12000000 	and	w0, w0, #0x1
   81490:	1100c000 	add	w0, w0, #0x30
   81494:	b9000040 	str	w0, [x2]
   81498:	51000421 	sub	w1, w1, #0x1
   8149c:	3100043f 	cmn	w1, #0x1
   814a0:	54ffff41 	b.ne	81488 <dump_page_mapping+0x110>  // b.any
   814a4:	d2a12000 	mov	x0, #0x9000000             	// #150994944
   814a8:	52800401 	mov	w1, #0x20                  	// #32
   814ac:	b9000001 	str	w1, [x0]
   814b0:	52800981 	mov	w1, #0x4c                  	// #76
   814b4:	b9000001 	str	w1, [x0]
   814b8:	52800661 	mov	w1, #0x33                  	// #51
   814bc:	b9000001 	str	w1, [x0]
   814c0:	52800741 	mov	w1, #0x3a                  	// #58
   814c4:	b9000001 	str	w1, [x0]
   814c8:	52800101 	mov	w1, #0x8                   	// #8
   814cc:	aa0003e2 	mov	x2, x0
   814d0:	9ac126c0 	lsr	x0, x22, x1
   814d4:	12000000 	and	w0, w0, #0x1
   814d8:	1100c000 	add	w0, w0, #0x30
   814dc:	b9000040 	str	w0, [x2]
   814e0:	51000421 	sub	w1, w1, #0x1
   814e4:	3100043f 	cmn	w1, #0x1
   814e8:	54ffff41 	b.ne	814d0 <dump_page_mapping+0x158>  // b.any
   814ec:	d2a12000 	mov	x0, #0x9000000             	// #150994944
   814f0:	528001a1 	mov	w1, #0xd                   	// #13
   814f4:	b9000001 	str	w1, [x0]
   814f8:	52800141 	mov	w1, #0xa                   	// #10
   814fc:	b9000001 	str	w1, [x0]
   81500:	940010b4 	bl	857d0 <get_kernel_page_table>
   81504:	aa0003f7 	mov	x23, x0
   81508:	aa0003e1 	mov	x1, x0
   8150c:	f0007be0 	adrp	x0, 1000000 <GLOBAL_UART>
   81510:	91024000 	add	x0, x0, #0x90
   81514:	97fffef2 	bl	810dc <debug_hex64>
   81518:	b40006b7 	cbz	x23, 815ec <dump_page_mapping+0x274>
   8151c:	f8737af3 	ldr	x19, [x23, x19, lsl #3]
   81520:	aa1303e1 	mov	x1, x19
   81524:	f0007be0 	adrp	x0, 1000000 <GLOBAL_UART>
   81528:	91030000 	add	x0, x0, #0xc0
   8152c:	97fffeec 	bl	810dc <debug_hex64>
   81530:	36000673 	tbz	w19, #0, 815fc <dump_page_mapping+0x284>
   81534:	9274ce73 	and	x19, x19, #0xfffffffffffff000
   81538:	aa1303e1 	mov	x1, x19
   8153c:	f0007be0 	adrp	x0, 1000000 <GLOBAL_UART>
   81540:	9103c000 	add	x0, x0, #0xf0
   81544:	97fffee6 	bl	810dc <debug_hex64>
   81548:	f8747a73 	ldr	x19, [x19, x20, lsl #3]
   8154c:	aa1303e1 	mov	x1, x19
   81550:	f0007be0 	adrp	x0, 1000000 <GLOBAL_UART>
   81554:	91040000 	add	x0, x0, #0x100
   81558:	97fffee1 	bl	810dc <debug_hex64>
   8155c:	36000613 	tbz	w19, #0, 8161c <dump_page_mapping+0x2a4>
   81560:	9274ce73 	and	x19, x19, #0xfffffffffffff000
   81564:	aa1303e1 	mov	x1, x19
   81568:	f0007be0 	adrp	x0, 1000000 <GLOBAL_UART>
   8156c:	9104c000 	add	x0, x0, #0x130
   81570:	97fffedb 	bl	810dc <debug_hex64>
   81574:	f8757a73 	ldr	x19, [x19, x21, lsl #3]
   81578:	aa1303e1 	mov	x1, x19
   8157c:	f0007be0 	adrp	x0, 1000000 <GLOBAL_UART>
   81580:	91050000 	add	x0, x0, #0x140
   81584:	97fffed6 	bl	810dc <debug_hex64>
   81588:	36000533 	tbz	w19, #0, 8162c <dump_page_mapping+0x2b4>
   8158c:	9274ce73 	and	x19, x19, #0xfffffffffffff000
   81590:	aa1303e1 	mov	x1, x19
   81594:	f0007be0 	adrp	x0, 1000000 <GLOBAL_UART>
   81598:	9105c000 	add	x0, x0, #0x170
   8159c:	97fffed0 	bl	810dc <debug_hex64>
   815a0:	f8767a73 	ldr	x19, [x19, x22, lsl #3]
   815a4:	aa1303e1 	mov	x1, x19
   815a8:	f0007be0 	adrp	x0, 1000000 <GLOBAL_UART>
   815ac:	91060000 	add	x0, x0, #0x180
   815b0:	97fffecb 	bl	810dc <debug_hex64>
   815b4:	36000453 	tbz	w19, #0, 8163c <dump_page_mapping+0x2c4>
   815b8:	f0007be0 	adrp	x0, 1000000 <GLOBAL_UART>
   815bc:	9106c000 	add	x0, x0, #0x1b0
   815c0:	97fffeb2 	bl	81088 <debug_print>
   815c4:	aa1303e0 	mov	x0, x19
   815c8:	97fffef9 	bl	811ac <decode_pte>
   815cc:	9274ce61 	and	x1, x19, #0xfffffffffffff000
   815d0:	f0007be0 	adrp	x0, 1000000 <GLOBAL_UART>
   815d4:	91070000 	add	x0, x0, #0x1c0
   815d8:	97fffec1 	bl	810dc <debug_hex64>
   815dc:	f0007be0 	adrp	x0, 1000000 <GLOBAL_UART>
   815e0:	91076000 	add	x0, x0, #0x1d8
   815e4:	97fffea9 	bl	81088 <debug_print>
   815e8:	14000008 	b	81608 <dump_page_mapping+0x290>
   815ec:	f0007be0 	adrp	x0, 1000000 <GLOBAL_UART>
   815f0:	91028000 	add	x0, x0, #0xa0
   815f4:	97fffea5 	bl	81088 <debug_print>
   815f8:	14000004 	b	81608 <dump_page_mapping+0x290>
   815fc:	f0007be0 	adrp	x0, 1000000 <GLOBAL_UART>
   81600:	91034000 	add	x0, x0, #0xd0
   81604:	97fffea1 	bl	81088 <debug_print>
   81608:	a94153f3 	ldp	x19, x20, [sp, #16]
   8160c:	a9425bf5 	ldp	x21, x22, [sp, #32]
   81610:	f9401bf7 	ldr	x23, [sp, #48]
   81614:	a8c47bfd 	ldp	x29, x30, [sp], #64
   81618:	d65f03c0 	ret
   8161c:	f0007be0 	adrp	x0, 1000000 <GLOBAL_UART>
   81620:	91044000 	add	x0, x0, #0x110
   81624:	97fffe99 	bl	81088 <debug_print>
   81628:	17fffff8 	b	81608 <dump_page_mapping+0x290>
   8162c:	f0007be0 	adrp	x0, 1000000 <GLOBAL_UART>
   81630:	91054000 	add	x0, x0, #0x150
   81634:	97fffe95 	bl	81088 <debug_print>
   81638:	17fffff4 	b	81608 <dump_page_mapping+0x290>
   8163c:	f0007be0 	adrp	x0, 1000000 <GLOBAL_UART>
   81640:	91064000 	add	x0, x0, #0x190
   81644:	97fffe91 	bl	81088 <debug_print>
   81648:	17fffff0 	b	81608 <dump_page_mapping+0x290>

000000000008164c <task_b>:
   8164c:	d10043ff 	sub	sp, sp, #0x10
   81650:	d2a12000 	mov	x0, #0x9000000             	// #150994944
   81654:	52800841 	mov	w1, #0x42                  	// #66
   81658:	b9000001 	str	w1, [x0]
   8165c:	52800be1 	mov	w1, #0x5f                  	// #95
   81660:	b9000001 	str	w1, [x0]
   81664:	52800a61 	mov	w1, #0x53                  	// #83
   81668:	b9000001 	str	w1, [x0]
   8166c:	52800a81 	mov	w1, #0x54                  	// #84
   81670:	b9000001 	str	w1, [x0]
   81674:	52800822 	mov	w2, #0x41                  	// #65
   81678:	b9000002 	str	w2, [x0]
   8167c:	52800a42 	mov	w2, #0x52                  	// #82
   81680:	b9000002 	str	w2, [x0]
   81684:	b9000001 	str	w1, [x0]
   81688:	528001a1 	mov	w1, #0xd                   	// #13
   8168c:	b9000001 	str	w1, [x0]
   81690:	52800141 	mov	w1, #0xa                   	// #10
   81694:	b9000001 	str	w1, [x0]
   81698:	aa0003e3 	mov	x3, x0
   8169c:	52800842 	mov	w2, #0x42                  	// #66
   816a0:	5290d3e1 	mov	w1, #0x869f                	// #34463
   816a4:	72a00021 	movk	w1, #0x1, lsl #16
   816a8:	b9000062 	str	w2, [x3]
   816ac:	b9000fff 	str	wzr, [sp, #12]
   816b0:	b9400fe0 	ldr	w0, [sp, #12]
   816b4:	6b01001f 	cmp	w0, w1
   816b8:	54ffff8c 	b.gt	816a8 <task_b+0x5c>
   816bc:	b9400fe0 	ldr	w0, [sp, #12]
   816c0:	11000400 	add	w0, w0, #0x1
   816c4:	b9000fe0 	str	w0, [sp, #12]
   816c8:	b9400fe0 	ldr	w0, [sp, #12]
   816cc:	6b01001f 	cmp	w0, w1
   816d0:	54ffff6d 	b.le	816bc <task_b+0x70>
   816d4:	17fffff5 	b	816a8 <task_b+0x5c>

00000000000816d8 <verify_vbar_el1>:
   816d8:	a9bd7bfd 	stp	x29, x30, [sp, #-48]!
   816dc:	910003fd 	mov	x29, sp
   816e0:	a90153f3 	stp	x19, x20, [sp, #16]
   816e4:	f90013f5 	str	x21, [sp, #32]
   816e8:	d2a12000 	mov	x0, #0x9000000             	// #150994944
   816ec:	52800ac1 	mov	w1, #0x56                  	// #86
   816f0:	b9000001 	str	w1, [x0]
   816f4:	52800841 	mov	w1, #0x42                  	// #66
   816f8:	b9000001 	str	w1, [x0]
   816fc:	52800821 	mov	w1, #0x41                  	// #65
   81700:	b9000001 	str	w1, [x0]
   81704:	52800a41 	mov	w1, #0x52                  	// #82
   81708:	b9000001 	str	w1, [x0]
   8170c:	52800be1 	mov	w1, #0x5f                  	// #95
   81710:	b9000001 	str	w1, [x0]
   81714:	52800861 	mov	w1, #0x43                  	// #67
   81718:	b9000001 	str	w1, [x0]
   8171c:	52800901 	mov	w1, #0x48                  	// #72
   81720:	b9000001 	str	w1, [x0]
   81724:	52800961 	mov	w1, #0x4b                  	// #75
   81728:	b9000001 	str	w1, [x0]
   8172c:	528001a1 	mov	w1, #0xd                   	// #13
   81730:	b9000001 	str	w1, [x0]
   81734:	52800141 	mov	w1, #0xa                   	// #10
   81738:	b9000001 	str	w1, [x0]
   8173c:	d538c015 	mrs	x21, vbar_el1
   81740:	90000053 	adrp	x19, 89000 <vector_table>
   81744:	91000273 	add	x19, x19, #0x0
   81748:	f0007be0 	adrp	x0, 1000000 <GLOBAL_UART>
   8174c:	91082000 	add	x0, x0, #0x208
   81750:	97fffe4e 	bl	81088 <debug_print>
   81754:	f0007be0 	adrp	x0, 1000000 <GLOBAL_UART>
   81758:	9108a000 	add	x0, x0, #0x228
   8175c:	97fffe4b 	bl	81088 <debug_print>
   81760:	d0007c14 	adrp	x20, 1003000 <GLOBAL_UART+0x3000>
   81764:	910e2294 	add	x20, x20, #0x388
   81768:	aa1303e1 	mov	x1, x19
   8176c:	aa1403e0 	mov	x0, x20
   81770:	97fffe5b 	bl	810dc <debug_hex64>
   81774:	f0007be0 	adrp	x0, 1000000 <GLOBAL_UART>
   81778:	91090000 	add	x0, x0, #0x240
   8177c:	97fffe43 	bl	81088 <debug_print>
   81780:	aa1503e1 	mov	x1, x21
   81784:	aa1403e0 	mov	x0, x20
   81788:	97fffe55 	bl	810dc <debug_hex64>
   8178c:	eb1302bf 	cmp	x21, x19
   81790:	54000100 	b.eq	817b0 <verify_vbar_el1+0xd8>  // b.none
   81794:	f0007be0 	adrp	x0, 1000000 <GLOBAL_UART>
   81798:	910be000 	add	x0, x0, #0x2f8
   8179c:	97fffe3b 	bl	81088 <debug_print>
   817a0:	a94153f3 	ldp	x19, x20, [sp, #16]
   817a4:	f94013f5 	ldr	x21, [sp, #32]
   817a8:	a8c37bfd 	ldp	x29, x30, [sp], #48
   817ac:	d65f03c0 	ret
   817b0:	f0007be0 	adrp	x0, 1000000 <GLOBAL_UART>
   817b4:	91094000 	add	x0, x0, #0x250
   817b8:	97fffe34 	bl	81088 <debug_print>
   817bc:	92402a73 	and	x19, x19, #0x7ff
   817c0:	b50001d3 	cbnz	x19, 817f8 <verify_vbar_el1+0x120>
   817c4:	f0007be0 	adrp	x0, 1000000 <GLOBAL_UART>
   817c8:	9109e000 	add	x0, x0, #0x278
   817cc:	97fffe2f 	bl	81088 <debug_print>
   817d0:	90000040 	adrp	x0, 89000 <vector_table>
   817d4:	b9400013 	ldr	w19, [x0]
   817d8:	f0007be0 	adrp	x0, 1000000 <GLOBAL_UART>
   817dc:	910b4000 	add	x0, x0, #0x2d0
   817e0:	97fffe2a 	bl	81088 <debug_print>
   817e4:	2a1303e1 	mov	w1, w19
   817e8:	d0007c00 	adrp	x0, 1003000 <GLOBAL_UART+0x3000>
   817ec:	910e2000 	add	x0, x0, #0x388
   817f0:	97fffe3b 	bl	810dc <debug_hex64>
   817f4:	17ffffeb 	b	817a0 <verify_vbar_el1+0xc8>
   817f8:	f0007be0 	adrp	x0, 1000000 <GLOBAL_UART>
   817fc:	910a8000 	add	x0, x0, #0x2a0
   81800:	97fffe22 	bl	81088 <debug_print>
   81804:	17fffff3 	b	817d0 <verify_vbar_el1+0xf8>

0000000000081808 <verify_and_fix_vector_table>:
   81808:	a9be7bfd 	stp	x29, x30, [sp, #-32]!
   8180c:	910003fd 	mov	x29, sp
   81810:	f9000bf3 	str	x19, [sp, #16]
   81814:	90000053 	adrp	x19, 89000 <vector_table>
   81818:	91000273 	add	x19, x19, #0x0
   8181c:	d2a12000 	mov	x0, #0x9000000             	// #150994944
   81820:	52800ac1 	mov	w1, #0x56                  	// #86
   81824:	b9000001 	str	w1, [x0]
   81828:	52800a81 	mov	w1, #0x54                  	// #84
   8182c:	b9000001 	str	w1, [x0]
   81830:	528007a1 	mov	w1, #0x3d                  	// #61
   81834:	b9000001 	str	w1, [x0]
   81838:	52800401 	mov	w1, #0x20                  	// #32
   8183c:	b9000001 	str	w1, [x0]
   81840:	d360fe60 	lsr	x0, x19, #32
   81844:	2a1303e5 	mov	w5, w19
   81848:	b40001c0 	cbz	x0, 81880 <verify_and_fix_vector_table+0x78>
   8184c:	2a0003e4 	mov	w4, w0
   81850:	52800381 	mov	w1, #0x1c                  	// #28
   81854:	d2a12006 	mov	x6, #0x9000000             	// #150994944
   81858:	1ac12480 	lsr	w0, w4, w1
   8185c:	12000c00 	and	w0, w0, #0xf
   81860:	1100c003 	add	w3, w0, #0x30
   81864:	1100dc02 	add	w2, w0, #0x37
   81868:	7100241f 	cmp	w0, #0x9
   8186c:	1a838040 	csel	w0, w2, w3, hi	// hi = pmore
   81870:	b90000c0 	str	w0, [x6]
   81874:	51001021 	sub	w1, w1, #0x4
   81878:	3100103f 	cmn	w1, #0x4
   8187c:	54fffee1 	b.ne	81858 <verify_and_fix_vector_table+0x50>  // b.any
   81880:	52800381 	mov	w1, #0x1c                  	// #28
   81884:	d2a12004 	mov	x4, #0x9000000             	// #150994944
   81888:	1ac124a0 	lsr	w0, w5, w1
   8188c:	12000c00 	and	w0, w0, #0xf
   81890:	1100c003 	add	w3, w0, #0x30
   81894:	1100dc02 	add	w2, w0, #0x37
   81898:	7100241f 	cmp	w0, #0x9
   8189c:	1a838040 	csel	w0, w2, w3, hi	// hi = pmore
   818a0:	b9000080 	str	w0, [x4]
   818a4:	51001021 	sub	w1, w1, #0x4
   818a8:	3100103f 	cmn	w1, #0x4
   818ac:	54fffee1 	b.ne	81888 <verify_and_fix_vector_table+0x80>  // b.any
   818b0:	d2a12000 	mov	x0, #0x9000000             	// #150994944
   818b4:	528001a1 	mov	w1, #0xd                   	// #13
   818b8:	b9000001 	str	w1, [x0]
   818bc:	52800141 	mov	w1, #0xa                   	// #10
   818c0:	b9000001 	str	w1, [x0]
   818c4:	92402a60 	and	x0, x19, #0x7ff
   818c8:	b4000280 	cbz	x0, 81918 <verify_and_fix_vector_table+0x110>
   818cc:	d2a12000 	mov	x0, #0x9000000             	// #150994944
   818d0:	52800ac1 	mov	w1, #0x56                  	// #86
   818d4:	b9000001 	str	w1, [x0]
   818d8:	52800a81 	mov	w1, #0x54                  	// #84
   818dc:	b9000001 	str	w1, [x0]
   818e0:	52800be1 	mov	w1, #0x5f                  	// #95
   818e4:	b9000001 	str	w1, [x0]
   818e8:	52800821 	mov	w1, #0x41                  	// #65
   818ec:	b9000001 	str	w1, [x0]
   818f0:	52800981 	mov	w1, #0x4c                  	// #76
   818f4:	b9000001 	str	w1, [x0]
   818f8:	528009c1 	mov	w1, #0x4e                  	// #78
   818fc:	b9000001 	str	w1, [x0]
   81900:	52800421 	mov	w1, #0x21                  	// #33
   81904:	b9000001 	str	w1, [x0]
   81908:	528001a1 	mov	w1, #0xd                   	// #13
   8190c:	b9000001 	str	w1, [x0]
   81910:	52800141 	mov	w1, #0xa                   	// #10
   81914:	b9000001 	str	w1, [x0]
   81918:	90000040 	adrp	x0, 89000 <vector_table>
   8191c:	b9400005 	ldr	w5, [x0]
   81920:	d2a12000 	mov	x0, #0x9000000             	// #150994944
   81924:	52800ac1 	mov	w1, #0x56                  	// #86
   81928:	b9000001 	str	w1, [x0]
   8192c:	52800a81 	mov	w1, #0x54                  	// #84
   81930:	b9000001 	str	w1, [x0]
   81934:	52800b61 	mov	w1, #0x5b                  	// #91
   81938:	b9000001 	str	w1, [x0]
   8193c:	52800601 	mov	w1, #0x30                  	// #48
   81940:	b9000001 	str	w1, [x0]
   81944:	52800ba1 	mov	w1, #0x5d                  	// #93
   81948:	b9000001 	str	w1, [x0]
   8194c:	528007a1 	mov	w1, #0x3d                  	// #61
   81950:	b9000001 	str	w1, [x0]
   81954:	52800401 	mov	w1, #0x20                  	// #32
   81958:	b9000001 	str	w1, [x0]
   8195c:	52800381 	mov	w1, #0x1c                  	// #28
   81960:	aa0003e4 	mov	x4, x0
   81964:	1ac124a0 	lsr	w0, w5, w1
   81968:	12000c00 	and	w0, w0, #0xf
   8196c:	1100c003 	add	w3, w0, #0x30
   81970:	1100dc02 	add	w2, w0, #0x37
   81974:	7100241f 	cmp	w0, #0x9
   81978:	1a838040 	csel	w0, w2, w3, hi	// hi = pmore
   8197c:	b9000080 	str	w0, [x4]
   81980:	51001021 	sub	w1, w1, #0x4
   81984:	3100103f 	cmn	w1, #0x4
   81988:	54fffee1 	b.ne	81964 <verify_and_fix_vector_table+0x15c>  // b.any
   8198c:	d2a12000 	mov	x0, #0x9000000             	// #150994944
   81990:	528001a1 	mov	w1, #0xd                   	// #13
   81994:	b9000001 	str	w1, [x0]
   81998:	52800141 	mov	w1, #0xa                   	// #10
   8199c:	b9000001 	str	w1, [x0]
   819a0:	b9420265 	ldr	w5, [x19, #512]
   819a4:	52800a61 	mov	w1, #0x53                  	// #83
   819a8:	b9000001 	str	w1, [x0]
   819ac:	52800b21 	mov	w1, #0x59                  	// #89
   819b0:	b9000001 	str	w1, [x0]
   819b4:	528009c1 	mov	w1, #0x4e                  	// #78
   819b8:	b9000001 	str	w1, [x0]
   819bc:	52800861 	mov	w1, #0x43                  	// #67
   819c0:	b9000001 	str	w1, [x0]
   819c4:	528007a1 	mov	w1, #0x3d                  	// #61
   819c8:	b9000001 	str	w1, [x0]
   819cc:	52800401 	mov	w1, #0x20                  	// #32
   819d0:	b9000001 	str	w1, [x0]
   819d4:	52800381 	mov	w1, #0x1c                  	// #28
   819d8:	aa0003e4 	mov	x4, x0
   819dc:	1ac124a0 	lsr	w0, w5, w1
   819e0:	12000c00 	and	w0, w0, #0xf
   819e4:	1100c003 	add	w3, w0, #0x30
   819e8:	1100dc02 	add	w2, w0, #0x37
   819ec:	7100241f 	cmp	w0, #0x9
   819f0:	1a838040 	csel	w0, w2, w3, hi	// hi = pmore
   819f4:	b9000080 	str	w0, [x4]
   819f8:	51001021 	sub	w1, w1, #0x4
   819fc:	3100103f 	cmn	w1, #0x4
   81a00:	54fffee1 	b.ne	819dc <verify_and_fix_vector_table+0x1d4>  // b.any
   81a04:	d2a12000 	mov	x0, #0x9000000             	// #150994944
   81a08:	528001a1 	mov	w1, #0xd                   	// #13
   81a0c:	b9000001 	str	w1, [x0]
   81a10:	52800141 	mov	w1, #0xa                   	// #10
   81a14:	b9000001 	str	w1, [x0]
   81a18:	94000f6e 	bl	857d0 <get_kernel_page_table>
   81a1c:	b4000160 	cbz	x0, 81a48 <verify_and_fix_vector_table+0x240>
   81a20:	aa1303e1 	mov	x1, x19
   81a24:	94000c77 	bl	84c00 <get_l3_table_for_addr>
   81a28:	b40002c0 	cbz	x0, 81a80 <verify_and_fix_vector_table+0x278>
   81a2c:	9400115a 	bl	85f94 <ensure_vector_table_executable_l3>
   81a30:	f0007be0 	adrp	x0, 1000000 <GLOBAL_UART>
   81a34:	910c8000 	add	x0, x0, #0x320
   81a38:	97fffd94 	bl	81088 <debug_print>
   81a3c:	f9400bf3 	ldr	x19, [sp, #16]
   81a40:	a8c27bfd 	ldp	x29, x30, [sp], #32
   81a44:	d65f03c0 	ret
   81a48:	d2a12000 	mov	x0, #0x9000000             	// #150994944
   81a4c:	528009c1 	mov	w1, #0x4e                  	// #78
   81a50:	b9000001 	str	w1, [x0]
   81a54:	528009e1 	mov	w1, #0x4f                  	// #79
   81a58:	b9000001 	str	w1, [x0]
   81a5c:	52800a01 	mov	w1, #0x50                  	// #80
   81a60:	b9000001 	str	w1, [x0]
   81a64:	52800a81 	mov	w1, #0x54                  	// #84
   81a68:	b9000001 	str	w1, [x0]
   81a6c:	528001a1 	mov	w1, #0xd                   	// #13
   81a70:	b9000001 	str	w1, [x0]
   81a74:	52800141 	mov	w1, #0xa                   	// #10
   81a78:	b9000001 	str	w1, [x0]
   81a7c:	17fffff0 	b	81a3c <verify_and_fix_vector_table+0x234>
   81a80:	f0007be0 	adrp	x0, 1000000 <GLOBAL_UART>
   81a84:	910d2000 	add	x0, x0, #0x348
   81a88:	97fffd80 	bl	81088 <debug_print>
   81a8c:	14000000 	b	81a8c <verify_and_fix_vector_table+0x284>

0000000000081a90 <write_uart>:
   81a90:	12001c00 	and	w0, w0, #0xff
   81a94:	d2a12001 	mov	x1, #0x9000000             	// #150994944
   81a98:	b9000020 	str	w0, [x1]
   81a9c:	d65f03c0 	ret

0000000000081aa0 <write_string>:
   81aa0:	a9be7bfd 	stp	x29, x30, [sp, #-32]!
   81aa4:	910003fd 	mov	x29, sp
   81aa8:	f9000bf3 	str	x19, [sp, #16]
   81aac:	aa0003f3 	mov	x19, x0
   81ab0:	39400000 	ldrb	w0, [x0]
   81ab4:	34000080 	cbz	w0, 81ac4 <write_string+0x24>
   81ab8:	97fffff6 	bl	81a90 <write_uart>
   81abc:	38401e60 	ldrb	w0, [x19, #1]!
   81ac0:	35ffffc0 	cbnz	w0, 81ab8 <write_string+0x18>
   81ac4:	f9400bf3 	ldr	x19, [sp, #16]
   81ac8:	a8c27bfd 	ldp	x29, x30, [sp], #32
   81acc:	d65f03c0 	ret

0000000000081ad0 <init_exceptions_minimal>:
   81ad0:	d2a12000 	mov	x0, #0x9000000             	// #150994944
   81ad4:	528009a1 	mov	w1, #0x4d                  	// #77
   81ad8:	b9000001 	str	w1, [x0]
   81adc:	528008a1 	mov	w1, #0x45                  	// #69
   81ae0:	b9000001 	str	w1, [x0]
   81ae4:	52800b01 	mov	w1, #0x58                  	// #88
   81ae8:	b9000001 	str	w1, [x0]
   81aec:	52800861 	mov	w1, #0x43                  	// #67
   81af0:	b9000001 	str	w1, [x0]
   81af4:	52800741 	mov	w1, #0x3a                  	// #58
   81af8:	b9000001 	str	w1, [x0]
   81afc:	90000040 	adrp	x0, 89000 <vector_table>
   81b00:	91000000 	add	x0, x0, #0x0
   81b04:	92402801 	and	x1, x0, #0x7ff
   81b08:	b4000161 	cbz	x1, 81b34 <init_exceptions_minimal+0x64>
   81b0c:	d2a12000 	mov	x0, #0x9000000             	// #150994944
   81b10:	52800821 	mov	w1, #0x41                  	// #65
   81b14:	b9000001 	str	w1, [x0]
   81b18:	52800981 	mov	w1, #0x4c                  	// #76
   81b1c:	b9000001 	str	w1, [x0]
   81b20:	528009c1 	mov	w1, #0x4e                  	// #78
   81b24:	b9000001 	str	w1, [x0]
   81b28:	52800421 	mov	w1, #0x21                  	// #33
   81b2c:	b9000001 	str	w1, [x0]
   81b30:	14000000 	b	81b30 <init_exceptions_minimal+0x60>
   81b34:	d518c000 	msr	vbar_el1, x0
   81b38:	d5033fdf 	isb
   81b3c:	d538c001 	mrs	x1, vbar_el1
   81b40:	eb01001f 	cmp	x0, x1
   81b44:	54000160 	b.eq	81b70 <init_exceptions_minimal+0xa0>  // b.none
   81b48:	d2a12000 	mov	x0, #0x9000000             	// #150994944
   81b4c:	52800ac1 	mov	w1, #0x56                  	// #86
   81b50:	b9000001 	str	w1, [x0]
   81b54:	52800841 	mov	w1, #0x42                  	// #66
   81b58:	b9000001 	str	w1, [x0]
   81b5c:	52800a41 	mov	w1, #0x52                  	// #82
   81b60:	b9000001 	str	w1, [x0]
   81b64:	52800421 	mov	w1, #0x21                  	// #33
   81b68:	b9000001 	str	w1, [x0]
   81b6c:	14000000 	b	81b6c <init_exceptions_minimal+0x9c>
   81b70:	d2a12000 	mov	x0, #0x9000000             	// #150994944
   81b74:	528009e1 	mov	w1, #0x4f                  	// #79
   81b78:	b9000001 	str	w1, [x0]
   81b7c:	52800961 	mov	w1, #0x4b                  	// #75
   81b80:	b9000001 	str	w1, [x0]
   81b84:	528001a1 	mov	w1, #0xd                   	// #13
   81b88:	b9000001 	str	w1, [x0]
   81b8c:	52800141 	mov	w1, #0xa                   	// #10
   81b90:	b9000001 	str	w1, [x0]
   81b94:	d65f03c0 	ret

0000000000081b98 <init_scheduler>:
   81b98:	d2a12000 	mov	x0, #0x9000000             	// #150994944
   81b9c:	52800921 	mov	w1, #0x49                  	// #73
   81ba0:	b9000001 	str	w1, [x0]
   81ba4:	528009c2 	mov	w2, #0x4e                  	// #78
   81ba8:	b9000002 	str	w2, [x0]
   81bac:	b9000001 	str	w1, [x0]
   81bb0:	52800a81 	mov	w1, #0x54                  	// #84
   81bb4:	b9000001 	str	w1, [x0]
   81bb8:	52800be1 	mov	w1, #0x5f                  	// #95
   81bbc:	b9000001 	str	w1, [x0]
   81bc0:	52800a61 	mov	w1, #0x53                  	// #83
   81bc4:	b9000001 	str	w1, [x0]
   81bc8:	52800861 	mov	w1, #0x43                  	// #67
   81bcc:	b9000001 	str	w1, [x0]
   81bd0:	52800901 	mov	w1, #0x48                  	// #72
   81bd4:	b9000001 	str	w1, [x0]
   81bd8:	528001a1 	mov	w1, #0xd                   	// #13
   81bdc:	b9000001 	str	w1, [x0]
   81be0:	52800141 	mov	w1, #0xa                   	// #10
   81be4:	b9000001 	str	w1, [x0]
   81be8:	d65f03c0 	ret

0000000000081bec <start_scheduler>:
   81bec:	a9a27bfd 	stp	x29, x30, [sp, #-480]!
   81bf0:	910003fd 	mov	x29, sp
   81bf4:	a90153f3 	stp	x19, x20, [sp, #16]
   81bf8:	d2a12000 	mov	x0, #0x9000000             	// #150994944
   81bfc:	52800a61 	mov	w1, #0x53                  	// #83
   81c00:	b9000001 	str	w1, [x0]
   81c04:	52800a82 	mov	w2, #0x54                  	// #84
   81c08:	b9000002 	str	w2, [x0]
   81c0c:	52800823 	mov	w3, #0x41                  	// #65
   81c10:	b9000003 	str	w3, [x0]
   81c14:	52800a43 	mov	w3, #0x52                  	// #82
   81c18:	b9000003 	str	w3, [x0]
   81c1c:	b9000002 	str	w2, [x0]
   81c20:	52800be2 	mov	w2, #0x5f                  	// #95
   81c24:	b9000002 	str	w2, [x0]
   81c28:	b9000001 	str	w1, [x0]
   81c2c:	52800861 	mov	w1, #0x43                  	// #67
   81c30:	b9000001 	str	w1, [x0]
   81c34:	52800901 	mov	w1, #0x48                  	// #72
   81c38:	b9000001 	str	w1, [x0]
   81c3c:	528001a1 	mov	w1, #0xd                   	// #13
   81c40:	b9000001 	str	w1, [x0]
   81c44:	52800141 	mov	w1, #0xa                   	// #10
   81c48:	b9000001 	str	w1, [x0]
   81c4c:	d538c013 	mrs	x19, vbar_el1
   81c50:	f0007be0 	adrp	x0, 1000000 <GLOBAL_UART>
   81c54:	910e0000 	add	x0, x0, #0x380
   81c58:	940001b6 	bl	82330 <uart_puts>
   81c5c:	aa1303e0 	mov	x0, x19
   81c60:	940001f8 	bl	82440 <uart_hex64>
   81c64:	f0007be0 	adrp	x0, 1000000 <GLOBAL_UART>
   81c68:	910ea000 	add	x0, x0, #0x3a8
   81c6c:	940001b1 	bl	82330 <uart_puts>
   81c70:	90000054 	adrp	x20, 89000 <vector_table>
   81c74:	f9400280 	ldr	x0, [x20]
   81c78:	940001f2 	bl	82440 <uart_hex64>
   81c7c:	f0007be0 	adrp	x0, 1000000 <GLOBAL_UART>
   81c80:	9122a000 	add	x0, x0, #0x8a8
   81c84:	940001ab 	bl	82330 <uart_puts>
   81c88:	f9400280 	ldr	x0, [x20]
   81c8c:	eb13001f 	cmp	x0, x19
   81c90:	540008a1 	b.ne	81da4 <start_scheduler+0x1b8>  // b.any
   81c94:	9102a3e0 	add	x0, sp, #0xa8
   81c98:	910783e1 	add	x1, sp, #0x1e0
   81c9c:	f800841f 	str	xzr, [x0], #8
   81ca0:	eb01001f 	cmp	x0, x1
   81ca4:	54ffffc1 	b.ne	81c9c <start_scheduler+0xb0>  // b.any
   81ca8:	d2a00120 	mov	x0, #0x90000               	// #589824
   81cac:	f90057e0 	str	x0, [sp, #168]
   81cb0:	90000000 	adrp	x0, 81000 <task_a>
   81cb4:	91000000 	add	x0, x0, #0x0
   81cb8:	f900d7e0 	str	x0, [sp, #424]
   81cbc:	d28068a0 	mov	x0, #0x345                 	// #837
   81cc0:	f900dbe0 	str	x0, [sp, #432]
   81cc4:	f0007be0 	adrp	x0, 1000000 <GLOBAL_UART>
   81cc8:	91104000 	add	x0, x0, #0x410
   81ccc:	94000199 	bl	82330 <uart_puts>
   81cd0:	94001728 	bl	87970 <dummy_task_a>
   81cd4:	f0007be0 	adrp	x0, 1000000 <GLOBAL_UART>
   81cd8:	91112000 	add	x0, x0, #0x448
   81cdc:	94000195 	bl	82330 <uart_puts>
   81ce0:	f0007be0 	adrp	x0, 1000000 <GLOBAL_UART>
   81ce4:	9111e000 	add	x0, x0, #0x478
   81ce8:	94000192 	bl	82330 <uart_puts>
   81cec:	94001295 	bl	86740 <dummy_asm>
   81cf0:	f0007be0 	adrp	x0, 1000000 <GLOBAL_UART>
   81cf4:	91126000 	add	x0, x0, #0x498
   81cf8:	9400018e 	bl	82330 <uart_puts>
   81cfc:	f0007be0 	adrp	x0, 1000000 <GLOBAL_UART>
   81d00:	91130000 	add	x0, x0, #0x4c0
   81d04:	9400018b 	bl	82330 <uart_puts>
   81d08:	940012ac 	bl	867b8 <known_branch_test>
   81d0c:	f0007be0 	adrp	x0, 1000000 <GLOBAL_UART>
   81d10:	9113a000 	add	x0, x0, #0x4e8
   81d14:	94000187 	bl	82330 <uart_puts>
   81d18:	f0007be0 	adrp	x0, 1000000 <GLOBAL_UART>
   81d1c:	91146000 	add	x0, x0, #0x518
   81d20:	94000184 	bl	82330 <uart_puts>
   81d24:	f0007be0 	adrp	x0, 1000000 <GLOBAL_UART>
   81d28:	91152000 	add	x0, x0, #0x548
   81d2c:	94000181 	bl	82330 <uart_puts>
   81d30:	b0000033 	adrp	x19, 86000 <ensure_vector_table_executable_l3+0x6c>
   81d34:	911d0273 	add	x19, x19, #0x740
   81d38:	9100a3f4 	add	x20, sp, #0x28
   81d3c:	aa1303e3 	mov	x3, x19
   81d40:	f0007be2 	adrp	x2, 1000000 <GLOBAL_UART>
   81d44:	9115e042 	add	x2, x2, #0x578
   81d48:	d2801001 	mov	x1, #0x80                  	// #128
   81d4c:	aa1403e0 	mov	x0, x20
   81d50:	94001596 	bl	873a8 <snprintf>
   81d54:	aa1403e0 	mov	x0, x20
   81d58:	94000176 	bl	82330 <uart_puts>
   81d5c:	f0007be1 	adrp	x1, 1000000 <GLOBAL_UART>
   81d60:	91166021 	add	x1, x1, #0x598
   81d64:	aa1303e0 	mov	x0, x19
   81d68:	940009ad 	bl	8441c <debug_check_mapping>
   81d6c:	52800840 	mov	w0, #0x42                  	// #66
   81d70:	94000168 	bl	82310 <uart_putc>
   81d74:	94001277 	bl	86750 <test_context_switch>
   81d78:	f0007be0 	adrp	x0, 1000000 <GLOBAL_UART>
   81d7c:	9116a000 	add	x0, x0, #0x5a8
   81d80:	9400016c 	bl	82330 <uart_puts>
   81d84:	9102a3e0 	add	x0, sp, #0xa8
   81d88:	940011bc 	bl	86478 <full_restore_context>
   81d8c:	d2a12000 	mov	x0, #0x9000000             	// #150994944
   81d90:	52800421 	mov	w1, #0x21                  	// #33
   81d94:	b9000001 	str	w1, [x0]
   81d98:	a94153f3 	ldp	x19, x20, [sp, #16]
   81d9c:	a8de7bfd 	ldp	x29, x30, [sp], #480
   81da0:	d65f03c0 	ret
   81da4:	f0007be0 	adrp	x0, 1000000 <GLOBAL_UART>
   81da8:	910f2000 	add	x0, x0, #0x3c8
   81dac:	94000161 	bl	82330 <uart_puts>
   81db0:	f9400280 	ldr	x0, [x20]
   81db4:	d518c000 	msr	vbar_el1, x0
   81db8:	d5033fdf 	isb
   81dbc:	17ffffb6 	b	81c94 <start_scheduler+0xa8>

0000000000081dc0 <panic>:
   81dc0:	d2a12001 	mov	x1, #0x9000000             	// #150994944
   81dc4:	52800a02 	mov	w2, #0x50                  	// #80
   81dc8:	b9000022 	str	w2, [x1]
   81dcc:	52800822 	mov	w2, #0x41                  	// #65
   81dd0:	b9000022 	str	w2, [x1]
   81dd4:	528009c2 	mov	w2, #0x4e                  	// #78
   81dd8:	b9000022 	str	w2, [x1]
   81ddc:	52800922 	mov	w2, #0x49                  	// #73
   81de0:	b9000022 	str	w2, [x1]
   81de4:	52800862 	mov	w2, #0x43                  	// #67
   81de8:	b9000022 	str	w2, [x1]
   81dec:	52800742 	mov	w2, #0x3a                  	// #58
   81df0:	b9000022 	str	w2, [x1]
   81df4:	52800402 	mov	w2, #0x20                  	// #32
   81df8:	b9000022 	str	w2, [x1]
   81dfc:	b40000e0 	cbz	x0, 81e18 <panic+0x58>
   81e00:	39400001 	ldrb	w1, [x0]
   81e04:	340000a1 	cbz	w1, 81e18 <panic+0x58>
   81e08:	d2a12002 	mov	x2, #0x9000000             	// #150994944
   81e0c:	b9000041 	str	w1, [x2]
   81e10:	38401c01 	ldrb	w1, [x0, #1]!
   81e14:	35ffffc1 	cbnz	w1, 81e0c <panic+0x4c>
   81e18:	d2a12000 	mov	x0, #0x9000000             	// #150994944
   81e1c:	528001a1 	mov	w1, #0xd                   	// #13
   81e20:	b9000001 	str	w1, [x0]
   81e24:	52800141 	mov	w1, #0xa                   	// #10
   81e28:	b9000001 	str	w1, [x0]
   81e2c:	14000000 	b	81e2c <panic+0x6c>

0000000000081e30 <test_exception_delivery>:
   81e30:	a9bb7bfd 	stp	x29, x30, [sp, #-80]!
   81e34:	910003fd 	mov	x29, sp
   81e38:	a90153f3 	stp	x19, x20, [sp, #16]
   81e3c:	a9025bf5 	stp	x21, x22, [sp, #32]
   81e40:	f9001bf7 	str	x23, [sp, #48]
   81e44:	f0007be0 	adrp	x0, 1000000 <GLOBAL_UART>
   81e48:	9117e000 	add	x0, x0, #0x5f8
   81e4c:	97fffc8f 	bl	81088 <debug_print>
   81e50:	d5384256 	mrs	x22, currentel
   81e54:	d53b4235 	mrs	x21, daif
   81e58:	d538c014 	mrs	x20, vbar_el1
   81e5c:	d5381013 	mrs	x19, sctlr_el1
   81e60:	f0007be0 	adrp	x0, 1000000 <GLOBAL_UART>
   81e64:	9118a000 	add	x0, x0, #0x628
   81e68:	97fffc88 	bl	81088 <debug_print>
   81e6c:	aa1603e0 	mov	x0, x22
   81e70:	9400015f 	bl	823ec <uart_print_hex>
   81e74:	f0007be0 	adrp	x0, 1000000 <GLOBAL_UART>
   81e78:	91190000 	add	x0, x0, #0x640
   81e7c:	97fffc83 	bl	81088 <debug_print>
   81e80:	aa1503e0 	mov	x0, x21
   81e84:	9400015a 	bl	823ec <uart_print_hex>
   81e88:	f0007be0 	adrp	x0, 1000000 <GLOBAL_UART>
   81e8c:	91196000 	add	x0, x0, #0x658
   81e90:	97fffc7e 	bl	81088 <debug_print>
   81e94:	aa1403e0 	mov	x0, x20
   81e98:	94000155 	bl	823ec <uart_print_hex>
   81e9c:	f0007be0 	adrp	x0, 1000000 <GLOBAL_UART>
   81ea0:	9119c000 	add	x0, x0, #0x670
   81ea4:	97fffc79 	bl	81088 <debug_print>
   81ea8:	aa1303e0 	mov	x0, x19
   81eac:	94000150 	bl	823ec <uart_print_hex>
   81eb0:	f0007be0 	adrp	x0, 1000000 <GLOBAL_UART>
   81eb4:	9122a000 	add	x0, x0, #0x8a8
   81eb8:	97fffc74 	bl	81088 <debug_print>
   81ebc:	f0007be0 	adrp	x0, 1000000 <GLOBAL_UART>
   81ec0:	911a2000 	add	x0, x0, #0x688
   81ec4:	97fffc71 	bl	81088 <debug_print>
   81ec8:	72000273 	ands	w19, w19, #0x1
   81ecc:	f0007be1 	adrp	x1, 1000000 <GLOBAL_UART>
   81ed0:	91176021 	add	x1, x1, #0x5d8
   81ed4:	f0007be0 	adrp	x0, 1000000 <GLOBAL_UART>
   81ed8:	9117a000 	add	x0, x0, #0x5e8
   81edc:	9a810000 	csel	x0, x0, x1, eq	// eq = none
   81ee0:	97fffc6a 	bl	81088 <debug_print>
   81ee4:	f0007be0 	adrp	x0, 1000000 <GLOBAL_UART>
   81ee8:	911a4000 	add	x0, x0, #0x690
   81eec:	97fffc67 	bl	81088 <debug_print>
   81ef0:	d4000001 	svc	#0x0
   81ef4:	f0007be0 	adrp	x0, 1000000 <GLOBAL_UART>
   81ef8:	911ae000 	add	x0, x0, #0x6b8
   81efc:	97fffc63 	bl	81088 <debug_print>
   81f00:	f0007be0 	adrp	x0, 1000000 <GLOBAL_UART>
   81f04:	911b6000 	add	x0, x0, #0x6d8
   81f08:	97fffc60 	bl	81088 <debug_print>
   81f0c:	940012d6 	bl	86a64 <force_timer_interrupt>
   81f10:	f0007be0 	adrp	x0, 1000000 <GLOBAL_UART>
   81f14:	911c2000 	add	x0, x0, #0x708
   81f18:	97fffc5c 	bl	81088 <debug_print>
   81f1c:	d53b4233 	mrs	x19, daif
   81f20:	f0007be0 	adrp	x0, 1000000 <GLOBAL_UART>
   81f24:	911ce000 	add	x0, x0, #0x738
   81f28:	97fffc58 	bl	81088 <debug_print>
   81f2c:	36380313 	tbz	w19, #7, 81f8c <test_exception_delivery+0x15c>
   81f30:	f0007be0 	adrp	x0, 1000000 <GLOBAL_UART>
   81f34:	9117a000 	add	x0, x0, #0x5e8
   81f38:	97fffc54 	bl	81088 <debug_print>
   81f3c:	f0007be0 	adrp	x0, 1000000 <GLOBAL_UART>
   81f40:	9122c000 	add	x0, x0, #0x8b0
   81f44:	97fffc51 	bl	81088 <debug_print>
   81f48:	940013ec 	bl	86ef8 <enable_irq>
   81f4c:	d53b4233 	mrs	x19, daif
   81f50:	f0007be0 	adrp	x0, 1000000 <GLOBAL_UART>
   81f54:	91234000 	add	x0, x0, #0x8d0
   81f58:	97fffc4c 	bl	81088 <debug_print>
   81f5c:	f2790273 	ands	x19, x19, #0x80
   81f60:	f0007be1 	adrp	x1, 1000000 <GLOBAL_UART>
   81f64:	91176021 	add	x1, x1, #0x5d8
   81f68:	f0007be0 	adrp	x0, 1000000 <GLOBAL_UART>
   81f6c:	9117a000 	add	x0, x0, #0x5e8
   81f70:	9a811000 	csel	x0, x0, x1, ne	// ne = any
   81f74:	97fffc45 	bl	81088 <debug_print>
   81f78:	14000008 	b	81f98 <test_exception_delivery+0x168>
   81f7c:	f0007be0 	adrp	x0, 1000000 <GLOBAL_UART>
   81f80:	91204000 	add	x0, x0, #0x810
   81f84:	97fffc41 	bl	81088 <debug_print>
   81f88:	1400001a 	b	81ff0 <test_exception_delivery+0x1c0>
   81f8c:	f0007be0 	adrp	x0, 1000000 <GLOBAL_UART>
   81f90:	91176000 	add	x0, x0, #0x5d8
   81f94:	97fffc3d 	bl	81088 <debug_print>
   81f98:	f0007be0 	adrp	x0, 1000000 <GLOBAL_UART>
   81f9c:	911d8000 	add	x0, x0, #0x760
   81fa0:	97fffc3a 	bl	81088 <debug_print>
   81fa4:	940012d2 	bl	86aec <test_irq_handler>
   81fa8:	f0007be0 	adrp	x0, 1000000 <GLOBAL_UART>
   81fac:	911e4000 	add	x0, x0, #0x790
   81fb0:	97fffc36 	bl	81088 <debug_print>
   81fb4:	f0007be0 	adrp	x0, 1000000 <GLOBAL_UART>
   81fb8:	911ee000 	add	x0, x0, #0x7b8
   81fbc:	97fffc33 	bl	81088 <debug_print>
   81fc0:	90000053 	adrp	x19, 89000 <vector_table>
   81fc4:	91000273 	add	x19, x19, #0x0
   81fc8:	f0007be0 	adrp	x0, 1000000 <GLOBAL_UART>
   81fcc:	911fc000 	add	x0, x0, #0x7f0
   81fd0:	97fffc2e 	bl	81088 <debug_print>
   81fd4:	aa1303e0 	mov	x0, x19
   81fd8:	94000105 	bl	823ec <uart_print_hex>
   81fdc:	f0007be0 	adrp	x0, 1000000 <GLOBAL_UART>
   81fe0:	9122a000 	add	x0, x0, #0x8a8
   81fe4:	97fffc29 	bl	81088 <debug_print>
   81fe8:	eb13029f 	cmp	x20, x19
   81fec:	54fffc81 	b.ne	81f7c <test_exception_delivery+0x14c>  // b.any
   81ff0:	f0007be0 	adrp	x0, 1000000 <GLOBAL_UART>
   81ff4:	91212000 	add	x0, x0, #0x848
   81ff8:	97fffc24 	bl	81088 <debug_print>
   81ffc:	aa1403e0 	mov	x0, x20
   82000:	940000fb 	bl	823ec <uart_print_hex>
   82004:	d0007be0 	adrp	x0, 1000000 <GLOBAL_UART>
   82008:	9121a000 	add	x0, x0, #0x868
   8200c:	97fffc1f 	bl	81088 <debug_print>
   82010:	d2800013 	mov	x19, #0x0                   	// #0
   82014:	d0007bf7 	adrp	x23, 1000000 <GLOBAL_UART>
   82018:	9121c2f7 	add	x23, x23, #0x870
   8201c:	d0007bf6 	adrp	x22, 1000000 <GLOBAL_UART>
   82020:	9121e2d6 	add	x22, x22, #0x878
   82024:	d0007bf5 	adrp	x21, 1000000 <GLOBAL_UART>
   82028:	9122a2b5 	add	x21, x21, #0x8a8
   8202c:	aa1703e0 	mov	x0, x23
   82030:	97fffc16 	bl	81088 <debug_print>
   82034:	aa1303e0 	mov	x0, x19
   82038:	940000ed 	bl	823ec <uart_print_hex>
   8203c:	aa1603e0 	mov	x0, x22
   82040:	97fffc12 	bl	81088 <debug_print>
   82044:	b8746a60 	ldr	w0, [x19, x20]
   82048:	b9004fe0 	str	w0, [sp, #76]
   8204c:	b9404fe0 	ldr	w0, [sp, #76]
   82050:	2a0003e0 	mov	w0, w0
   82054:	940000e6 	bl	823ec <uart_print_hex>
   82058:	aa1503e0 	mov	x0, x21
   8205c:	97fffc0b 	bl	81088 <debug_print>
   82060:	91001273 	add	x19, x19, #0x4
   82064:	f100827f 	cmp	x19, #0x20
   82068:	54fffe21 	b.ne	8202c <test_exception_delivery+0x1fc>  // b.any
   8206c:	d0007be0 	adrp	x0, 1000000 <GLOBAL_UART>
   82070:	91220000 	add	x0, x0, #0x880
   82074:	97fffc05 	bl	81088 <debug_print>
   82078:	a94153f3 	ldp	x19, x20, [sp, #16]
   8207c:	a9425bf5 	ldp	x21, x22, [sp, #32]
   82080:	f9401bf7 	ldr	x23, [sp, #48]
   82084:	a8c57bfd 	ldp	x29, x30, [sp], #80
   82088:	d65f03c0 	ret

000000000008208c <test_uart_direct>:
   8208c:	d2a12000 	mov	x0, #0x9000000             	// #150994944
   82090:	52800a81 	mov	w1, #0x54                  	// #84
   82094:	b9000001 	str	w1, [x0]
   82098:	52800aa1 	mov	w1, #0x55                  	// #85
   8209c:	b9000001 	str	w1, [x0]
   820a0:	52800881 	mov	w1, #0x44                  	// #68
   820a4:	b9000001 	str	w1, [x0]
   820a8:	52800421 	mov	w1, #0x21                  	// #33
   820ac:	b9000001 	str	w1, [x0]
   820b0:	d65f03c0 	ret

00000000000820b4 <test_scheduler_minimal>:
   820b4:	d2a12000 	mov	x0, #0x9000000             	// #150994944
   820b8:	528009a1 	mov	w1, #0x4d                  	// #77
   820bc:	b9000001 	str	w1, [x0]
   820c0:	52800a61 	mov	w1, #0x53                  	// #83
   820c4:	b9000001 	str	w1, [x0]
   820c8:	52800a81 	mov	w1, #0x54                  	// #84
   820cc:	b9000001 	str	w1, [x0]
   820d0:	d65f03c0 	ret

00000000000820d4 <test_scheduler>:
   820d4:	d2a12000 	mov	x0, #0x9000000             	// #150994944
   820d8:	52800a61 	mov	w1, #0x53                  	// #83
   820dc:	b9000001 	str	w1, [x0]
   820e0:	52800861 	mov	w1, #0x43                  	// #67
   820e4:	b9000001 	str	w1, [x0]
   820e8:	52800901 	mov	w1, #0x48                  	// #72
   820ec:	b9000001 	str	w1, [x0]
   820f0:	52800881 	mov	w1, #0x44                  	// #68
   820f4:	b9000001 	str	w1, [x0]
   820f8:	52800742 	mov	w2, #0x3a                  	// #58
   820fc:	b9000002 	str	w2, [x0]
   82100:	b9000001 	str	w1, [x0]
   82104:	528009e1 	mov	w1, #0x4f                  	// #79
   82108:	b9000001 	str	w1, [x0]
   8210c:	528009c1 	mov	w1, #0x4e                  	// #78
   82110:	b9000001 	str	w1, [x0]
   82114:	528008a1 	mov	w1, #0x45                  	// #69
   82118:	b9000001 	str	w1, [x0]
   8211c:	52800421 	mov	w1, #0x21                  	// #33
   82120:	b9000001 	str	w1, [x0]
   82124:	528001a1 	mov	w1, #0xd                   	// #13
   82128:	b9000001 	str	w1, [x0]
   8212c:	52800141 	mov	w1, #0xa                   	// #10
   82130:	b9000001 	str	w1, [x0]
   82134:	d65f03c0 	ret

0000000000082138 <ensure_vbar_el1>:
   82138:	a9be7bfd 	stp	x29, x30, [sp, #-32]!
   8213c:	910003fd 	mov	x29, sp
   82140:	a90153f3 	stp	x19, x20, [sp, #16]
   82144:	f0000020 	adrp	x0, 89000 <vector_table>
   82148:	f9400013 	ldr	x19, [x0]
   8214c:	d538c014 	mrs	x20, vbar_el1
   82150:	d0007be0 	adrp	x0, 1000000 <GLOBAL_UART>
   82154:	91238000 	add	x0, x0, #0x8e0
   82158:	94000076 	bl	82330 <uart_puts>
   8215c:	d0007be0 	adrp	x0, 1000000 <GLOBAL_UART>
   82160:	91240000 	add	x0, x0, #0x900
   82164:	94000073 	bl	82330 <uart_puts>
   82168:	aa1403e0 	mov	x0, x20
   8216c:	940000b5 	bl	82440 <uart_hex64>
   82170:	d0007be0 	adrp	x0, 1000000 <GLOBAL_UART>
   82174:	91246000 	add	x0, x0, #0x918
   82178:	9400006e 	bl	82330 <uart_puts>
   8217c:	aa1303e0 	mov	x0, x19
   82180:	940000b0 	bl	82440 <uart_hex64>
   82184:	d0007be0 	adrp	x0, 1000000 <GLOBAL_UART>
   82188:	9122a000 	add	x0, x0, #0x8a8
   8218c:	94000069 	bl	82330 <uart_puts>
   82190:	eb14027f 	cmp	x19, x20
   82194:	54000240 	b.eq	821dc <ensure_vbar_el1+0xa4>  // b.none
   82198:	d0007be0 	adrp	x0, 1000000 <GLOBAL_UART>
   8219c:	9124c000 	add	x0, x0, #0x930
   821a0:	94000064 	bl	82330 <uart_puts>
   821a4:	d518c013 	msr	vbar_el1, x19
   821a8:	d5033fdf 	isb
   821ac:	d538c013 	mrs	x19, vbar_el1
   821b0:	d0007be0 	adrp	x0, 1000000 <GLOBAL_UART>
   821b4:	9125a000 	add	x0, x0, #0x968
   821b8:	9400005e 	bl	82330 <uart_puts>
   821bc:	aa1303e0 	mov	x0, x19
   821c0:	940000a0 	bl	82440 <uart_hex64>
   821c4:	d0007be0 	adrp	x0, 1000000 <GLOBAL_UART>
   821c8:	9122a000 	add	x0, x0, #0x8a8
   821cc:	94000059 	bl	82330 <uart_puts>
   821d0:	a94153f3 	ldp	x19, x20, [sp, #16]
   821d4:	a8c27bfd 	ldp	x29, x30, [sp], #32
   821d8:	d65f03c0 	ret
   821dc:	d0007be0 	adrp	x0, 1000000 <GLOBAL_UART>
   821e0:	91260000 	add	x0, x0, #0x980
   821e4:	94000053 	bl	82330 <uart_puts>
   821e8:	17fffffa 	b	821d0 <ensure_vbar_el1+0x98>

00000000000821ec <init_traps>:
   821ec:	a9bd7bfd 	stp	x29, x30, [sp, #-48]!
   821f0:	910003fd 	mov	x29, sp
   821f4:	a90153f3 	stp	x19, x20, [sp, #16]
   821f8:	f90013f5 	str	x21, [sp, #32]
   821fc:	d2a12000 	mov	x0, #0x9000000             	// #150994944
   82200:	52800921 	mov	w1, #0x49                  	// #73
   82204:	b9000001 	str	w1, [x0]
   82208:	52800a81 	mov	w1, #0x54                  	// #84
   8220c:	b9000001 	str	w1, [x0]
   82210:	52800a41 	mov	w1, #0x52                  	// #82
   82214:	b9000001 	str	w1, [x0]
   82218:	52800a01 	mov	w1, #0x50                  	// #80
   8221c:	b9000001 	str	w1, [x0]
   82220:	52800741 	mov	w1, #0x3a                  	// #58
   82224:	b9000001 	str	w1, [x0]
   82228:	d0007c00 	adrp	x0, 1004000 <page_bitmap>
   8222c:	f9402413 	ldr	x19, [x0, #72]
   82230:	f100027f 	cmp	x19, #0x0
   82234:	d2a02000 	mov	x0, #0x1000000             	// #16777216
   82238:	9a801273 	csel	x19, x19, x0, ne	// ne = any
   8223c:	d0007be0 	adrp	x0, 1000000 <GLOBAL_UART>
   82240:	9126a000 	add	x0, x0, #0x9a8
   82244:	9400003b 	bl	82330 <uart_puts>
   82248:	aa1303e0 	mov	x0, x19
   8224c:	9400007d 	bl	82440 <uart_hex64>
   82250:	d0007bf4 	adrp	x20, 1000000 <GLOBAL_UART>
   82254:	9122a294 	add	x20, x20, #0x8a8
   82258:	aa1403e0 	mov	x0, x20
   8225c:	94000035 	bl	82330 <uart_puts>
   82260:	d518c013 	msr	vbar_el1, x19
   82264:	d5033fdf 	isb
   82268:	d538c015 	mrs	x21, vbar_el1
   8226c:	d0007be0 	adrp	x0, 1000000 <GLOBAL_UART>
   82270:	91274000 	add	x0, x0, #0x9d0
   82274:	9400002f 	bl	82330 <uart_puts>
   82278:	aa1503e0 	mov	x0, x21
   8227c:	94000071 	bl	82440 <uart_hex64>
   82280:	aa1403e0 	mov	x0, x20
   82284:	9400002b 	bl	82330 <uart_puts>
   82288:	d2a02000 	mov	x0, #0x1000000             	// #16777216
   8228c:	eb0002bf 	cmp	x21, x0
   82290:	54000360 	b.eq	822fc <init_traps+0x110>  // b.none
   82294:	d0007be0 	adrp	x0, 1000000 <GLOBAL_UART>
   82298:	91280000 	add	x0, x0, #0xa00
   8229c:	94000025 	bl	82330 <uart_puts>
   822a0:	aa1503e0 	mov	x0, x21
   822a4:	94000067 	bl	82440 <uart_hex64>
   822a8:	d0007bf4 	adrp	x20, 1000000 <GLOBAL_UART>
   822ac:	9122a294 	add	x20, x20, #0x8a8
   822b0:	aa1403e0 	mov	x0, x20
   822b4:	9400001f 	bl	82330 <uart_puts>
   822b8:	d0007be0 	adrp	x0, 1000000 <GLOBAL_UART>
   822bc:	91290000 	add	x0, x0, #0xa40
   822c0:	9400001c 	bl	82330 <uart_puts>
   822c4:	d518c013 	msr	vbar_el1, x19
   822c8:	d5033fdf 	isb
   822cc:	d538c013 	mrs	x19, vbar_el1
   822d0:	d0007be0 	adrp	x0, 1000000 <GLOBAL_UART>
   822d4:	9129e000 	add	x0, x0, #0xa78
   822d8:	94000016 	bl	82330 <uart_puts>
   822dc:	aa1303e0 	mov	x0, x19
   822e0:	94000058 	bl	82440 <uart_hex64>
   822e4:	aa1403e0 	mov	x0, x20
   822e8:	94000012 	bl	82330 <uart_puts>
   822ec:	a94153f3 	ldp	x19, x20, [sp, #16]
   822f0:	f94013f5 	ldr	x21, [sp, #32]
   822f4:	a8c37bfd 	ldp	x29, x30, [sp], #48
   822f8:	d65f03c0 	ret
   822fc:	d0007be0 	adrp	x0, 1000000 <GLOBAL_UART>
   82300:	912a6000 	add	x0, x0, #0xa98
   82304:	9400000b 	bl	82330 <uart_puts>
   82308:	17fffff9 	b	822ec <init_traps+0x100>

000000000008230c <uart_init>:
   8230c:	d65f03c0 	ret

0000000000082310 <uart_putc>:
   82310:	12001c00 	and	w0, w0, #0xff
   82314:	d2800302 	mov	x2, #0x18                  	// #24
   82318:	f2a12002 	movk	x2, #0x900, lsl #16
   8231c:	b9400041 	ldr	w1, [x2]
   82320:	372fffe1 	tbnz	w1, #5, 8231c <uart_putc+0xc>
   82324:	d2a12001 	mov	x1, #0x9000000             	// #150994944
   82328:	b9000020 	str	w0, [x1]
   8232c:	d65f03c0 	ret

0000000000082330 <uart_puts>:
   82330:	b40002a0 	cbz	x0, 82384 <uart_puts+0x54>
   82334:	a9be7bfd 	stp	x29, x30, [sp, #-32]!
   82338:	910003fd 	mov	x29, sp
   8233c:	a90153f3 	stp	x19, x20, [sp, #16]
   82340:	aa0003f3 	mov	x19, x0
   82344:	39400000 	ldrb	w0, [x0]
   82348:	34000180 	cbz	w0, 82378 <uart_puts+0x48>
   8234c:	528001b4 	mov	w20, #0xd                   	// #13
   82350:	14000005 	b	82364 <uart_puts+0x34>
   82354:	38401660 	ldrb	w0, [x19], #1
   82358:	97ffffee 	bl	82310 <uart_putc>
   8235c:	39400260 	ldrb	w0, [x19]
   82360:	340000c0 	cbz	w0, 82378 <uart_puts+0x48>
   82364:	7100281f 	cmp	w0, #0xa
   82368:	54ffff61 	b.ne	82354 <uart_puts+0x24>  // b.any
   8236c:	2a1403e0 	mov	w0, w20
   82370:	97ffffe8 	bl	82310 <uart_putc>
   82374:	17fffff8 	b	82354 <uart_puts+0x24>
   82378:	a94153f3 	ldp	x19, x20, [sp, #16]
   8237c:	a8c27bfd 	ldp	x29, x30, [sp], #32
   82380:	d65f03c0 	ret
   82384:	d65f03c0 	ret

0000000000082388 <uart_puthex>:
   82388:	a9be7bfd 	stp	x29, x30, [sp, #-32]!
   8238c:	910003fd 	mov	x29, sp
   82390:	a90153f3 	stp	x19, x20, [sp, #16]
   82394:	aa0003f4 	mov	x20, x0
   82398:	52800600 	mov	w0, #0x30                  	// #48
   8239c:	97ffffdd 	bl	82310 <uart_putc>
   823a0:	52800f00 	mov	w0, #0x78                  	// #120
   823a4:	97ffffdb 	bl	82310 <uart_putc>
   823a8:	52800393 	mov	w19, #0x1c                  	// #28
   823ac:	14000006 	b	823c4 <uart_puthex+0x3c>
   823b0:	11015c00 	add	w0, w0, #0x57
   823b4:	97ffffd7 	bl	82310 <uart_putc>
   823b8:	51001273 	sub	w19, w19, #0x4
   823bc:	3100127f 	cmn	w19, #0x4
   823c0:	54000100 	b.eq	823e0 <uart_puthex+0x58>  // b.none
   823c4:	9ad32680 	lsr	x0, x20, x19
   823c8:	12000c00 	and	w0, w0, #0xf
   823cc:	7100241f 	cmp	w0, #0x9
   823d0:	54ffff08 	b.hi	823b0 <uart_puthex+0x28>  // b.pmore
   823d4:	1100c000 	add	w0, w0, #0x30
   823d8:	97ffffce 	bl	82310 <uart_putc>
   823dc:	17fffff7 	b	823b8 <uart_puthex+0x30>
   823e0:	a94153f3 	ldp	x19, x20, [sp, #16]
   823e4:	a8c27bfd 	ldp	x29, x30, [sp], #32
   823e8:	d65f03c0 	ret

00000000000823ec <uart_print_hex>:
   823ec:	a9be7bfd 	stp	x29, x30, [sp, #-32]!
   823f0:	910003fd 	mov	x29, sp
   823f4:	a90153f3 	stp	x19, x20, [sp, #16]
   823f8:	aa0003f4 	mov	x20, x0
   823fc:	52800793 	mov	w19, #0x3c                  	// #60
   82400:	14000006 	b	82418 <uart_print_hex+0x2c>
   82404:	1100dc00 	add	w0, w0, #0x37
   82408:	97ffffc2 	bl	82310 <uart_putc>
   8240c:	51001273 	sub	w19, w19, #0x4
   82410:	3100127f 	cmn	w19, #0x4
   82414:	54000100 	b.eq	82434 <uart_print_hex+0x48>  // b.none
   82418:	9ad32680 	lsr	x0, x20, x19
   8241c:	12000c00 	and	w0, w0, #0xf
   82420:	7100241f 	cmp	w0, #0x9
   82424:	54ffff08 	b.hi	82404 <uart_print_hex+0x18>  // b.pmore
   82428:	1100c000 	add	w0, w0, #0x30
   8242c:	97ffffb9 	bl	82310 <uart_putc>
   82430:	17fffff7 	b	8240c <uart_print_hex+0x20>
   82434:	a94153f3 	ldp	x19, x20, [sp, #16]
   82438:	a8c27bfd 	ldp	x29, x30, [sp], #32
   8243c:	d65f03c0 	ret

0000000000082440 <uart_hex64>:
   82440:	a9be7bfd 	stp	x29, x30, [sp, #-32]!
   82444:	910003fd 	mov	x29, sp
   82448:	f9000bf3 	str	x19, [sp, #16]
   8244c:	aa0003f3 	mov	x19, x0
   82450:	52800600 	mov	w0, #0x30                  	// #48
   82454:	97ffffaf 	bl	82310 <uart_putc>
   82458:	52800f00 	mov	w0, #0x78                  	// #120
   8245c:	97ffffad 	bl	82310 <uart_putc>
   82460:	aa1303e0 	mov	x0, x19
   82464:	97ffffe2 	bl	823ec <uart_print_hex>
   82468:	f9400bf3 	ldr	x19, [sp, #16]
   8246c:	a8c27bfd 	ldp	x29, x30, [sp], #32
   82470:	d65f03c0 	ret

0000000000082474 <uart_putx>:
   82474:	a9be7bfd 	stp	x29, x30, [sp, #-32]!
   82478:	910003fd 	mov	x29, sp
   8247c:	a90153f3 	stp	x19, x20, [sp, #16]
   82480:	aa0003f4 	mov	x20, x0
   82484:	52800393 	mov	w19, #0x1c                  	// #28
   82488:	14000006 	b	824a0 <uart_putx+0x2c>
   8248c:	1100dc00 	add	w0, w0, #0x37
   82490:	97ffffa0 	bl	82310 <uart_putc>
   82494:	51001273 	sub	w19, w19, #0x4
   82498:	3100127f 	cmn	w19, #0x4
   8249c:	54000100 	b.eq	824bc <uart_putx+0x48>  // b.none
   824a0:	9ad32680 	lsr	x0, x20, x19
   824a4:	12000c00 	and	w0, w0, #0xf
   824a8:	7100241f 	cmp	w0, #0x9
   824ac:	54ffff08 	b.hi	8248c <uart_putx+0x18>  // b.pmore
   824b0:	1100c000 	add	w0, w0, #0x30
   824b4:	97ffff97 	bl	82310 <uart_putc>
   824b8:	17fffff7 	b	82494 <uart_putx+0x20>
   824bc:	a94153f3 	ldp	x19, x20, [sp, #16]
   824c0:	a8c27bfd 	ldp	x29, x30, [sp], #32
   824c4:	d65f03c0 	ret

00000000000824c8 <memset>:
   824c8:	b40000c2 	cbz	x2, 824e0 <memset+0x18>
   824cc:	8b020003 	add	x3, x0, x2
   824d0:	aa0003e2 	mov	x2, x0
   824d4:	38001441 	strb	w1, [x2], #1
   824d8:	eb02007f 	cmp	x3, x2
   824dc:	54ffffc1 	b.ne	824d4 <memset+0xc>  // b.any
   824e0:	d65f03c0 	ret

00000000000824e4 <memcpy>:
   824e4:	b40000e2 	cbz	x2, 82500 <memcpy+0x1c>
   824e8:	d2800003 	mov	x3, #0x0                   	// #0
   824ec:	38636824 	ldrb	w4, [x1, x3]
   824f0:	38236804 	strb	w4, [x0, x3]
   824f4:	91000463 	add	x3, x3, #0x1
   824f8:	eb02007f 	cmp	x3, x2
   824fc:	54ffff81 	b.ne	824ec <memcpy+0x8>  // b.any
   82500:	d65f03c0 	ret

0000000000082504 <memcmp>:
   82504:	b40001a2 	cbz	x2, 82538 <memcmp+0x34>
   82508:	d2800003 	mov	x3, #0x0                   	// #0
   8250c:	38636804 	ldrb	w4, [x0, x3]
   82510:	38636825 	ldrb	w5, [x1, x3]
   82514:	6b05009f 	cmp	w4, w5
   82518:	540000c1 	b.ne	82530 <memcmp+0x2c>  // b.any
   8251c:	91000463 	add	x3, x3, #0x1
   82520:	eb03005f 	cmp	x2, x3
   82524:	54ffff41 	b.ne	8250c <memcmp+0x8>  // b.any
   82528:	52800000 	mov	w0, #0x0                   	// #0
   8252c:	14000002 	b	82534 <memcmp+0x30>
   82530:	4b050080 	sub	w0, w4, w5
   82534:	d65f03c0 	ret
   82538:	52800000 	mov	w0, #0x0                   	// #0
   8253c:	17fffffe 	b	82534 <memcmp+0x30>

0000000000082540 <is_page_used>:
   82540:	b26287e1 	mov	x1, #0xffffffffc0000000    	// #-1073741824
   82544:	8b010000 	add	x0, x0, x1
   82548:	b2406be1 	mov	x1, #0x7ffffff             	// #134217727
   8254c:	eb01001f 	cmp	x0, x1
   82550:	54000128 	b.hi	82574 <is_page_used+0x34>  // b.pmore
   82554:	d34ffc01 	lsr	x1, x0, #15
   82558:	d0007c02 	adrp	x2, 1004000 <page_bitmap>
   8255c:	f9400042 	ldr	x2, [x2]
   82560:	38616841 	ldrb	w1, [x2, x1]
   82564:	530c3800 	ubfx	w0, w0, #12, #3
   82568:	1ac02820 	asr	w0, w1, w0
   8256c:	12000000 	and	w0, w0, #0x1
   82570:	d65f03c0 	ret
   82574:	52800020 	mov	w0, #0x1                   	// #1
   82578:	17fffffe 	b	82570 <is_page_used+0x30>

000000000008257c <pmm_strcmp>:
   8257c:	39400002 	ldrb	w2, [x0]
   82580:	340000e2 	cbz	w2, 8259c <pmm_strcmp+0x20>
   82584:	39400023 	ldrb	w3, [x1]
   82588:	6b02007f 	cmp	w3, w2
   8258c:	54000081 	b.ne	8259c <pmm_strcmp+0x20>  // b.any
   82590:	91000421 	add	x1, x1, #0x1
   82594:	38401c02 	ldrb	w2, [x0, #1]!
   82598:	35ffff62 	cbnz	w2, 82584 <pmm_strcmp+0x8>
   8259c:	39400020 	ldrb	w0, [x1]
   825a0:	4b000040 	sub	w0, w2, w0
   825a4:	d65f03c0 	ret

00000000000825a8 <set_page_bit>:
   825a8:	a9bc7bfd 	stp	x29, x30, [sp, #-64]!
   825ac:	910003fd 	mov	x29, sp
   825b0:	a90153f3 	stp	x19, x20, [sp, #16]
   825b4:	aa0003f4 	mov	x20, x0
   825b8:	b26287e2 	mov	x2, #0xffffffffc0000000    	// #-1073741824
   825bc:	8b020002 	add	x2, x0, x2
   825c0:	b2406be0 	mov	x0, #0x7ffffff             	// #134217727
   825c4:	eb00005f 	cmp	x2, x0
   825c8:	54000348 	b.hi	82630 <set_page_bit+0x88>  // b.pmore
   825cc:	a9025bf5 	stp	x21, x22, [sp, #32]
   825d0:	f9001bf7 	str	x23, [sp, #48]
   825d4:	2a0103f6 	mov	w22, w1
   825d8:	d34cfc55 	lsr	x21, x2, #12
   825dc:	d34ffc53 	lsr	x19, x2, #15
   825e0:	12000ab7 	and	w23, w21, #0x7
   825e4:	d0007c00 	adrp	x0, 1004000 <page_bitmap>
   825e8:	f9400400 	ldr	x0, [x0, #8]
   825ec:	91001c00 	add	x0, x0, #0x7
   825f0:	eb400e7f 	cmp	x19, x0, lsr #3
   825f4:	54000242 	b.cs	8263c <set_page_bit+0x94>  // b.hs, b.nlast
   825f8:	d10022a1 	sub	x1, x21, #0x8
   825fc:	b27c37e0 	mov	x0, #0x3fff0               	// #262128
   82600:	eb00003f 	cmp	x1, x0
   82604:	540003e8 	b.hi	82680 <set_page_bit+0xd8>  // b.pmore
   82608:	34000676 	cbz	w22, 826d4 <set_page_bit+0x12c>
   8260c:	d0007c00 	adrp	x0, 1004000 <page_bitmap>
   82610:	f9400001 	ldr	x1, [x0]
   82614:	52800020 	mov	w0, #0x1                   	// #1
   82618:	1ad72000 	lsl	w0, w0, w23
   8261c:	38736822 	ldrb	w2, [x1, x19]
   82620:	2a020000 	orr	w0, w0, w2
   82624:	38336820 	strb	w0, [x1, x19]
   82628:	a9425bf5 	ldp	x21, x22, [sp, #32]
   8262c:	f9401bf7 	ldr	x23, [sp, #48]
   82630:	a94153f3 	ldp	x19, x20, [sp, #16]
   82634:	a8c47bfd 	ldp	x29, x30, [sp], #64
   82638:	d65f03c0 	ret
   8263c:	52800b00 	mov	w0, #0x58                  	// #88
   82640:	97ffff34 	bl	82310 <uart_putc>
   82644:	aa1303e1 	mov	x1, x19
   82648:	d0007be0 	adrp	x0, 1000000 <GLOBAL_UART>
   8264c:	9132c000 	add	x0, x0, #0xcb0
   82650:	97fffaa3 	bl	810dc <debug_hex64>
   82654:	aa1403e1 	mov	x1, x20
   82658:	d0007be0 	adrp	x0, 1000000 <GLOBAL_UART>
   8265c:	91338000 	add	x0, x0, #0xce0
   82660:	97fffa9f 	bl	810dc <debug_hex64>
   82664:	aa1503e1 	mov	x1, x21
   82668:	d0007be0 	adrp	x0, 1000000 <GLOBAL_UART>
   8266c:	91332000 	add	x0, x0, #0xcc8
   82670:	97fffa9b 	bl	810dc <debug_hex64>
   82674:	a9425bf5 	ldp	x21, x22, [sp, #32]
   82678:	f9401bf7 	ldr	x23, [sp, #48]
   8267c:	17ffffed 	b	82630 <set_page_bit+0x88>
   82680:	aa1403e1 	mov	x1, x20
   82684:	d0007be0 	adrp	x0, 1000000 <GLOBAL_UART>
   82688:	91336000 	add	x0, x0, #0xcd8
   8268c:	97fffa94 	bl	810dc <debug_hex64>
   82690:	aa1503e1 	mov	x1, x21
   82694:	d0007be0 	adrp	x0, 1000000 <GLOBAL_UART>
   82698:	9133a000 	add	x0, x0, #0xce8
   8269c:	97fffa90 	bl	810dc <debug_hex64>
   826a0:	aa1303e1 	mov	x1, x19
   826a4:	d0007be0 	adrp	x0, 1000000 <GLOBAL_UART>
   826a8:	9133e000 	add	x0, x0, #0xcf8
   826ac:	97fffa8c 	bl	810dc <debug_hex64>
   826b0:	92400ae1 	and	x1, x23, #0x7
   826b4:	d0007be0 	adrp	x0, 1000000 <GLOBAL_UART>
   826b8:	91342000 	add	x0, x0, #0xd08
   826bc:	97fffa88 	bl	810dc <debug_hex64>
   826c0:	93407ec1 	sxtw	x1, w22
   826c4:	d0007be0 	adrp	x0, 1000000 <GLOBAL_UART>
   826c8:	91346000 	add	x0, x0, #0xd18
   826cc:	97fffa84 	bl	810dc <debug_hex64>
   826d0:	17ffffce 	b	82608 <set_page_bit+0x60>
   826d4:	d0007c00 	adrp	x0, 1004000 <page_bitmap>
   826d8:	f9400001 	ldr	x1, [x0]
   826dc:	52800020 	mov	w0, #0x1                   	// #1
   826e0:	1ad72000 	lsl	w0, w0, w23
   826e4:	38736822 	ldrb	w2, [x1, x19]
   826e8:	0a200040 	bic	w0, w2, w0
   826ec:	38336820 	strb	w0, [x1, x19]
   826f0:	a9425bf5 	ldp	x21, x22, [sp, #32]
   826f4:	f9401bf7 	ldr	x23, [sp, #48]
   826f8:	17ffffce 	b	82630 <set_page_bit+0x88>

00000000000826fc <get_timestamp>:
   826fc:	d0007c01 	adrp	x1, 1004000 <page_bitmap>
   82700:	91000021 	add	x1, x1, #0x0
   82704:	f9400820 	ldr	x0, [x1, #16]
   82708:	91000402 	add	x2, x0, #0x1
   8270c:	f9000822 	str	x2, [x1, #16]
   82710:	d65f03c0 	ret

0000000000082714 <test_return>:
   82714:	d2a12009 	mov	x9, #0x9000000             	// #150994944
   82718:	5280082a 	mov	w10, #0x41                  	// #65
   8271c:	b900012a 	str	w10, [x9]
   82720:	d65f03c0 	ret
   82724:	d65f03c0 	ret

0000000000082728 <reserve_pages_for_page_tables>:
   82728:	a9bc7bfd 	stp	x29, x30, [sp, #-64]!
   8272c:	910003fd 	mov	x29, sp
   82730:	a90153f3 	stp	x19, x20, [sp, #16]
   82734:	a9025bf5 	stp	x21, x22, [sp, #32]
   82738:	aa0003f5 	mov	x21, x0
   8273c:	f0007c13 	adrp	x19, 1005000 <__kernel_end>
   82740:	91000273 	add	x19, x19, #0x0
   82744:	f100001f 	cmp	x0, #0x0
   82748:	12b70000 	mov	w0, #0x47ffffff            	// #1207959551
   8274c:	fa401262 	ccmp	x19, x0, #0x2, ne	// ne = any
   82750:	54000268 	b.hi	8279c <reserve_pages_for_page_tables+0x74>  // b.pmore
   82754:	f9001bf7 	str	x23, [sp, #48]
   82758:	d2800014 	mov	x20, #0x0                   	// #0
   8275c:	52800037 	mov	w23, #0x1                   	// #1
   82760:	aa0003f6 	mov	x22, x0
   82764:	14000005 	b	82778 <reserve_pages_for_page_tables+0x50>
   82768:	91400673 	add	x19, x19, #0x1, lsl #12
   8276c:	eb16027f 	cmp	x19, x22
   82770:	fa559282 	ccmp	x20, x21, #0x2, ls	// ls = plast
   82774:	54000122 	b.cs	82798 <reserve_pages_for_page_tables+0x70>  // b.hs, b.nlast
   82778:	aa1303e0 	mov	x0, x19
   8277c:	97ffff71 	bl	82540 <is_page_used>
   82780:	35ffff40 	cbnz	w0, 82768 <reserve_pages_for_page_tables+0x40>
   82784:	2a1703e1 	mov	w1, w23
   82788:	aa1303e0 	mov	x0, x19
   8278c:	97ffff87 	bl	825a8 <set_page_bit>
   82790:	91000694 	add	x20, x20, #0x1
   82794:	17fffff5 	b	82768 <reserve_pages_for_page_tables+0x40>
   82798:	f9401bf7 	ldr	x23, [sp, #48]
   8279c:	a94153f3 	ldp	x19, x20, [sp, #16]
   827a0:	a9425bf5 	ldp	x21, x22, [sp, #32]
   827a4:	a8c47bfd 	ldp	x29, x30, [sp], #64
   827a8:	d65f03c0 	ret

00000000000827ac <pmm_print_memory_map>:
   827ac:	a9b27bfd 	stp	x29, x30, [sp, #-224]!
   827b0:	910003fd 	mov	x29, sp
   827b4:	a90153f3 	stp	x19, x20, [sp, #16]
   827b8:	a9025bf5 	stp	x21, x22, [sp, #32]
   827bc:	a90363f7 	stp	x23, x24, [sp, #48]
   827c0:	a9046bf9 	stp	x25, x26, [sp, #64]
   827c4:	a90573fb 	stp	x27, x28, [sp, #80]
   827c8:	d0007be0 	adrp	x0, 1000000 <GLOBAL_UART>
   827cc:	9134a000 	add	x0, x0, #0xd28
   827d0:	97fffed8 	bl	82330 <uart_puts>
   827d4:	d0007c15 	adrp	x21, 1004000 <page_bitmap>
   827d8:	910002b3 	add	x19, x21, #0x0
   827dc:	f9400661 	ldr	x1, [x19, #8]
   827e0:	d0007be0 	adrp	x0, 1000000 <GLOBAL_UART>
   827e4:	91350000 	add	x0, x0, #0xd40
   827e8:	97fffa3d 	bl	810dc <debug_hex64>
   827ec:	f9400661 	ldr	x1, [x19, #8]
   827f0:	f9401260 	ldr	x0, [x19, #32]
   827f4:	cb000021 	sub	x1, x1, x0
   827f8:	d0007be0 	adrp	x0, 1000000 <GLOBAL_UART>
   827fc:	91354000 	add	x0, x0, #0xd50
   82800:	97fffa37 	bl	810dc <debug_hex64>
   82804:	f9401261 	ldr	x1, [x19, #32]
   82808:	d0007be0 	adrp	x0, 1000000 <GLOBAL_UART>
   8280c:	91358000 	add	x0, x0, #0xd60
   82810:	97fffa33 	bl	810dc <debug_hex64>
   82814:	f9401661 	ldr	x1, [x19, #40]
   82818:	d0007be0 	adrp	x0, 1000000 <GLOBAL_UART>
   8281c:	9135c000 	add	x0, x0, #0xd70
   82820:	97fffa2f 	bl	810dc <debug_hex64>
   82824:	d0007be0 	adrp	x0, 1000000 <GLOBAL_UART>
   82828:	91360000 	add	x0, x0, #0xd80
   8282c:	97fffec1 	bl	82330 <uart_puts>
   82830:	f94002a1 	ldr	x1, [x21]
   82834:	d0007be0 	adrp	x0, 1000000 <GLOBAL_UART>
   82838:	91368000 	add	x0, x0, #0xda0
   8283c:	97fffa28 	bl	810dc <debug_hex64>
   82840:	d0007be0 	adrp	x0, 1000000 <GLOBAL_UART>
   82844:	9136c000 	add	x0, x0, #0xdb0
   82848:	97fffeba 	bl	82330 <uart_puts>
   8284c:	9101e3f4 	add	x20, sp, #0x78
   82850:	4f00041f 	movi	v31.4s, #0x0
   82854:	ad007e9f 	stp	q31, q31, [x20]
   82858:	ad017e9f 	stp	q31, q31, [x20, #32]
   8285c:	ad027e9f 	stp	q31, q31, [x20, #64]
   82860:	f805d29f 	stur	xzr, [x20, #93]
   82864:	f940067c 	ldr	x28, [x19, #8]
   82868:	f94002b6 	ldr	x22, [x21]
   8286c:	914006c0 	add	x0, x22, #0x1, lsl #12
   82870:	f90037e0 	str	x0, [sp, #104]
   82874:	910373fb 	add	x27, sp, #0xdc
   82878:	d2800015 	mov	x21, #0x0                   	// #0
   8287c:	d29eb87a 	mov	x26, #0xf5c3                	// #62915
   82880:	f2ab851a 	movk	x26, #0x5c28, lsl #16
   82884:	f2d851fa 	movk	x26, #0xc28f, lsl #32
   82888:	f2e51eba 	movk	x26, #0x28f5, lsl #48
   8288c:	528008d9 	mov	w25, #0x46                  	// #70
   82890:	52800838 	mov	w24, #0x41                  	// #65
   82894:	b2404ff7 	mov	x23, #0xfffff               	// #1048575
   82898:	14000005 	b	828ac <pmm_print_memory_map+0x100>
   8289c:	8b1c02b5 	add	x21, x21, x28
   828a0:	91000694 	add	x20, x20, #0x1
   828a4:	eb1b029f 	cmp	x20, x27
   828a8:	54000320 	b.eq	8290c <pmm_print_memory_map+0x160>  // b.none
   828ac:	d342feb3 	lsr	x19, x21, #2
   828b0:	9bda7e73 	umulh	x19, x19, x26
   828b4:	d342fe73 	lsr	x19, x19, #2
   828b8:	91410273 	add	x19, x19, #0x40, lsl #12
   828bc:	d374ce73 	lsl	x19, x19, #12
   828c0:	aa1303e0 	mov	x0, x19
   828c4:	97ffff1f 	bl	82540 <is_page_used>
   828c8:	7100001f 	cmp	w0, #0x0
   828cc:	1a980320 	csel	w0, w25, w24, eq	// eq = none
   828d0:	aa1403e1 	mov	x1, x20
   828d4:	39000280 	strb	w0, [x20]
   828d8:	52800960 	mov	w0, #0x4b                  	// #75
   828dc:	eb17027f 	cmp	x19, x23
   828e0:	54000049 	b.ls	828e8 <pmm_print_memory_map+0x13c>  // b.plast
   828e4:	39400280 	ldrb	w0, [x20]
   828e8:	39000020 	strb	w0, [x1]
   828ec:	eb1302df 	cmp	x22, x19
   828f0:	54fffd68 	b.hi	8289c <pmm_print_memory_map+0xf0>  // b.pmore
   828f4:	f94037e0 	ldr	x0, [sp, #104]
   828f8:	eb13001f 	cmp	x0, x19
   828fc:	54fffd09 	b.ls	8289c <pmm_print_memory_map+0xf0>  // b.plast
   82900:	52800840 	mov	w0, #0x42                  	// #66
   82904:	39000020 	strb	w0, [x1]
   82908:	17ffffe5 	b	8289c <pmm_print_memory_map+0xf0>
   8290c:	390373ff 	strb	wzr, [sp, #220]
   82910:	9101e3e0 	add	x0, sp, #0x78
   82914:	97fffe87 	bl	82330 <uart_puts>
   82918:	d0007be0 	adrp	x0, 1000000 <GLOBAL_UART>
   8291c:	91378000 	add	x0, x0, #0xde0
   82920:	97fffe84 	bl	82330 <uart_puts>
   82924:	a94153f3 	ldp	x19, x20, [sp, #16]
   82928:	a9425bf5 	ldp	x21, x22, [sp, #32]
   8292c:	a94363f7 	ldp	x23, x24, [sp, #48]
   82930:	a9446bf9 	ldp	x25, x26, [sp, #64]
   82934:	a94573fb 	ldp	x27, x28, [sp, #80]
   82938:	a8ce7bfd 	ldp	x29, x30, [sp], #224
   8293c:	d65f03c0 	ret

0000000000082940 <record_allocation>:
   82940:	a9bf7bfd 	stp	x29, x30, [sp, #-16]!
   82944:	910003fd 	mov	x29, sp
   82948:	97ffff6d 	bl	826fc <get_timestamp>
   8294c:	d0007c02 	adrp	x2, 1004000 <page_bitmap>
   82950:	91000042 	add	x2, x2, #0x0
   82954:	b9403840 	ldr	w0, [x2, #56]
   82958:	11000400 	add	w0, w0, #0x1
   8295c:	6b0003e1 	negs	w1, w0
   82960:	12001000 	and	w0, w0, #0x1f
   82964:	12001021 	and	w1, w1, #0x1f
   82968:	5a814400 	csneg	w0, w0, w1, mi	// mi = first
   8296c:	b9003840 	str	w0, [x2, #56]
   82970:	a8c17bfd 	ldp	x29, x30, [sp], #16
   82974:	d65f03c0 	ret

0000000000082978 <alloc_page>:
   82978:	a9bd7bfd 	stp	x29, x30, [sp, #-48]!
   8297c:	910003fd 	mov	x29, sp
   82980:	a90153f3 	stp	x19, x20, [sp, #16]
   82984:	f90013f5 	str	x21, [sp, #32]
   82988:	d0007c00 	adrp	x0, 1004000 <page_bitmap>
   8298c:	f9400415 	ldr	x21, [x0, #8]
   82990:	b4000155 	cbz	x21, 829b8 <alloc_page+0x40>
   82994:	d2a80013 	mov	x19, #0x40000000            	// #1073741824
   82998:	d2800014 	mov	x20, #0x0                   	// #0
   8299c:	aa1303e0 	mov	x0, x19
   829a0:	97fffee8 	bl	82540 <is_page_used>
   829a4:	34000260 	cbz	w0, 829f0 <alloc_page+0x78>
   829a8:	91000694 	add	x20, x20, #0x1
   829ac:	91400673 	add	x19, x19, #0x1, lsl #12
   829b0:	eb15029f 	cmp	x20, x21
   829b4:	54ffff41 	b.ne	8299c <alloc_page+0x24>  // b.any
   829b8:	d0007be0 	adrp	x0, 1000000 <GLOBAL_UART>
   829bc:	91388000 	add	x0, x0, #0xe20
   829c0:	97fffe5c 	bl	82330 <uart_puts>
   829c4:	d0007c00 	adrp	x0, 1004000 <page_bitmap>
   829c8:	91000000 	add	x0, x0, #0x0
   829cc:	f9401801 	ldr	x1, [x0, #48]
   829d0:	91000421 	add	x1, x1, #0x1
   829d4:	f9001801 	str	x1, [x0, #48]
   829d8:	d2800014 	mov	x20, #0x0                   	// #0
   829dc:	aa1403e0 	mov	x0, x20
   829e0:	a94153f3 	ldp	x19, x20, [sp, #16]
   829e4:	f94013f5 	ldr	x21, [sp, #32]
   829e8:	a8c37bfd 	ldp	x29, x30, [sp], #48
   829ec:	d65f03c0 	ret
   829f0:	52800021 	mov	w1, #0x1                   	// #1
   829f4:	aa1303e0 	mov	x0, x19
   829f8:	97fffeec 	bl	825a8 <set_page_bit>
   829fc:	aa1303f4 	mov	x20, x19
   82a00:	d2820002 	mov	x2, #0x1000                	// #4096
   82a04:	52800001 	mov	w1, #0x0                   	// #0
   82a08:	aa1303e0 	mov	x0, x19
   82a0c:	97fffeaf 	bl	824c8 <memset>
   82a10:	d0007c00 	adrp	x0, 1004000 <page_bitmap>
   82a14:	91000000 	add	x0, x0, #0x0
   82a18:	a9418402 	ldp	x2, x1, [x0, #24]
   82a1c:	91000442 	add	x2, x2, #0x1
   82a20:	91000421 	add	x1, x1, #0x1
   82a24:	a9018402 	stp	x2, x1, [x0, #24]
   82a28:	f9401400 	ldr	x0, [x0, #40]
   82a2c:	eb00003f 	cmp	x1, x0
   82a30:	54000069 	b.ls	82a3c <alloc_page+0xc4>  // b.plast
   82a34:	d0007c00 	adrp	x0, 1004000 <page_bitmap>
   82a38:	f9001401 	str	x1, [x0, #40]
   82a3c:	d2800021 	mov	x1, #0x1                   	// #1
   82a40:	aa1303e0 	mov	x0, x19
   82a44:	97ffffbf 	bl	82940 <record_allocation>
   82a48:	aa1303e1 	mov	x1, x19
   82a4c:	d0007be0 	adrp	x0, 1000000 <GLOBAL_UART>
   82a50:	9137e000 	add	x0, x0, #0xdf8
   82a54:	97fff9a2 	bl	810dc <debug_hex64>
   82a58:	d0007c00 	adrp	x0, 1004000 <page_bitmap>
   82a5c:	f9400c01 	ldr	x1, [x0, #24]
   82a60:	d0007be0 	adrp	x0, 1000000 <GLOBAL_UART>
   82a64:	91384000 	add	x0, x0, #0xe10
   82a68:	97fff99d 	bl	810dc <debug_hex64>
   82a6c:	17ffffdc 	b	829dc <alloc_page+0x64>

0000000000082a70 <free_page>:
   82a70:	b40005a0 	cbz	x0, 82b24 <free_page+0xb4>
   82a74:	a9be7bfd 	stp	x29, x30, [sp, #-32]!
   82a78:	910003fd 	mov	x29, sp
   82a7c:	f9000bf3 	str	x19, [sp, #16]
   82a80:	aa0003f3 	mov	x19, x0
   82a84:	92402c00 	and	x0, x0, #0xfff
   82a88:	b5000360 	cbnz	x0, 82af4 <free_page+0x84>
   82a8c:	b26287e0 	mov	x0, #0xffffffffc0000000    	// #-1073741824
   82a90:	8b000260 	add	x0, x19, x0
   82a94:	b2406be1 	mov	x1, #0x7ffffff             	// #134217727
   82a98:	eb01001f 	cmp	x0, x1
   82a9c:	54000348 	b.hi	82b04 <free_page+0x94>  // b.pmore
   82aa0:	aa1303e0 	mov	x0, x19
   82aa4:	97fffea7 	bl	82540 <is_page_used>
   82aa8:	34000360 	cbz	w0, 82b14 <free_page+0xa4>
   82aac:	52800001 	mov	w1, #0x0                   	// #0
   82ab0:	aa1303e0 	mov	x0, x19
   82ab4:	97fffebd 	bl	825a8 <set_page_bit>
   82ab8:	d0007c00 	adrp	x0, 1004000 <page_bitmap>
   82abc:	91000000 	add	x0, x0, #0x0
   82ac0:	f9401001 	ldr	x1, [x0, #32]
   82ac4:	d1000421 	sub	x1, x1, #0x1
   82ac8:	f9001001 	str	x1, [x0, #32]
   82acc:	d2800001 	mov	x1, #0x0                   	// #0
   82ad0:	aa1303e0 	mov	x0, x19
   82ad4:	97ffff9b 	bl	82940 <record_allocation>
   82ad8:	aa1303e1 	mov	x1, x19
   82adc:	d0007be0 	adrp	x0, 1000000 <GLOBAL_UART>
   82ae0:	913b0000 	add	x0, x0, #0xec0
   82ae4:	97fff97e 	bl	810dc <debug_hex64>
   82ae8:	f9400bf3 	ldr	x19, [sp, #16]
   82aec:	a8c27bfd 	ldp	x29, x30, [sp], #32
   82af0:	d65f03c0 	ret
   82af4:	d0007be0 	adrp	x0, 1000000 <GLOBAL_UART>
   82af8:	91390000 	add	x0, x0, #0xe40
   82afc:	97fffe0d 	bl	82330 <uart_puts>
   82b00:	17fffffa 	b	82ae8 <free_page+0x78>
   82b04:	d0007be0 	adrp	x0, 1000000 <GLOBAL_UART>
   82b08:	9139a000 	add	x0, x0, #0xe68
   82b0c:	97fffe09 	bl	82330 <uart_puts>
   82b10:	17fffff6 	b	82ae8 <free_page+0x78>
   82b14:	d0007be0 	adrp	x0, 1000000 <GLOBAL_UART>
   82b18:	913a4000 	add	x0, x0, #0xe90
   82b1c:	97fffe05 	bl	82330 <uart_puts>
   82b20:	17fffff2 	b	82ae8 <free_page+0x78>
   82b24:	d65f03c0 	ret

0000000000082b28 <pmm_command>:
   82b28:	a9be7bfd 	stp	x29, x30, [sp, #-32]!
   82b2c:	910003fd 	mov	x29, sp
   82b30:	f9000bf3 	str	x19, [sp, #16]
   82b34:	aa0003f3 	mov	x19, x0
   82b38:	d0007be1 	adrp	x1, 1000000 <GLOBAL_UART>
   82b3c:	913b4021 	add	x1, x1, #0xed0
   82b40:	97fffe8f 	bl	8257c <pmm_strcmp>
   82b44:	350002e0 	cbnz	w0, 82ba0 <pmm_command+0x78>
   82b48:	d0007c00 	adrp	x0, 1004000 <page_bitmap>
   82b4c:	91000000 	add	x0, x0, #0x0
   82b50:	91006013 	add	x19, x0, #0x18
   82b54:	f9400c01 	ldr	x1, [x0, #24]
   82b58:	d0007be0 	adrp	x0, 1000000 <GLOBAL_UART>
   82b5c:	913b6000 	add	x0, x0, #0xed8
   82b60:	97fff95f 	bl	810dc <debug_hex64>
   82b64:	f9400661 	ldr	x1, [x19, #8]
   82b68:	d0007be0 	adrp	x0, 1000000 <GLOBAL_UART>
   82b6c:	913bc000 	add	x0, x0, #0xef0
   82b70:	97fff95b 	bl	810dc <debug_hex64>
   82b74:	f9400a61 	ldr	x1, [x19, #16]
   82b78:	d0007be0 	adrp	x0, 1000000 <GLOBAL_UART>
   82b7c:	9135c000 	add	x0, x0, #0xd70
   82b80:	97fff957 	bl	810dc <debug_hex64>
   82b84:	f9400e61 	ldr	x1, [x19, #24]
   82b88:	d0007be0 	adrp	x0, 1000000 <GLOBAL_UART>
   82b8c:	913c2000 	add	x0, x0, #0xf08
   82b90:	97fff953 	bl	810dc <debug_hex64>
   82b94:	f9400bf3 	ldr	x19, [sp, #16]
   82b98:	a8c27bfd 	ldp	x29, x30, [sp], #32
   82b9c:	d65f03c0 	ret
   82ba0:	d0007be1 	adrp	x1, 1000000 <GLOBAL_UART>
   82ba4:	913c8021 	add	x1, x1, #0xf20
   82ba8:	aa1303e0 	mov	x0, x19
   82bac:	97fffe74 	bl	8257c <pmm_strcmp>
   82bb0:	35000060 	cbnz	w0, 82bbc <pmm_command+0x94>
   82bb4:	97fffefe 	bl	827ac <pmm_print_memory_map>
   82bb8:	17fffff7 	b	82b94 <pmm_command+0x6c>
   82bbc:	d0007be1 	adrp	x1, 1000000 <GLOBAL_UART>
   82bc0:	913ca021 	add	x1, x1, #0xf28
   82bc4:	aa1303e0 	mov	x0, x19
   82bc8:	97fffe6d 	bl	8257c <pmm_strcmp>
   82bcc:	17fffff2 	b	82b94 <pmm_command+0x6c>

0000000000082bd0 <test_memory_writability>:
   82bd0:	a9be7bfd 	stp	x29, x30, [sp, #-32]!
   82bd4:	910003fd 	mov	x29, sp
   82bd8:	a90153f3 	stp	x19, x20, [sp, #16]
   82bdc:	d0007be0 	adrp	x0, 1000000 <GLOBAL_UART>
   82be0:	913d4000 	add	x0, x0, #0xf50
   82be4:	97fffdd3 	bl	82330 <uart_puts>
   82be8:	d2a80013 	mov	x19, #0x40000000            	// #1073741824
   82bec:	d297ddf4 	mov	x20, #0xbeef                	// #48879
   82bf0:	f2bbd5b4 	movk	x20, #0xdead, lsl #16
   82bf4:	f2d757d4 	movk	x20, #0xbabe, lsl #32
   82bf8:	f2f95fd4 	movk	x20, #0xcafe, lsl #48
   82bfc:	f9000274 	str	x20, [x19]
   82c00:	d2a80200 	mov	x0, #0x40100000            	// #1074790400
   82c04:	d299bde1 	mov	x1, #0xcdef                	// #52719
   82c08:	f2b13561 	movk	x1, #0x89ab, lsl #16
   82c0c:	f2c8ace1 	movk	x1, #0x4567, lsl #32
   82c10:	f2e02461 	movk	x1, #0x123, lsl #48
   82c14:	f9000001 	str	x1, [x0]
   82c18:	d2a80401 	mov	x1, #0x40200000            	// #1075838976
   82c1c:	d2864202 	mov	x2, #0x3210                	// #12816
   82c20:	f2aeca82 	movk	x2, #0x7654, lsl #16
   82c24:	f2d75302 	movk	x2, #0xba98, lsl #32
   82c28:	f2ffdb82 	movk	x2, #0xfedc, lsl #48
   82c2c:	f9000022 	str	x2, [x1]
   82c30:	d50b7a33 	dc	cvac, x19
   82c34:	d50b7a20 	dc	cvac, x0
   82c38:	d50b7a21 	dc	cvac, x1
   82c3c:	d5033b9f 	dsb	ish
   82c40:	d5033fdf 	isb
   82c44:	d0007be0 	adrp	x0, 1000000 <GLOBAL_UART>
   82c48:	913de000 	add	x0, x0, #0xf78
   82c4c:	97fffdb9 	bl	82330 <uart_puts>
   82c50:	aa1403e0 	mov	x0, x20
   82c54:	97fffdfb 	bl	82440 <uart_hex64>
   82c58:	d0007be0 	adrp	x0, 1000000 <GLOBAL_UART>
   82c5c:	913e6000 	add	x0, x0, #0xf98
   82c60:	97fffdb4 	bl	82330 <uart_puts>
   82c64:	f9400260 	ldr	x0, [x19]
   82c68:	97fffdf6 	bl	82440 <uart_hex64>
   82c6c:	f9400262 	ldr	x2, [x19]
   82c70:	d0007be1 	adrp	x1, 1000000 <GLOBAL_UART>
   82c74:	913cc021 	add	x1, x1, #0xf30
   82c78:	d0007be0 	adrp	x0, 1000000 <GLOBAL_UART>
   82c7c:	913d0000 	add	x0, x0, #0xf40
   82c80:	eb14005f 	cmp	x2, x20
   82c84:	9a811000 	csel	x0, x0, x1, ne	// ne = any
   82c88:	97fffdaa 	bl	82330 <uart_puts>
   82c8c:	d0007be0 	adrp	x0, 1000000 <GLOBAL_UART>
   82c90:	913ea000 	add	x0, x0, #0xfa8
   82c94:	97fffda7 	bl	82330 <uart_puts>
   82c98:	d299bdf3 	mov	x19, #0xcdef                	// #52719
   82c9c:	f2b13573 	movk	x19, #0x89ab, lsl #16
   82ca0:	f2c8acf3 	movk	x19, #0x4567, lsl #32
   82ca4:	f2e02473 	movk	x19, #0x123, lsl #48
   82ca8:	aa1303e0 	mov	x0, x19
   82cac:	97fffde5 	bl	82440 <uart_hex64>
   82cb0:	d0007be0 	adrp	x0, 1000000 <GLOBAL_UART>
   82cb4:	913e6000 	add	x0, x0, #0xf98
   82cb8:	97fffd9e 	bl	82330 <uart_puts>
   82cbc:	d2a80214 	mov	x20, #0x40100000            	// #1074790400
   82cc0:	f9400280 	ldr	x0, [x20]
   82cc4:	97fffddf 	bl	82440 <uart_hex64>
   82cc8:	f9400282 	ldr	x2, [x20]
   82ccc:	d0007be1 	adrp	x1, 1000000 <GLOBAL_UART>
   82cd0:	913cc021 	add	x1, x1, #0xf30
   82cd4:	d0007be0 	adrp	x0, 1000000 <GLOBAL_UART>
   82cd8:	913d0000 	add	x0, x0, #0xf40
   82cdc:	eb13005f 	cmp	x2, x19
   82ce0:	9a811000 	csel	x0, x0, x1, ne	// ne = any
   82ce4:	97fffd93 	bl	82330 <uart_puts>
   82ce8:	d0007be0 	adrp	x0, 1000000 <GLOBAL_UART>
   82cec:	913f2000 	add	x0, x0, #0xfc8
   82cf0:	97fffd90 	bl	82330 <uart_puts>
   82cf4:	d2864213 	mov	x19, #0x3210                	// #12816
   82cf8:	f2aeca93 	movk	x19, #0x7654, lsl #16
   82cfc:	f2d75313 	movk	x19, #0xba98, lsl #32
   82d00:	f2ffdb93 	movk	x19, #0xfedc, lsl #48
   82d04:	aa1303e0 	mov	x0, x19
   82d08:	97fffdce 	bl	82440 <uart_hex64>
   82d0c:	d0007be0 	adrp	x0, 1000000 <GLOBAL_UART>
   82d10:	913e6000 	add	x0, x0, #0xf98
   82d14:	97fffd87 	bl	82330 <uart_puts>
   82d18:	d2a80414 	mov	x20, #0x40200000            	// #1075838976
   82d1c:	f9400280 	ldr	x0, [x20]
   82d20:	97fffdc8 	bl	82440 <uart_hex64>
   82d24:	f9400282 	ldr	x2, [x20]
   82d28:	d0007be1 	adrp	x1, 1000000 <GLOBAL_UART>
   82d2c:	913cc021 	add	x1, x1, #0xf30
   82d30:	d0007be0 	adrp	x0, 1000000 <GLOBAL_UART>
   82d34:	913d0000 	add	x0, x0, #0xf40
   82d38:	eb13005f 	cmp	x2, x19
   82d3c:	9a811000 	csel	x0, x0, x1, ne	// ne = any
   82d40:	97fffd7c 	bl	82330 <uart_puts>
   82d44:	d2a80000 	mov	x0, #0x40000000            	// #1073741824
   82d48:	f9400001 	ldr	x1, [x0]
   82d4c:	d297dde0 	mov	x0, #0xbeef                	// #48879
   82d50:	f2bbd5a0 	movk	x0, #0xdead, lsl #16
   82d54:	f2d757c0 	movk	x0, #0xbabe, lsl #32
   82d58:	f2f95fc0 	movk	x0, #0xcafe, lsl #48
   82d5c:	eb00003f 	cmp	x1, x0
   82d60:	54000121 	b.ne	82d84 <test_memory_writability+0x1b4>  // b.any
   82d64:	d2a80200 	mov	x0, #0x40100000            	// #1074790400
   82d68:	f9400001 	ldr	x1, [x0]
   82d6c:	d299bde0 	mov	x0, #0xcdef                	// #52719
   82d70:	f2b13560 	movk	x0, #0x89ab, lsl #16
   82d74:	f2c8ace0 	movk	x0, #0x4567, lsl #32
   82d78:	f2e02460 	movk	x0, #0x123, lsl #48
   82d7c:	eb00003f 	cmp	x1, x0
   82d80:	54000140 	b.eq	82da8 <test_memory_writability+0x1d8>  // b.none
   82d84:	f0007be0 	adrp	x0, 1001000 <GLOBAL_UART+0x1000>
   82d88:	91004000 	add	x0, x0, #0x10
   82d8c:	97fffd69 	bl	82330 <uart_puts>
   82d90:	f0007be0 	adrp	x0, 1001000 <GLOBAL_UART+0x1000>
   82d94:	9100e000 	add	x0, x0, #0x38
   82d98:	97fffd66 	bl	82330 <uart_puts>
   82d9c:	a94153f3 	ldp	x19, x20, [sp, #16]
   82da0:	a8c27bfd 	ldp	x29, x30, [sp], #32
   82da4:	d65f03c0 	ret
   82da8:	f9400281 	ldr	x1, [x20]
   82dac:	eb13003f 	cmp	x1, x19
   82db0:	54fffea1 	b.ne	82d84 <test_memory_writability+0x1b4>  // b.any
   82db4:	d0007be0 	adrp	x0, 1000000 <GLOBAL_UART>
   82db8:	913fa000 	add	x0, x0, #0xfe8
   82dbc:	97fffd5d 	bl	82330 <uart_puts>
   82dc0:	17fffff7 	b	82d9c <test_memory_writability+0x1cc>

0000000000082dc4 <init_pmm_impl>:
   82dc4:	a9bd7bfd 	stp	x29, x30, [sp, #-48]!
   82dc8:	910003fd 	mov	x29, sp
   82dcc:	a90153f3 	stp	x19, x20, [sp, #16]
   82dd0:	52800820 	mov	w0, #0x41                  	// #65
   82dd4:	97fffd4f 	bl	82310 <uart_putc>
   82dd8:	97ffff7e 	bl	82bd0 <test_memory_writability>
   82ddc:	f0007be0 	adrp	x0, 1001000 <GLOBAL_UART+0x1000>
   82de0:	91020000 	add	x0, x0, #0x80
   82de4:	97fffd53 	bl	82330 <uart_puts>
   82de8:	f0007c14 	adrp	x20, 1005000 <__kernel_end>
   82dec:	91000294 	add	x20, x20, #0x0
   82df0:	91400680 	add	x0, x20, #0x1, lsl #12
   82df4:	d0007c01 	adrp	x1, 1004000 <page_bitmap>
   82df8:	f9000020 	str	x0, [x1]
   82dfc:	12b70001 	mov	w1, #0x47ffffff            	// #1207959551
   82e00:	eb01001f 	cmp	x0, x1
   82e04:	54000c48 	b.hi	82f8c <init_pmm_impl+0x1c8>  // b.pmore
   82e08:	a9025bf5 	stp	x21, x22, [sp, #32]
   82e0c:	52800840 	mov	w0, #0x42                  	// #66
   82e10:	97fffd40 	bl	82310 <uart_putc>
   82e14:	d0007c13 	adrp	x19, 1004000 <page_bitmap>
   82e18:	91000275 	add	x21, x19, #0x0
   82e1c:	d2900000 	mov	x0, #0x8000                	// #32768
   82e20:	f90006a0 	str	x0, [x21, #8]
   82e24:	f9400261 	ldr	x1, [x19]
   82e28:	f0007be0 	adrp	x0, 1001000 <GLOBAL_UART+0x1000>
   82e2c:	9102c000 	add	x0, x0, #0xb0
   82e30:	97fff8ab 	bl	810dc <debug_hex64>
   82e34:	d2820001 	mov	x1, #0x1000                	// #4096
   82e38:	f0007be0 	adrp	x0, 1001000 <GLOBAL_UART+0x1000>
   82e3c:	91030000 	add	x0, x0, #0xc0
   82e40:	97fff8a7 	bl	810dc <debug_hex64>
   82e44:	aa1403e1 	mov	x1, x20
   82e48:	f0007be0 	adrp	x0, 1001000 <GLOBAL_UART+0x1000>
   82e4c:	91040000 	add	x0, x0, #0x100
   82e50:	97fff8a3 	bl	810dc <debug_hex64>
   82e54:	f94006a1 	ldr	x1, [x21, #8]
   82e58:	f0007be0 	adrp	x0, 1001000 <GLOBAL_UART+0x1000>
   82e5c:	91034000 	add	x0, x0, #0xd0
   82e60:	97fff89f 	bl	810dc <debug_hex64>
   82e64:	52800860 	mov	w0, #0x43                  	// #67
   82e68:	97fffd2a 	bl	82310 <uart_putc>
   82e6c:	f9400261 	ldr	x1, [x19]
   82e70:	d2800000 	mov	x0, #0x0                   	// #0
   82e74:	3820683f 	strb	wzr, [x1, x0]
   82e78:	91000400 	add	x0, x0, #0x1
   82e7c:	f140041f 	cmp	x0, #0x1, lsl #12
   82e80:	54ffffa1 	b.ne	82e74 <init_pmm_impl+0xb0>  // b.any
   82e84:	52800880 	mov	w0, #0x44                  	// #68
   82e88:	97fffd22 	bl	82310 <uart_putc>
   82e8c:	d0007c13 	adrp	x19, 1004000 <page_bitmap>
   82e90:	f9400275 	ldr	x21, [x19]
   82e94:	914006b5 	add	x21, x21, #0x1, lsl #12
   82e98:	913ffeb5 	add	x21, x21, #0xfff
   82e9c:	9274ceb5 	and	x21, x21, #0xfffffffffffff000
   82ea0:	d2a80001 	mov	x1, #0x40000000            	// #1073741824
   82ea4:	f0007be0 	adrp	x0, 1001000 <GLOBAL_UART+0x1000>
   82ea8:	91038000 	add	x0, x0, #0xe0
   82eac:	97fff88c 	bl	810dc <debug_hex64>
   82eb0:	aa1403e1 	mov	x1, x20
   82eb4:	f0007be0 	adrp	x0, 1001000 <GLOBAL_UART+0x1000>
   82eb8:	9103e000 	add	x0, x0, #0xf8
   82ebc:	97fff888 	bl	810dc <debug_hex64>
   82ec0:	f9400261 	ldr	x1, [x19]
   82ec4:	f0007be0 	adrp	x0, 1001000 <GLOBAL_UART+0x1000>
   82ec8:	91044000 	add	x0, x0, #0x110
   82ecc:	97fff884 	bl	810dc <debug_hex64>
   82ed0:	aa1503e1 	mov	x1, x21
   82ed4:	f0007be0 	adrp	x0, 1001000 <GLOBAL_UART+0x1000>
   82ed8:	9104a000 	add	x0, x0, #0x128
   82edc:	97fff880 	bl	810dc <debug_hex64>
   82ee0:	52800960 	mov	w0, #0x4b                  	// #75
   82ee4:	97fffd0b 	bl	82310 <uart_putc>
   82ee8:	d2800001 	mov	x1, #0x0                   	// #0
   82eec:	f0007be0 	adrp	x0, 1001000 <GLOBAL_UART+0x1000>
   82ef0:	9104e000 	add	x0, x0, #0x138
   82ef4:	97fff87a 	bl	810dc <debug_hex64>
   82ef8:	528009a0 	mov	w0, #0x4d                  	// #77
   82efc:	97fffd05 	bl	82310 <uart_putc>
   82f00:	f9400273 	ldr	x19, [x19]
   82f04:	9274ce73 	and	x19, x19, #0xfffffffffffff000
   82f08:	eb1302bf 	cmp	x21, x19
   82f0c:	54000469 	b.ls	82f98 <init_pmm_impl+0x1d4>  // b.plast
   82f10:	d2800014 	mov	x20, #0x0                   	// #0
   82f14:	52800036 	mov	w22, #0x1                   	// #1
   82f18:	2a1603e1 	mov	w1, w22
   82f1c:	aa1303e0 	mov	x0, x19
   82f20:	97fffda2 	bl	825a8 <set_page_bit>
   82f24:	91000694 	add	x20, x20, #0x1
   82f28:	91400673 	add	x19, x19, #0x1, lsl #12
   82f2c:	eb1302bf 	cmp	x21, x19
   82f30:	54ffff48 	b.hi	82f18 <init_pmm_impl+0x154>  // b.pmore
   82f34:	aa1403e1 	mov	x1, x20
   82f38:	f0007be0 	adrp	x0, 1001000 <GLOBAL_UART+0x1000>
   82f3c:	91054000 	add	x0, x0, #0x150
   82f40:	97fff867 	bl	810dc <debug_hex64>
   82f44:	52800ac0 	mov	w0, #0x56                  	// #86
   82f48:	97fffcf2 	bl	82310 <uart_putc>
   82f4c:	d2800013 	mov	x19, #0x0                   	// #0
   82f50:	d0007c15 	adrp	x21, 1004000 <page_bitmap>
   82f54:	f0007bf4 	adrp	x20, 1001000 <GLOBAL_UART+0x1000>
   82f58:	9105a294 	add	x20, x20, #0x168
   82f5c:	f94002a0 	ldr	x0, [x21]
   82f60:	38736801 	ldrb	w1, [x0, x19]
   82f64:	aa1403e0 	mov	x0, x20
   82f68:	97fff85d 	bl	810dc <debug_hex64>
   82f6c:	91000673 	add	x19, x19, #0x1
   82f70:	f100127f 	cmp	x19, #0x4
   82f74:	54ffff41 	b.ne	82f5c <init_pmm_impl+0x198>  // b.any
   82f78:	d2a80013 	mov	x19, #0x40000000            	// #1073741824
   82f7c:	d2800014 	mov	x20, #0x0                   	// #0
   82f80:	d2800015 	mov	x21, #0x0                   	// #0
   82f84:	d2a90016 	mov	x22, #0x48000000            	// #1207959552
   82f88:	1400000a 	b	82fb0 <init_pmm_impl+0x1ec>
   82f8c:	528008a0 	mov	w0, #0x45                  	// #69
   82f90:	97fffce0 	bl	82310 <uart_putc>
   82f94:	1400001c 	b	83004 <init_pmm_impl+0x240>
   82f98:	d2800014 	mov	x20, #0x0                   	// #0
   82f9c:	17ffffe6 	b	82f34 <init_pmm_impl+0x170>
   82fa0:	910006b5 	add	x21, x21, #0x1
   82fa4:	91400673 	add	x19, x19, #0x1, lsl #12
   82fa8:	eb16027f 	cmp	x19, x22
   82fac:	540000c0 	b.eq	82fc4 <init_pmm_impl+0x200>  // b.none
   82fb0:	aa1303e0 	mov	x0, x19
   82fb4:	97fffd63 	bl	82540 <is_page_used>
   82fb8:	34ffff40 	cbz	w0, 82fa0 <init_pmm_impl+0x1dc>
   82fbc:	91000694 	add	x20, x20, #0x1
   82fc0:	17fffff9 	b	82fa4 <init_pmm_impl+0x1e0>
   82fc4:	d0007c00 	adrp	x0, 1004000 <page_bitmap>
   82fc8:	f9400401 	ldr	x1, [x0, #8]
   82fcc:	f0007be0 	adrp	x0, 1001000 <GLOBAL_UART+0x1000>
   82fd0:	91034000 	add	x0, x0, #0xd0
   82fd4:	97fff842 	bl	810dc <debug_hex64>
   82fd8:	aa1503e1 	mov	x1, x21
   82fdc:	f0007be0 	adrp	x0, 1001000 <GLOBAL_UART+0x1000>
   82fe0:	9105e000 	add	x0, x0, #0x178
   82fe4:	97fff83e 	bl	810dc <debug_hex64>
   82fe8:	aa1403e1 	mov	x1, x20
   82fec:	f0007be0 	adrp	x0, 1001000 <GLOBAL_UART+0x1000>
   82ff0:	91062000 	add	x0, x0, #0x188
   82ff4:	97fff83a 	bl	810dc <debug_hex64>
   82ff8:	52800a00 	mov	w0, #0x50                  	// #80
   82ffc:	97fffcc5 	bl	82310 <uart_putc>
   83000:	a9425bf5 	ldp	x21, x22, [sp, #32]
   83004:	a94153f3 	ldp	x19, x20, [sp, #16]
   83008:	a8c37bfd 	ldp	x29, x30, [sp], #48
   8300c:	d65f03c0 	ret

0000000000083010 <init_pmm>:
   83010:	a9bf7bfd 	stp	x29, x30, [sp, #-16]!
   83014:	910003fd 	mov	x29, sp
   83018:	a9bf7bfd 	stp	x29, x30, [sp, #-16]!
   8301c:	910003fd 	mov	x29, sp
   83020:	97ffff69 	bl	82dc4 <init_pmm_impl>
   83024:	a8c17bfd 	ldp	x29, x30, [sp], #16
   83028:	d65f03c0 	ret
   8302c:	a8c17bfd 	ldp	x29, x30, [sp], #16
   83030:	d65f03c0 	ret
	...

0000000000084000 <mmu_continuation_point>:
   84000:	a9bd7bfd 	stp	x29, x30, [sp, #-48]!
   84004:	910003fd 	mov	x29, sp
   84008:	f9000bf3 	str	x19, [sp, #16]
   8400c:	b0007be0 	adrp	x0, 1001000 <GLOBAL_UART+0x1000>
   84010:	91066000 	add	x0, x0, #0x198
   84014:	97fff8c7 	bl	82330 <uart_puts>
   84018:	b0007be0 	adrp	x0, 1001000 <GLOBAL_UART+0x1000>
   8401c:	91070000 	add	x0, x0, #0x1c0
   84020:	97fff8c4 	bl	82330 <uart_puts>
   84024:	d538c013 	mrs	x19, vbar_el1
   84028:	b0007be0 	adrp	x0, 1001000 <GLOBAL_UART+0x1000>
   8402c:	9107a000 	add	x0, x0, #0x1e8
   84030:	97fff8c0 	bl	82330 <uart_puts>
   84034:	aa1303e0 	mov	x0, x19
   84038:	97fff902 	bl	82440 <uart_hex64>
   8403c:	d2a02000 	mov	x0, #0x1000000             	// #16777216
   84040:	eb00027f 	cmp	x19, x0
   84044:	54000480 	b.eq	840d4 <mmu_continuation_point+0xd4>  // b.none
   84048:	d2930000 	mov	x0, #0x9800                	// #38912
   8404c:	f2a00100 	movk	x0, #0x8, lsl #16
   84050:	eb00027f 	cmp	x19, x0
   84054:	54000480 	b.eq	840e4 <mmu_continuation_point+0xe4>  // b.none
   84058:	b50004f3 	cbnz	x19, 840f4 <mmu_continuation_point+0xf4>
   8405c:	b0007be0 	adrp	x0, 1001000 <GLOBAL_UART+0x1000>
   84060:	9108e000 	add	x0, x0, #0x238
   84064:	97fff8b3 	bl	82330 <uart_puts>
   84068:	b0007be0 	adrp	x0, 1001000 <GLOBAL_UART+0x1000>
   8406c:	9109c000 	add	x0, x0, #0x270
   84070:	97fff8b0 	bl	82330 <uart_puts>
   84074:	b9002fff 	str	wzr, [sp, #44]
   84078:	b9402fe1 	ldr	w1, [sp, #44]
   8407c:	528847e0 	mov	w0, #0x423f                	// #16959
   84080:	72a001e0 	movk	w0, #0xf, lsl #16
   84084:	6b00003f 	cmp	w1, w0
   84088:	5400010c 	b.gt	840a8 <mmu_continuation_point+0xa8>
   8408c:	2a0003e1 	mov	w1, w0
   84090:	b9402fe0 	ldr	w0, [sp, #44]
   84094:	11000400 	add	w0, w0, #0x1
   84098:	b9002fe0 	str	w0, [sp, #44]
   8409c:	b9402fe0 	ldr	w0, [sp, #44]
   840a0:	6b01001f 	cmp	w0, w1
   840a4:	54ffff6d 	b.le	84090 <mmu_continuation_point+0x90>
   840a8:	d5381000 	mrs	x0, sctlr_el1
   840ac:	b2740000 	orr	x0, x0, #0x1000
   840b0:	b27e0000 	orr	x0, x0, #0x4
   840b4:	d5181000 	msr	sctlr_el1, x0
   840b8:	d5033fdf 	isb
   840bc:	b0007be0 	adrp	x0, 1001000 <GLOBAL_UART+0x1000>
   840c0:	910a6000 	add	x0, x0, #0x298
   840c4:	97fff89b 	bl	82330 <uart_puts>
   840c8:	f9400bf3 	ldr	x19, [sp, #16]
   840cc:	a8c37bfd 	ldp	x29, x30, [sp], #48
   840d0:	d65f03c0 	ret
   840d4:	b0007be0 	adrp	x0, 1001000 <GLOBAL_UART+0x1000>
   840d8:	9107e000 	add	x0, x0, #0x1f8
   840dc:	97fff895 	bl	82330 <uart_puts>
   840e0:	17ffffe2 	b	84068 <mmu_continuation_point+0x68>
   840e4:	b0007be0 	adrp	x0, 1001000 <GLOBAL_UART+0x1000>
   840e8:	91084000 	add	x0, x0, #0x210
   840ec:	97fff891 	bl	82330 <uart_puts>
   840f0:	17ffffde 	b	84068 <mmu_continuation_point+0x68>
   840f4:	b0007be0 	adrp	x0, 1001000 <GLOBAL_UART+0x1000>
   840f8:	91094000 	add	x0, x0, #0x250
   840fc:	97fff88d 	bl	82330 <uart_puts>
   84100:	17ffffda 	b	84068 <mmu_continuation_point+0x68>

0000000000084104 <read_ttbr1_el1>:
   84104:	d5382020 	mrs	x0, ttbr1_el1
   84108:	d65f03c0 	ret

000000000008410c <read_vbar_el1>:
   8410c:	d538c000 	mrs	x0, vbar_el1
   84110:	d65f03c0 	ret

0000000000084114 <debug_dump_pte>:
   84114:	a9bd7bfd 	stp	x29, x30, [sp, #-48]!
   84118:	910003fd 	mov	x29, sp
   8411c:	a90153f3 	stp	x19, x20, [sp, #16]
   84120:	aa0003f3 	mov	x19, x0
   84124:	90007c00 	adrp	x0, 1004000 <page_bitmap>
   84128:	f9402014 	ldr	x20, [x0, #64]
   8412c:	b40004b4 	cbz	x20, 841c0 <debug_dump_pte+0xac>
   84130:	f90013f5 	str	x21, [sp, #32]
   84134:	d35e9a75 	ubfx	x21, x19, #30, #9
   84138:	b0007be0 	adrp	x0, 1001000 <GLOBAL_UART+0x1000>
   8413c:	910be000 	add	x0, x0, #0x2f8
   84140:	97fff87c 	bl	82330 <uart_puts>
   84144:	aa1303e0 	mov	x0, x19
   84148:	97fff8be 	bl	82440 <uart_hex64>
   8414c:	90007be0 	adrp	x0, 1000000 <GLOBAL_UART>
   84150:	9121a000 	add	x0, x0, #0x868
   84154:	97fff877 	bl	82330 <uart_puts>
   84158:	d367be60 	ubfx	x0, x19, #39, #9
   8415c:	f8607a80 	ldr	x0, [x20, x0, lsl #3]
   84160:	36000380 	tbz	w0, #0, 841d0 <debug_dump_pte+0xbc>
   84164:	9274cc00 	and	x0, x0, #0xfffffffffffff000
   84168:	f8757800 	ldr	x0, [x0, x21, lsl #3]
   8416c:	360003c0 	tbz	w0, #0, 841e4 <debug_dump_pte+0xd0>
   84170:	9274cc00 	and	x0, x0, #0xfffffffffffff000
   84174:	d3557661 	ubfx	x1, x19, #21, #9
   84178:	f8617800 	ldr	x0, [x0, x1, lsl #3]
   8417c:	360003e0 	tbz	w0, #0, 841f8 <debug_dump_pte+0xe4>
   84180:	9274cc00 	and	x0, x0, #0xfffffffffffff000
   84184:	d34c5273 	ubfx	x19, x19, #12, #9
   84188:	f8737813 	ldr	x19, [x0, x19, lsl #3]
   8418c:	36000413 	tbz	w19, #0, 8420c <debug_dump_pte+0xf8>
   84190:	b0007be0 	adrp	x0, 1001000 <GLOBAL_UART+0x1000>
   84194:	910d2000 	add	x0, x0, #0x348
   84198:	97fff866 	bl	82330 <uart_puts>
   8419c:	aa1303e0 	mov	x0, x19
   841a0:	97fff8a8 	bl	82440 <uart_hex64>
   841a4:	90007be0 	adrp	x0, 1000000 <GLOBAL_UART>
   841a8:	9122a000 	add	x0, x0, #0x8a8
   841ac:	97fff861 	bl	82330 <uart_puts>
   841b0:	f94013f5 	ldr	x21, [sp, #32]
   841b4:	a94153f3 	ldp	x19, x20, [sp, #16]
   841b8:	a8c37bfd 	ldp	x29, x30, [sp], #48
   841bc:	d65f03c0 	ret
   841c0:	b0007be0 	adrp	x0, 1001000 <GLOBAL_UART+0x1000>
   841c4:	910b4000 	add	x0, x0, #0x2d0
   841c8:	97fff85a 	bl	82330 <uart_puts>
   841cc:	17fffffa 	b	841b4 <debug_dump_pte+0xa0>
   841d0:	b0007be0 	adrp	x0, 1001000 <GLOBAL_UART+0x1000>
   841d4:	910c2000 	add	x0, x0, #0x308
   841d8:	97fff856 	bl	82330 <uart_puts>
   841dc:	f94013f5 	ldr	x21, [sp, #32]
   841e0:	17fffff5 	b	841b4 <debug_dump_pte+0xa0>
   841e4:	b0007be0 	adrp	x0, 1001000 <GLOBAL_UART+0x1000>
   841e8:	910c6000 	add	x0, x0, #0x318
   841ec:	97fff851 	bl	82330 <uart_puts>
   841f0:	f94013f5 	ldr	x21, [sp, #32]
   841f4:	17fffff0 	b	841b4 <debug_dump_pte+0xa0>
   841f8:	b0007be0 	adrp	x0, 1001000 <GLOBAL_UART+0x1000>
   841fc:	910ca000 	add	x0, x0, #0x328
   84200:	97fff84c 	bl	82330 <uart_puts>
   84204:	f94013f5 	ldr	x21, [sp, #32]
   84208:	17ffffeb 	b	841b4 <debug_dump_pte+0xa0>
   8420c:	b0007be0 	adrp	x0, 1001000 <GLOBAL_UART+0x1000>
   84210:	910ce000 	add	x0, x0, #0x338
   84214:	97fff847 	bl	82330 <uart_puts>
   84218:	f94013f5 	ldr	x21, [sp, #32]
   8421c:	17ffffe6 	b	841b4 <debug_dump_pte+0xa0>

0000000000084220 <print_pte_flags>:
   84220:	a9bd7bfd 	stp	x29, x30, [sp, #-48]!
   84224:	910003fd 	mov	x29, sp
   84228:	a90153f3 	stp	x19, x20, [sp, #16]
   8422c:	aa0003f3 	mov	x19, x0
   84230:	90007c00 	adrp	x0, 1004000 <page_bitmap>
   84234:	f9402014 	ldr	x20, [x0, #64]
   84238:	b4000bf4 	cbz	x20, 843b4 <print_pte_flags+0x194>
   8423c:	f90013f5 	str	x21, [sp, #32]
   84240:	b0007be0 	adrp	x0, 1001000 <GLOBAL_UART+0x1000>
   84244:	910d6000 	add	x0, x0, #0x358
   84248:	97fff83a 	bl	82330 <uart_puts>
   8424c:	aa1303e0 	mov	x0, x19
   84250:	97fff87c 	bl	82440 <uart_hex64>
   84254:	52800140 	mov	w0, #0xa                   	// #10
   84258:	97fff82e 	bl	82310 <uart_putc>
   8425c:	d367be75 	ubfx	x21, x19, #39, #9
   84260:	f8757a80 	ldr	x0, [x20, x21, lsl #3]
   84264:	36000b00 	tbz	w0, #0, 843c4 <print_pte_flags+0x1a4>
   84268:	b0007be0 	adrp	x0, 1001000 <GLOBAL_UART+0x1000>
   8426c:	910e4000 	add	x0, x0, #0x390
   84270:	97fff830 	bl	82330 <uart_puts>
   84274:	f8757a80 	ldr	x0, [x20, x21, lsl #3]
   84278:	97fff872 	bl	82440 <uart_hex64>
   8427c:	52800140 	mov	w0, #0xa                   	// #10
   84280:	97fff824 	bl	82310 <uart_putc>
   84284:	f8757a94 	ldr	x20, [x20, x21, lsl #3]
   84288:	9274ce94 	and	x20, x20, #0xfffffffffffff000
   8428c:	d35e9a75 	ubfx	x21, x19, #30, #9
   84290:	f8757a80 	ldr	x0, [x20, x21, lsl #3]
   84294:	36000a60 	tbz	w0, #0, 843e0 <print_pte_flags+0x1c0>
   84298:	b0007be0 	adrp	x0, 1001000 <GLOBAL_UART+0x1000>
   8429c:	910ee000 	add	x0, x0, #0x3b8
   842a0:	97fff824 	bl	82330 <uart_puts>
   842a4:	f8757a80 	ldr	x0, [x20, x21, lsl #3]
   842a8:	97fff866 	bl	82440 <uart_hex64>
   842ac:	52800140 	mov	w0, #0xa                   	// #10
   842b0:	97fff818 	bl	82310 <uart_putc>
   842b4:	f8757a94 	ldr	x20, [x20, x21, lsl #3]
   842b8:	9274ce94 	and	x20, x20, #0xfffffffffffff000
   842bc:	d3557675 	ubfx	x21, x19, #21, #9
   842c0:	f8757a80 	ldr	x0, [x20, x21, lsl #3]
   842c4:	36000980 	tbz	w0, #0, 843f4 <print_pte_flags+0x1d4>
   842c8:	b0007be0 	adrp	x0, 1001000 <GLOBAL_UART+0x1000>
   842cc:	910f8000 	add	x0, x0, #0x3e0
   842d0:	97fff818 	bl	82330 <uart_puts>
   842d4:	f8757a80 	ldr	x0, [x20, x21, lsl #3]
   842d8:	97fff85a 	bl	82440 <uart_hex64>
   842dc:	52800140 	mov	w0, #0xa                   	// #10
   842e0:	97fff80c 	bl	82310 <uart_putc>
   842e4:	f8757a80 	ldr	x0, [x20, x21, lsl #3]
   842e8:	9274cc00 	and	x0, x0, #0xfffffffffffff000
   842ec:	d34c5273 	ubfx	x19, x19, #12, #9
   842f0:	f8737813 	ldr	x19, [x0, x19, lsl #3]
   842f4:	360008b3 	tbz	w19, #0, 84408 <print_pte_flags+0x1e8>
   842f8:	b0007be0 	adrp	x0, 1001000 <GLOBAL_UART+0x1000>
   842fc:	91102000 	add	x0, x0, #0x408
   84300:	97fff80c 	bl	82330 <uart_puts>
   84304:	aa1303e0 	mov	x0, x19
   84308:	97fff84e 	bl	82440 <uart_hex64>
   8430c:	52800140 	mov	w0, #0xa                   	// #10
   84310:	97fff800 	bl	82310 <uart_putc>
   84314:	b0007be0 	adrp	x0, 1001000 <GLOBAL_UART+0x1000>
   84318:	91108000 	add	x0, x0, #0x420
   8431c:	97fff805 	bl	82330 <uart_puts>
   84320:	52800620 	mov	w0, #0x31                  	// #49
   84324:	97fff7fb 	bl	82310 <uart_putc>
   84328:	52800140 	mov	w0, #0xa                   	// #10
   8432c:	97fff7f9 	bl	82310 <uart_putc>
   84330:	b0007be0 	adrp	x0, 1001000 <GLOBAL_UART+0x1000>
   84334:	9110c000 	add	x0, x0, #0x430
   84338:	97fff7fe 	bl	82330 <uart_puts>
   8433c:	d375d660 	ubfx	x0, x19, #53, #1
   84340:	1100c000 	add	w0, w0, #0x30
   84344:	97fff7f3 	bl	82310 <uart_putc>
   84348:	52800140 	mov	w0, #0xa                   	// #10
   8434c:	97fff7f1 	bl	82310 <uart_putc>
   84350:	b0007be0 	adrp	x0, 1001000 <GLOBAL_UART+0x1000>
   84354:	9110e000 	add	x0, x0, #0x438
   84358:	97fff7f6 	bl	82330 <uart_puts>
   8435c:	d376da60 	ubfx	x0, x19, #54, #1
   84360:	1100c000 	add	w0, w0, #0x30
   84364:	97fff7eb 	bl	82310 <uart_putc>
   84368:	52800140 	mov	w0, #0xa                   	// #10
   8436c:	97fff7e9 	bl	82310 <uart_putc>
   84370:	b0007be0 	adrp	x0, 1001000 <GLOBAL_UART+0x1000>
   84374:	91110000 	add	x0, x0, #0x440
   84378:	97fff7ee 	bl	82330 <uart_puts>
   8437c:	530a2a60 	ubfx	w0, w19, #10, #1
   84380:	1100c000 	add	w0, w0, #0x30
   84384:	97fff7e3 	bl	82310 <uart_putc>
   84388:	52800140 	mov	w0, #0xa                   	// #10
   8438c:	97fff7e1 	bl	82310 <uart_putc>
   84390:	b0007be0 	adrp	x0, 1001000 <GLOBAL_UART+0x1000>
   84394:	91112000 	add	x0, x0, #0x448
   84398:	97fff7e6 	bl	82330 <uart_puts>
   8439c:	d3421260 	ubfx	x0, x19, #2, #3
   843a0:	97fff828 	bl	82440 <uart_hex64>
   843a4:	52800140 	mov	w0, #0xa                   	// #10
   843a8:	97fff7da 	bl	82310 <uart_putc>
   843ac:	f94013f5 	ldr	x21, [sp, #32]
   843b0:	14000009 	b	843d4 <print_pte_flags+0x1b4>
   843b4:	b0007be0 	adrp	x0, 1001000 <GLOBAL_UART+0x1000>
   843b8:	910b4000 	add	x0, x0, #0x2d0
   843bc:	97fff7dd 	bl	82330 <uart_puts>
   843c0:	14000005 	b	843d4 <print_pte_flags+0x1b4>
   843c4:	b0007be0 	adrp	x0, 1001000 <GLOBAL_UART+0x1000>
   843c8:	910de000 	add	x0, x0, #0x378
   843cc:	97fff7d9 	bl	82330 <uart_puts>
   843d0:	f94013f5 	ldr	x21, [sp, #32]
   843d4:	a94153f3 	ldp	x19, x20, [sp, #16]
   843d8:	a8c37bfd 	ldp	x29, x30, [sp], #48
   843dc:	d65f03c0 	ret
   843e0:	b0007be0 	adrp	x0, 1001000 <GLOBAL_UART+0x1000>
   843e4:	910e8000 	add	x0, x0, #0x3a0
   843e8:	97fff7d2 	bl	82330 <uart_puts>
   843ec:	f94013f5 	ldr	x21, [sp, #32]
   843f0:	17fffff9 	b	843d4 <print_pte_flags+0x1b4>
   843f4:	b0007be0 	adrp	x0, 1001000 <GLOBAL_UART+0x1000>
   843f8:	910f2000 	add	x0, x0, #0x3c8
   843fc:	97fff7cd 	bl	82330 <uart_puts>
   84400:	f94013f5 	ldr	x21, [sp, #32]
   84404:	17fffff4 	b	843d4 <print_pte_flags+0x1b4>
   84408:	b0007be0 	adrp	x0, 1001000 <GLOBAL_UART+0x1000>
   8440c:	910fc000 	add	x0, x0, #0x3f0
   84410:	97fff7c8 	bl	82330 <uart_puts>
   84414:	f94013f5 	ldr	x21, [sp, #32]
   84418:	17ffffef 	b	843d4 <print_pte_flags+0x1b4>

000000000008441c <debug_check_mapping>:
   8441c:	a9bd7bfd 	stp	x29, x30, [sp, #-48]!
   84420:	910003fd 	mov	x29, sp
   84424:	a90153f3 	stp	x19, x20, [sp, #16]
   84428:	f90013f5 	str	x21, [sp, #32]
   8442c:	aa0003f3 	mov	x19, x0
   84430:	aa0103f4 	mov	x20, x1
   84434:	b0007be0 	adrp	x0, 1001000 <GLOBAL_UART+0x1000>
   84438:	91116000 	add	x0, x0, #0x458
   8443c:	97fff7bd 	bl	82330 <uart_puts>
   84440:	aa1403e0 	mov	x0, x20
   84444:	97fff7bb 	bl	82330 <uart_puts>
   84448:	b0007be0 	adrp	x0, 1001000 <GLOBAL_UART+0x1000>
   8444c:	9111e000 	add	x0, x0, #0x478
   84450:	97fff7b8 	bl	82330 <uart_puts>
   84454:	aa1303e0 	mov	x0, x19
   84458:	97fff7fa 	bl	82440 <uart_hex64>
   8445c:	90007be0 	adrp	x0, 1000000 <GLOBAL_UART>
   84460:	9122a000 	add	x0, x0, #0x8a8
   84464:	97fff7b3 	bl	82330 <uart_puts>
   84468:	90007c00 	adrp	x0, 1004000 <page_bitmap>
   8446c:	f9402015 	ldr	x21, [x0, #64]
   84470:	b4000ab5 	cbz	x21, 845c4 <debug_check_mapping+0x1a8>
   84474:	d367be74 	ubfx	x20, x19, #39, #9
   84478:	b0007be0 	adrp	x0, 1001000 <GLOBAL_UART+0x1000>
   8447c:	9112c000 	add	x0, x0, #0x4b0
   84480:	97fff7ac 	bl	82330 <uart_puts>
   84484:	aa1403e0 	mov	x0, x20
   84488:	97fff7ee 	bl	82440 <uart_hex64>
   8448c:	90007be0 	adrp	x0, 1000000 <GLOBAL_UART>
   84490:	9122a000 	add	x0, x0, #0x8a8
   84494:	97fff7a7 	bl	82330 <uart_puts>
   84498:	f8747aa0 	ldr	x0, [x21, x20, lsl #3]
   8449c:	360009c0 	tbz	w0, #0, 845d4 <debug_check_mapping+0x1b8>
   844a0:	9274cc14 	and	x20, x0, #0xfffffffffffff000
   844a4:	b0007be0 	adrp	x0, 1001000 <GLOBAL_UART+0x1000>
   844a8:	91136000 	add	x0, x0, #0x4d8
   844ac:	97fff7a1 	bl	82330 <uart_puts>
   844b0:	aa1403e0 	mov	x0, x20
   844b4:	97fff7e3 	bl	82440 <uart_hex64>
   844b8:	90007be0 	adrp	x0, 1000000 <GLOBAL_UART>
   844bc:	9122a000 	add	x0, x0, #0x8a8
   844c0:	97fff79c 	bl	82330 <uart_puts>
   844c4:	d35e9a60 	ubfx	x0, x19, #30, #9
   844c8:	f8607a80 	ldr	x0, [x20, x0, lsl #3]
   844cc:	36000920 	tbz	w0, #0, 845f0 <debug_check_mapping+0x1d4>
   844d0:	9274cc14 	and	x20, x0, #0xfffffffffffff000
   844d4:	b0007be0 	adrp	x0, 1001000 <GLOBAL_UART+0x1000>
   844d8:	91142000 	add	x0, x0, #0x508
   844dc:	97fff795 	bl	82330 <uart_puts>
   844e0:	aa1403e0 	mov	x0, x20
   844e4:	97fff7d7 	bl	82440 <uart_hex64>
   844e8:	90007be0 	adrp	x0, 1000000 <GLOBAL_UART>
   844ec:	9122a000 	add	x0, x0, #0x8a8
   844f0:	97fff790 	bl	82330 <uart_puts>
   844f4:	d3557660 	ubfx	x0, x19, #21, #9
   844f8:	f8607a80 	ldr	x0, [x20, x0, lsl #3]
   844fc:	36000820 	tbz	w0, #0, 84600 <debug_check_mapping+0x1e4>
   84500:	9274cc14 	and	x20, x0, #0xfffffffffffff000
   84504:	b0007be0 	adrp	x0, 1001000 <GLOBAL_UART+0x1000>
   84508:	9114e000 	add	x0, x0, #0x538
   8450c:	97fff789 	bl	82330 <uart_puts>
   84510:	aa1403e0 	mov	x0, x20
   84514:	97fff7cb 	bl	82440 <uart_hex64>
   84518:	90007be0 	adrp	x0, 1000000 <GLOBAL_UART>
   8451c:	9122a000 	add	x0, x0, #0x8a8
   84520:	97fff784 	bl	82330 <uart_puts>
   84524:	d34c5273 	ubfx	x19, x19, #12, #9
   84528:	f8737a93 	ldr	x19, [x20, x19, lsl #3]
   8452c:	36000733 	tbz	w19, #0, 84610 <debug_check_mapping+0x1f4>
   84530:	b0007be0 	adrp	x0, 1001000 <GLOBAL_UART+0x1000>
   84534:	9115a000 	add	x0, x0, #0x568
   84538:	97fff77e 	bl	82330 <uart_puts>
   8453c:	aa1303e0 	mov	x0, x19
   84540:	97fff7c0 	bl	82440 <uart_hex64>
   84544:	90007bf4 	adrp	x20, 1000000 <GLOBAL_UART>
   84548:	9122a294 	add	x20, x20, #0x8a8
   8454c:	aa1403e0 	mov	x0, x20
   84550:	97fff778 	bl	82330 <uart_puts>
   84554:	b0007be0 	adrp	x0, 1001000 <GLOBAL_UART+0x1000>
   84558:	9115e000 	add	x0, x0, #0x578
   8455c:	97fff775 	bl	82330 <uart_puts>
   84560:	9274ce60 	and	x0, x19, #0xfffffffffffff000
   84564:	97fff7b7 	bl	82440 <uart_hex64>
   84568:	aa1403e0 	mov	x0, x20
   8456c:	97fff771 	bl	82330 <uart_puts>
   84570:	b0007be0 	adrp	x0, 1001000 <GLOBAL_UART+0x1000>
   84574:	91164000 	add	x0, x0, #0x590
   84578:	97fff76e 	bl	82330 <uart_puts>
   8457c:	b7b00533 	tbnz	x19, #54, 84620 <debug_check_mapping+0x204>
   84580:	b7a80593 	tbnz	x19, #53, 84630 <debug_check_mapping+0x214>
   84584:	f27a0660 	ands	x0, x19, #0xc0
   84588:	540005c0 	b.eq	84640 <debug_check_mapping+0x224>  // b.none
   8458c:	f102001f 	cmp	x0, #0x80
   84590:	54000600 	b.eq	84650 <debug_check_mapping+0x234>  // b.none
   84594:	90007be0 	adrp	x0, 1000000 <GLOBAL_UART>
   84598:	9122a000 	add	x0, x0, #0x8a8
   8459c:	97fff765 	bl	82330 <uart_puts>
   845a0:	b0007be0 	adrp	x0, 1001000 <GLOBAL_UART+0x1000>
   845a4:	91170000 	add	x0, x0, #0x5c0
   845a8:	97fff762 	bl	82330 <uart_puts>
   845ac:	f24b067f 	tst	x19, #0x60000000000000
   845b0:	54000581 	b.ne	84660 <debug_check_mapping+0x244>  // b.any
   845b4:	b0007be0 	adrp	x0, 1001000 <GLOBAL_UART+0x1000>
   845b8:	91174000 	add	x0, x0, #0x5d0
   845bc:	97fff75d 	bl	82330 <uart_puts>
   845c0:	14000008 	b	845e0 <debug_check_mapping+0x1c4>
   845c4:	b0007be0 	adrp	x0, 1001000 <GLOBAL_UART+0x1000>
   845c8:	91120000 	add	x0, x0, #0x480
   845cc:	97fff759 	bl	82330 <uart_puts>
   845d0:	14000004 	b	845e0 <debug_check_mapping+0x1c4>
   845d4:	b0007be0 	adrp	x0, 1001000 <GLOBAL_UART+0x1000>
   845d8:	91130000 	add	x0, x0, #0x4c0
   845dc:	97fff755 	bl	82330 <uart_puts>
   845e0:	a94153f3 	ldp	x19, x20, [sp, #16]
   845e4:	f94013f5 	ldr	x21, [sp, #32]
   845e8:	a8c37bfd 	ldp	x29, x30, [sp], #48
   845ec:	d65f03c0 	ret
   845f0:	b0007be0 	adrp	x0, 1001000 <GLOBAL_UART+0x1000>
   845f4:	9113c000 	add	x0, x0, #0x4f0
   845f8:	97fff74e 	bl	82330 <uart_puts>
   845fc:	17fffff9 	b	845e0 <debug_check_mapping+0x1c4>
   84600:	b0007be0 	adrp	x0, 1001000 <GLOBAL_UART+0x1000>
   84604:	91148000 	add	x0, x0, #0x520
   84608:	97fff74a 	bl	82330 <uart_puts>
   8460c:	17fffff5 	b	845e0 <debug_check_mapping+0x1c4>
   84610:	b0007be0 	adrp	x0, 1001000 <GLOBAL_UART+0x1000>
   84614:	91154000 	add	x0, x0, #0x550
   84618:	97fff746 	bl	82330 <uart_puts>
   8461c:	17fffff1 	b	845e0 <debug_check_mapping+0x1c4>
   84620:	b0007be0 	adrp	x0, 1001000 <GLOBAL_UART+0x1000>
   84624:	91168000 	add	x0, x0, #0x5a0
   84628:	97fff742 	bl	82330 <uart_puts>
   8462c:	17ffffd5 	b	84580 <debug_check_mapping+0x164>
   84630:	b0007be0 	adrp	x0, 1001000 <GLOBAL_UART+0x1000>
   84634:	9116a000 	add	x0, x0, #0x5a8
   84638:	97fff73e 	bl	82330 <uart_puts>
   8463c:	17ffffd2 	b	84584 <debug_check_mapping+0x168>
   84640:	b0007be0 	adrp	x0, 1001000 <GLOBAL_UART+0x1000>
   84644:	9116c000 	add	x0, x0, #0x5b0
   84648:	97fff73a 	bl	82330 <uart_puts>
   8464c:	17ffffd2 	b	84594 <debug_check_mapping+0x178>
   84650:	b0007be0 	adrp	x0, 1001000 <GLOBAL_UART+0x1000>
   84654:	9116e000 	add	x0, x0, #0x5b8
   84658:	97fff736 	bl	82330 <uart_puts>
   8465c:	17ffffce 	b	84594 <debug_check_mapping+0x178>
   84660:	b0007be0 	adrp	x0, 1001000 <GLOBAL_UART+0x1000>
   84664:	91176000 	add	x0, x0, #0x5d8
   84668:	97fff732 	bl	82330 <uart_puts>
   8466c:	17ffffdd 	b	845e0 <debug_check_mapping+0x1c4>

0000000000084670 <create_page_table>:
   84670:	a9be7bfd 	stp	x29, x30, [sp, #-32]!
   84674:	910003fd 	mov	x29, sp
   84678:	f9000bf3 	str	x19, [sp, #16]
   8467c:	97fff8bf 	bl	82978 <alloc_page>
   84680:	aa0003f3 	mov	x19, x0
   84684:	b4000100 	cbz	x0, 846a4 <create_page_table+0x34>
   84688:	d2820002 	mov	x2, #0x1000                	// #4096
   8468c:	52800001 	mov	w1, #0x0                   	// #0
   84690:	97fff78e 	bl	824c8 <memset>
   84694:	aa1303e0 	mov	x0, x19
   84698:	f9400bf3 	ldr	x19, [sp, #16]
   8469c:	a8c27bfd 	ldp	x29, x30, [sp], #32
   846a0:	d65f03c0 	ret
   846a4:	b0007be0 	adrp	x0, 1001000 <GLOBAL_UART+0x1000>
   846a8:	91178000 	add	x0, x0, #0x5e0
   846ac:	97fff721 	bl	82330 <uart_puts>
   846b0:	17fffff9 	b	84694 <create_page_table+0x24>

00000000000846b4 <map_page>:
   846b4:	b40000c0 	cbz	x0, 846cc <map_page+0x18>
   846b8:	d34c5021 	ubfx	x1, x1, #12, #9
   846bc:	aa030042 	orr	x2, x2, x3
   846c0:	b2400442 	orr	x2, x2, #0x3
   846c4:	f8217802 	str	x2, [x0, x1, lsl #3]
   846c8:	d65f03c0 	ret
   846cc:	a9bf7bfd 	stp	x29, x30, [sp, #-16]!
   846d0:	910003fd 	mov	x29, sp
   846d4:	b0007be0 	adrp	x0, 1001000 <GLOBAL_UART+0x1000>
   846d8:	91182000 	add	x0, x0, #0x608
   846dc:	97fff715 	bl	82330 <uart_puts>
   846e0:	a8c17bfd 	ldp	x29, x30, [sp], #16
   846e4:	d65f03c0 	ret

00000000000846e8 <eret_test_pattern>:
   846e8:	d10043ff 	sub	sp, sp, #0x10
   846ec:	52800a00 	mov	w0, #0x50                  	// #80
   846f0:	d2a12002 	mov	x2, #0x9000000             	// #150994944
   846f4:	528007a1 	mov	w1, #0x3d                  	// #61
   846f8:	b9000041 	str	w1, [x2]
   846fc:	71000400 	subs	w0, w0, #0x1
   84700:	54ffffc1 	b.ne	846f8 <eret_test_pattern+0x10>  // b.any
   84704:	d2a12000 	mov	x0, #0x9000000             	// #150994944
   84708:	528001a4 	mov	w4, #0xd                   	// #13
   8470c:	b9000004 	str	w4, [x0]
   84710:	52800143 	mov	w3, #0xa                   	// #10
   84714:	b9000003 	str	w3, [x0]
   84718:	52800a61 	mov	w1, #0x53                  	// #83
   8471c:	b9000001 	str	w1, [x0]
   84720:	52800aa2 	mov	w2, #0x55                  	// #85
   84724:	b9000002 	str	w2, [x0]
   84728:	52800862 	mov	w2, #0x43                  	// #67
   8472c:	b9000002 	str	w2, [x0]
   84730:	b9000002 	str	w2, [x0]
   84734:	528008a2 	mov	w2, #0x45                  	// #69
   84738:	b9000002 	str	w2, [x0]
   8473c:	b9000001 	str	w1, [x0]
   84740:	b9000001 	str	w1, [x0]
   84744:	52800425 	mov	w5, #0x21                  	// #33
   84748:	b9000005 	str	w5, [x0]
   8474c:	52800407 	mov	w7, #0x20                  	// #32
   84750:	b9000007 	str	w7, [x0]
   84754:	b9000002 	str	w2, [x0]
   84758:	52800a46 	mov	w6, #0x52                  	// #82
   8475c:	b9000006 	str	w6, [x0]
   84760:	b9000002 	str	w2, [x0]
   84764:	52800a82 	mov	w2, #0x54                  	// #84
   84768:	b9000002 	str	w2, [x0]
   8476c:	b9000007 	str	w7, [x0]
   84770:	52800ae2 	mov	w2, #0x57                  	// #87
   84774:	b9000002 	str	w2, [x0]
   84778:	528009e2 	mov	w2, #0x4f                  	// #79
   8477c:	b9000002 	str	w2, [x0]
   84780:	b9000006 	str	w6, [x0]
   84784:	52800962 	mov	w2, #0x4b                  	// #75
   84788:	b9000002 	str	w2, [x0]
   8478c:	b9000001 	str	w1, [x0]
   84790:	b9000005 	str	w5, [x0]
   84794:	b9000004 	str	w4, [x0]
   84798:	b9000003 	str	w3, [x0]
   8479c:	52800001 	mov	w1, #0x0                   	// #0
   847a0:	5280078b 	mov	w11, #0x3c                  	// #60
   847a4:	5280066a 	mov	w10, #0x33                  	// #51
   847a8:	2a0703e9 	mov	w9, w7
   847ac:	52800605 	mov	w5, #0x30                  	// #48
   847b0:	52800624 	mov	w4, #0x31                  	// #49
   847b4:	528001a8 	mov	w8, #0xd                   	// #13
   847b8:	2a0303e7 	mov	w7, w3
   847bc:	5290d3e3 	mov	w3, #0x869f                	// #34463
   847c0:	72a00023 	movk	w3, #0x1, lsl #16
   847c4:	52986a06 	mov	w6, #0xc350                	// #50000
   847c8:	528005cc 	mov	w12, #0x2e                  	// #46
   847cc:	14000013 	b	84818 <eret_test_pattern+0x130>
   847d0:	b9000005 	str	w5, [x0]
   847d4:	14000016 	b	8482c <eret_test_pattern+0x144>
   847d8:	b9000005 	str	w5, [x0]
   847dc:	14000016 	b	84834 <eret_test_pattern+0x14c>
   847e0:	b9000005 	str	w5, [x0]
   847e4:	14000016 	b	8483c <eret_test_pattern+0x154>
   847e8:	b9000005 	str	w5, [x0]
   847ec:	14000016 	b	84844 <eret_test_pattern+0x15c>
   847f0:	b9400fe2 	ldr	w2, [sp, #12]
   847f4:	6b06005f 	cmp	w2, w6
   847f8:	54000340 	b.eq	84860 <eret_test_pattern+0x178>  // b.none
   847fc:	b9400fe2 	ldr	w2, [sp, #12]
   84800:	11000442 	add	w2, w2, #0x1
   84804:	b9000fe2 	str	w2, [sp, #12]
   84808:	b9400fe2 	ldr	w2, [sp, #12]
   8480c:	6b03005f 	cmp	w2, w3
   84810:	54ffff0d 	b.le	847f0 <eret_test_pattern+0x108>
   84814:	11000421 	add	w1, w1, #0x1
   84818:	b900000b 	str	w11, [x0]
   8481c:	b900000a 	str	w10, [x0]
   84820:	b9000009 	str	w9, [x0]
   84824:	3607fd61 	tbz	w1, #0, 847d0 <eret_test_pattern+0xe8>
   84828:	b9000004 	str	w4, [x0]
   8482c:	360ffd61 	tbz	w1, #1, 847d8 <eret_test_pattern+0xf0>
   84830:	b9000004 	str	w4, [x0]
   84834:	3617fd61 	tbz	w1, #2, 847e0 <eret_test_pattern+0xf8>
   84838:	b9000004 	str	w4, [x0]
   8483c:	361ffd61 	tbz	w1, #3, 847e8 <eret_test_pattern+0x100>
   84840:	b9000004 	str	w4, [x0]
   84844:	b9000008 	str	w8, [x0]
   84848:	b9000007 	str	w7, [x0]
   8484c:	b9000fff 	str	wzr, [sp, #12]
   84850:	b9400fe2 	ldr	w2, [sp, #12]
   84854:	6b03005f 	cmp	w2, w3
   84858:	54fffdec 	b.gt	84814 <eret_test_pattern+0x12c>
   8485c:	17ffffe5 	b	847f0 <eret_test_pattern+0x108>
   84860:	b900000c 	str	w12, [x0]
   84864:	17ffffe6 	b	847fc <eret_test_pattern+0x114>

0000000000084868 <print_text_section_info>:
   84868:	d2a12000 	mov	x0, #0x9000000             	// #150994944
   8486c:	52800a81 	mov	w1, #0x54                  	// #84
   84870:	b9000001 	str	w1, [x0]
   84874:	52800b02 	mov	w2, #0x58                  	// #88
   84878:	b9000002 	str	w2, [x0]
   8487c:	b9000001 	str	w1, [x0]
   84880:	52800741 	mov	w1, #0x3a                  	// #58
   84884:	b9000001 	str	w1, [x0]
   84888:	52800401 	mov	w1, #0x20                  	// #32
   8488c:	b9000001 	str	w1, [x0]
   84890:	90ffffe0 	adrp	x0, 80000 <__text_start>
   84894:	91000000 	add	x0, x0, #0x0
   84898:	531c7c02 	lsr	w2, w0, #28
   8489c:	1100c043 	add	w3, w2, #0x30
   848a0:	1100dc41 	add	w1, w2, #0x37
   848a4:	7100245f 	cmp	w2, #0x9
   848a8:	1a838021 	csel	w1, w1, w3, hi	// hi = pmore
   848ac:	d2a12002 	mov	x2, #0x9000000             	// #150994944
   848b0:	b9000041 	str	w1, [x2]
   848b4:	53186c00 	ubfx	w0, w0, #24, #4
   848b8:	1100c002 	add	w2, w0, #0x30
   848bc:	1100dc01 	add	w1, w0, #0x37
   848c0:	7100241f 	cmp	w0, #0x9
   848c4:	1a828020 	csel	w0, w1, w2, hi	// hi = pmore
   848c8:	d2a12001 	mov	x1, #0x9000000             	// #150994944
   848cc:	b9000020 	str	w0, [x1]
   848d0:	528005a0 	mov	w0, #0x2d                  	// #45
   848d4:	b9000020 	str	w0, [x1]
   848d8:	90007be0 	adrp	x0, 1000000 <GLOBAL_UART>
   848dc:	91000000 	add	x0, x0, #0x0
   848e0:	531c7c02 	lsr	w2, w0, #28
   848e4:	1100c043 	add	w3, w2, #0x30
   848e8:	1100dc41 	add	w1, w2, #0x37
   848ec:	7100245f 	cmp	w2, #0x9
   848f0:	1a838021 	csel	w1, w1, w3, hi	// hi = pmore
   848f4:	d2a12002 	mov	x2, #0x9000000             	// #150994944
   848f8:	b9000041 	str	w1, [x2]
   848fc:	53186c00 	ubfx	w0, w0, #24, #4
   84900:	1100c002 	add	w2, w0, #0x30
   84904:	1100dc01 	add	w1, w0, #0x37
   84908:	7100241f 	cmp	w0, #0x9
   8490c:	1a828021 	csel	w1, w1, w2, hi	// hi = pmore
   84910:	d2a12000 	mov	x0, #0x9000000             	// #150994944
   84914:	b9000001 	str	w1, [x0]
   84918:	528001a1 	mov	w1, #0xd                   	// #13
   8491c:	b9000001 	str	w1, [x0]
   84920:	52800141 	mov	w1, #0xa                   	// #10
   84924:	b9000001 	str	w1, [x0]
   84928:	d65f03c0 	ret

000000000008492c <debug_memory_permissions>:
   8492c:	d2a12000 	mov	x0, #0x9000000             	// #150994944
   84930:	528009a1 	mov	w1, #0x4d                  	// #77
   84934:	b9000001 	str	w1, [x0]
   84938:	b9000001 	str	w1, [x0]
   8493c:	52800aa1 	mov	w1, #0x55                  	// #85
   84940:	b9000001 	str	w1, [x0]
   84944:	52800741 	mov	w1, #0x3a                  	// #58
   84948:	b9000001 	str	w1, [x0]
   8494c:	52800401 	mov	w1, #0x20                  	// #32
   84950:	b9000001 	str	w1, [x0]
   84954:	528009e1 	mov	w1, #0x4f                  	// #79
   84958:	b9000001 	str	w1, [x0]
   8495c:	52800961 	mov	w1, #0x4b                  	// #75
   84960:	b9000001 	str	w1, [x0]
   84964:	528001a1 	mov	w1, #0xd                   	// #13
   84968:	b9000001 	str	w1, [x0]
   8496c:	52800141 	mov	w1, #0xa                   	// #10
   84970:	b9000001 	str	w1, [x0]
   84974:	d65f03c0 	ret

0000000000084978 <verify_executable_address>:
   84978:	a9bc7bfd 	stp	x29, x30, [sp, #-64]!
   8497c:	910003fd 	mov	x29, sp
   84980:	a90153f3 	stp	x19, x20, [sp, #16]
   84984:	a9025bf5 	stp	x21, x22, [sp, #32]
   84988:	a90363f7 	stp	x23, x24, [sp, #48]
   8498c:	aa0003f4 	mov	x20, x0
   84990:	aa0103f3 	mov	x19, x1
   84994:	aa0203f5 	mov	x21, x2
   84998:	b0007be0 	adrp	x0, 1001000 <GLOBAL_UART+0x1000>
   8499c:	9118e000 	add	x0, x0, #0x638
   849a0:	97fff664 	bl	82330 <uart_puts>
   849a4:	aa1503e0 	mov	x0, x21
   849a8:	97fff662 	bl	82330 <uart_puts>
   849ac:	b0007be0 	adrp	x0, 1001000 <GLOBAL_UART+0x1000>
   849b0:	91198000 	add	x0, x0, #0x660
   849b4:	97fff65f 	bl	82330 <uart_puts>
   849b8:	aa1303e0 	mov	x0, x19
   849bc:	97fff6a1 	bl	82440 <uart_hex64>
   849c0:	b0007be0 	adrp	x0, 1001000 <GLOBAL_UART+0x1000>
   849c4:	9119a000 	add	x0, x0, #0x668
   849c8:	97fff65a 	bl	82330 <uart_puts>
   849cc:	d367be78 	ubfx	x24, x19, #39, #9
   849d0:	d35e9a77 	ubfx	x23, x19, #30, #9
   849d4:	d3557676 	ubfx	x22, x19, #21, #9
   849d8:	d34c5273 	ubfx	x19, x19, #12, #9
   849dc:	b0007be0 	adrp	x0, 1001000 <GLOBAL_UART+0x1000>
   849e0:	9119c000 	add	x0, x0, #0x670
   849e4:	97fff653 	bl	82330 <uart_puts>
   849e8:	aa1803e0 	mov	x0, x24
   849ec:	97fff695 	bl	82440 <uart_hex64>
   849f0:	b0007be0 	adrp	x0, 1001000 <GLOBAL_UART+0x1000>
   849f4:	911a0000 	add	x0, x0, #0x680
   849f8:	97fff64e 	bl	82330 <uart_puts>
   849fc:	aa1703e0 	mov	x0, x23
   84a00:	97fff690 	bl	82440 <uart_hex64>
   84a04:	b0007be0 	adrp	x0, 1001000 <GLOBAL_UART+0x1000>
   84a08:	911a4000 	add	x0, x0, #0x690
   84a0c:	97fff649 	bl	82330 <uart_puts>
   84a10:	aa1603e0 	mov	x0, x22
   84a14:	97fff68b 	bl	82440 <uart_hex64>
   84a18:	b0007be0 	adrp	x0, 1001000 <GLOBAL_UART+0x1000>
   84a1c:	911a8000 	add	x0, x0, #0x6a0
   84a20:	97fff644 	bl	82330 <uart_puts>
   84a24:	aa1303e0 	mov	x0, x19
   84a28:	97fff686 	bl	82440 <uart_hex64>
   84a2c:	90007bf5 	adrp	x21, 1000000 <GLOBAL_UART>
   84a30:	9122a2b5 	add	x21, x21, #0x8a8
   84a34:	aa1503e0 	mov	x0, x21
   84a38:	97fff63e 	bl	82330 <uart_puts>
   84a3c:	f8787a94 	ldr	x20, [x20, x24, lsl #3]
   84a40:	b0007be0 	adrp	x0, 1001000 <GLOBAL_UART+0x1000>
   84a44:	911ac000 	add	x0, x0, #0x6b0
   84a48:	97fff63a 	bl	82330 <uart_puts>
   84a4c:	aa1403e0 	mov	x0, x20
   84a50:	97fff67c 	bl	82440 <uart_hex64>
   84a54:	aa1503e0 	mov	x0, x21
   84a58:	97fff636 	bl	82330 <uart_puts>
   84a5c:	36000854 	tbz	w20, #0, 84b64 <verify_executable_address+0x1ec>
   84a60:	9274ce94 	and	x20, x20, #0xfffffffffffff000
   84a64:	b0007be0 	adrp	x0, 1001000 <GLOBAL_UART+0x1000>
   84a68:	911b8000 	add	x0, x0, #0x6e0
   84a6c:	97fff631 	bl	82330 <uart_puts>
   84a70:	aa1403e0 	mov	x0, x20
   84a74:	97fff673 	bl	82440 <uart_hex64>
   84a78:	90007bf5 	adrp	x21, 1000000 <GLOBAL_UART>
   84a7c:	9122a2b5 	add	x21, x21, #0x8a8
   84a80:	aa1503e0 	mov	x0, x21
   84a84:	97fff62b 	bl	82330 <uart_puts>
   84a88:	f8777a94 	ldr	x20, [x20, x23, lsl #3]
   84a8c:	b0007be0 	adrp	x0, 1001000 <GLOBAL_UART+0x1000>
   84a90:	911bc000 	add	x0, x0, #0x6f0
   84a94:	97fff627 	bl	82330 <uart_puts>
   84a98:	aa1403e0 	mov	x0, x20
   84a9c:	97fff669 	bl	82440 <uart_hex64>
   84aa0:	aa1503e0 	mov	x0, x21
   84aa4:	97fff623 	bl	82330 <uart_puts>
   84aa8:	36000714 	tbz	w20, #0, 84b88 <verify_executable_address+0x210>
   84aac:	9274ce94 	and	x20, x20, #0xfffffffffffff000
   84ab0:	b0007be0 	adrp	x0, 1001000 <GLOBAL_UART+0x1000>
   84ab4:	911c8000 	add	x0, x0, #0x720
   84ab8:	97fff61e 	bl	82330 <uart_puts>
   84abc:	aa1403e0 	mov	x0, x20
   84ac0:	97fff660 	bl	82440 <uart_hex64>
   84ac4:	90007bf5 	adrp	x21, 1000000 <GLOBAL_UART>
   84ac8:	9122a2b5 	add	x21, x21, #0x8a8
   84acc:	aa1503e0 	mov	x0, x21
   84ad0:	97fff618 	bl	82330 <uart_puts>
   84ad4:	f8767a94 	ldr	x20, [x20, x22, lsl #3]
   84ad8:	b0007be0 	adrp	x0, 1001000 <GLOBAL_UART+0x1000>
   84adc:	911cc000 	add	x0, x0, #0x730
   84ae0:	97fff614 	bl	82330 <uart_puts>
   84ae4:	aa1403e0 	mov	x0, x20
   84ae8:	97fff656 	bl	82440 <uart_hex64>
   84aec:	aa1503e0 	mov	x0, x21
   84af0:	97fff610 	bl	82330 <uart_puts>
   84af4:	36000554 	tbz	w20, #0, 84b9c <verify_executable_address+0x224>
   84af8:	9274ce94 	and	x20, x20, #0xfffffffffffff000
   84afc:	b0007be0 	adrp	x0, 1001000 <GLOBAL_UART+0x1000>
   84b00:	911d8000 	add	x0, x0, #0x760
   84b04:	97fff60b 	bl	82330 <uart_puts>
   84b08:	aa1403e0 	mov	x0, x20
   84b0c:	97fff64d 	bl	82440 <uart_hex64>
   84b10:	90007be0 	adrp	x0, 1000000 <GLOBAL_UART>
   84b14:	9122a000 	add	x0, x0, #0x8a8
   84b18:	97fff606 	bl	82330 <uart_puts>
   84b1c:	b40004b4 	cbz	x20, 84bb0 <verify_executable_address+0x238>
   84b20:	f8737a93 	ldr	x19, [x20, x19, lsl #3]
   84b24:	b0007be0 	adrp	x0, 1001000 <GLOBAL_UART+0x1000>
   84b28:	911e4000 	add	x0, x0, #0x790
   84b2c:	97fff601 	bl	82330 <uart_puts>
   84b30:	aa1303e0 	mov	x0, x19
   84b34:	97fff643 	bl	82440 <uart_hex64>
   84b38:	90007be0 	adrp	x0, 1000000 <GLOBAL_UART>
   84b3c:	9122a000 	add	x0, x0, #0x8a8
   84b40:	97fff5fc 	bl	82330 <uart_puts>
   84b44:	36000413 	tbz	w19, #0, 84bc4 <verify_executable_address+0x24c>
   84b48:	b7a80493 	tbnz	x19, #53, 84bd8 <verify_executable_address+0x260>
   84b4c:	36500513 	tbz	w19, #10, 84bec <verify_executable_address+0x274>
   84b50:	b0007be0 	adrp	x0, 1001000 <GLOBAL_UART+0x1000>
   84b54:	9120c000 	add	x0, x0, #0x830
   84b58:	97fff5f6 	bl	82330 <uart_puts>
   84b5c:	52800020 	mov	w0, #0x1                   	// #1
   84b60:	14000005 	b	84b74 <verify_executable_address+0x1fc>
   84b64:	b0007be0 	adrp	x0, 1001000 <GLOBAL_UART+0x1000>
   84b68:	911b0000 	add	x0, x0, #0x6c0
   84b6c:	97fff5f1 	bl	82330 <uart_puts>
   84b70:	52800000 	mov	w0, #0x0                   	// #0
   84b74:	a94153f3 	ldp	x19, x20, [sp, #16]
   84b78:	a9425bf5 	ldp	x21, x22, [sp, #32]
   84b7c:	a94363f7 	ldp	x23, x24, [sp, #48]
   84b80:	a8c47bfd 	ldp	x29, x30, [sp], #64
   84b84:	d65f03c0 	ret
   84b88:	b0007be0 	adrp	x0, 1001000 <GLOBAL_UART+0x1000>
   84b8c:	911c0000 	add	x0, x0, #0x700
   84b90:	97fff5e8 	bl	82330 <uart_puts>
   84b94:	52800000 	mov	w0, #0x0                   	// #0
   84b98:	17fffff7 	b	84b74 <verify_executable_address+0x1fc>
   84b9c:	b0007be0 	adrp	x0, 1001000 <GLOBAL_UART+0x1000>
   84ba0:	911d0000 	add	x0, x0, #0x740
   84ba4:	97fff5e3 	bl	82330 <uart_puts>
   84ba8:	52800000 	mov	w0, #0x0                   	// #0
   84bac:	17fffff2 	b	84b74 <verify_executable_address+0x1fc>
   84bb0:	b0007be0 	adrp	x0, 1001000 <GLOBAL_UART+0x1000>
   84bb4:	911dc000 	add	x0, x0, #0x770
   84bb8:	97fff5de 	bl	82330 <uart_puts>
   84bbc:	52800000 	mov	w0, #0x0                   	// #0
   84bc0:	17ffffed 	b	84b74 <verify_executable_address+0x1fc>
   84bc4:	b0007be0 	adrp	x0, 1001000 <GLOBAL_UART+0x1000>
   84bc8:	911e8000 	add	x0, x0, #0x7a0
   84bcc:	97fff5d9 	bl	82330 <uart_puts>
   84bd0:	52800000 	mov	w0, #0x0                   	// #0
   84bd4:	17ffffe8 	b	84b74 <verify_executable_address+0x1fc>
   84bd8:	b0007be0 	adrp	x0, 1001000 <GLOBAL_UART+0x1000>
   84bdc:	911f0000 	add	x0, x0, #0x7c0
   84be0:	97fff5d4 	bl	82330 <uart_puts>
   84be4:	52800000 	mov	w0, #0x0                   	// #0
   84be8:	17ffffe3 	b	84b74 <verify_executable_address+0x1fc>
   84bec:	b0007be0 	adrp	x0, 1001000 <GLOBAL_UART+0x1000>
   84bf0:	911fe000 	add	x0, x0, #0x7f8
   84bf4:	97fff5cf 	bl	82330 <uart_puts>
   84bf8:	52800000 	mov	w0, #0x0                   	// #0
   84bfc:	17ffffde 	b	84b74 <verify_executable_address+0x1fc>

0000000000084c00 <get_l3_table_for_addr>:
   84c00:	a9bb7bfd 	stp	x29, x30, [sp, #-80]!
   84c04:	910003fd 	mov	x29, sp
   84c08:	a90153f3 	stp	x19, x20, [sp, #16]
   84c0c:	aa0003f4 	mov	x20, x0
   84c10:	b40003c0 	cbz	x0, 84c88 <get_l3_table_for_addr+0x88>
   84c14:	a9025bf5 	stp	x21, x22, [sp, #32]
   84c18:	a90363f7 	stp	x23, x24, [sp, #48]
   84c1c:	f90023f9 	str	x25, [sp, #64]
   84c20:	aa0103f5 	mov	x21, x1
   84c24:	d35e9838 	ubfx	x24, x1, #30, #9
   84c28:	d3557436 	ubfx	x22, x1, #21, #9
   84c2c:	d367bc37 	ubfx	x23, x1, #39, #9
   84c30:	8b170c19 	add	x25, x0, x23, lsl #3
   84c34:	f8777800 	ldr	x0, [x0, x23, lsl #3]
   84c38:	36000320 	tbz	w0, #0, 84c9c <get_l3_table_for_addr+0x9c>
   84c3c:	f8777a94 	ldr	x20, [x20, x23, lsl #3]
   84c40:	9274ce94 	and	x20, x20, #0xfffffffffffff000
   84c44:	8b180e97 	add	x23, x20, x24, lsl #3
   84c48:	f8787a80 	ldr	x0, [x20, x24, lsl #3]
   84c4c:	360005e0 	tbz	w0, #0, 84d08 <get_l3_table_for_addr+0x108>
   84c50:	f8787a94 	ldr	x20, [x20, x24, lsl #3]
   84c54:	9274ce94 	and	x20, x20, #0xfffffffffffff000
   84c58:	8b160e97 	add	x23, x20, x22, lsl #3
   84c5c:	f8767a80 	ldr	x0, [x20, x22, lsl #3]
   84c60:	360008a0 	tbz	w0, #0, 84d74 <get_l3_table_for_addr+0x174>
   84c64:	f8767a93 	ldr	x19, [x20, x22, lsl #3]
   84c68:	9274ce73 	and	x19, x19, #0xfffffffffffff000
   84c6c:	a9425bf5 	ldp	x21, x22, [sp, #32]
   84c70:	a94363f7 	ldp	x23, x24, [sp, #48]
   84c74:	f94023f9 	ldr	x25, [sp, #64]
   84c78:	aa1303e0 	mov	x0, x19
   84c7c:	a94153f3 	ldp	x19, x20, [sp, #16]
   84c80:	a8c57bfd 	ldp	x29, x30, [sp], #80
   84c84:	d65f03c0 	ret
   84c88:	b0007be0 	adrp	x0, 1001000 <GLOBAL_UART+0x1000>
   84c8c:	9121a000 	add	x0, x0, #0x868
   84c90:	97fff5a8 	bl	82330 <uart_puts>
   84c94:	aa1403f3 	mov	x19, x20
   84c98:	17fffff8 	b	84c78 <get_l3_table_for_addr+0x78>
   84c9c:	b0007be0 	adrp	x0, 1001000 <GLOBAL_UART+0x1000>
   84ca0:	91228000 	add	x0, x0, #0x8a0
   84ca4:	97fff5a3 	bl	82330 <uart_puts>
   84ca8:	aa1503e0 	mov	x0, x21
   84cac:	97fff5e5 	bl	82440 <uart_hex64>
   84cb0:	b0007be0 	adrp	x0, 1001000 <GLOBAL_UART+0x1000>
   84cb4:	91230000 	add	x0, x0, #0x8c0
   84cb8:	97fff59e 	bl	82330 <uart_puts>
   84cbc:	97fff72f 	bl	82978 <alloc_page>
   84cc0:	aa0003f3 	mov	x19, x0
   84cc4:	b4000140 	cbz	x0, 84cec <get_l3_table_for_addr+0xec>
   84cc8:	d2820002 	mov	x2, #0x1000                	// #4096
   84ccc:	52800001 	mov	w1, #0x0                   	// #0
   84cd0:	97fff5fe 	bl	824c8 <memset>
   84cd4:	b2400673 	orr	x19, x19, #0x3
   84cd8:	f8377a93 	str	x19, [x20, x23, lsl #3]
   84cdc:	d50b7a39 	dc	cvac, x25
   84ce0:	d5033b9f 	dsb	ish
   84ce4:	d5033fdf 	isb
   84ce8:	17ffffd5 	b	84c3c <get_l3_table_for_addr+0x3c>
   84cec:	b0007be0 	adrp	x0, 1001000 <GLOBAL_UART+0x1000>
   84cf0:	91238000 	add	x0, x0, #0x8e0
   84cf4:	97fff58f 	bl	82330 <uart_puts>
   84cf8:	a9425bf5 	ldp	x21, x22, [sp, #32]
   84cfc:	a94363f7 	ldp	x23, x24, [sp, #48]
   84d00:	f94023f9 	ldr	x25, [sp, #64]
   84d04:	17ffffdd 	b	84c78 <get_l3_table_for_addr+0x78>
   84d08:	b0007be0 	adrp	x0, 1001000 <GLOBAL_UART+0x1000>
   84d0c:	91244000 	add	x0, x0, #0x910
   84d10:	97fff588 	bl	82330 <uart_puts>
   84d14:	aa1503e0 	mov	x0, x21
   84d18:	97fff5ca 	bl	82440 <uart_hex64>
   84d1c:	b0007be0 	adrp	x0, 1001000 <GLOBAL_UART+0x1000>
   84d20:	9124c000 	add	x0, x0, #0x930
   84d24:	97fff583 	bl	82330 <uart_puts>
   84d28:	97fff714 	bl	82978 <alloc_page>
   84d2c:	aa0003f3 	mov	x19, x0
   84d30:	b4000140 	cbz	x0, 84d58 <get_l3_table_for_addr+0x158>
   84d34:	d2820002 	mov	x2, #0x1000                	// #4096
   84d38:	52800001 	mov	w1, #0x0                   	// #0
   84d3c:	97fff5e3 	bl	824c8 <memset>
   84d40:	b2400673 	orr	x19, x19, #0x3
   84d44:	f8387a93 	str	x19, [x20, x24, lsl #3]
   84d48:	d50b7a37 	dc	cvac, x23
   84d4c:	d5033b9f 	dsb	ish
   84d50:	d5033fdf 	isb
   84d54:	17ffffbf 	b	84c50 <get_l3_table_for_addr+0x50>
   84d58:	b0007be0 	adrp	x0, 1001000 <GLOBAL_UART+0x1000>
   84d5c:	91254000 	add	x0, x0, #0x950
   84d60:	97fff574 	bl	82330 <uart_puts>
   84d64:	a9425bf5 	ldp	x21, x22, [sp, #32]
   84d68:	a94363f7 	ldp	x23, x24, [sp, #48]
   84d6c:	f94023f9 	ldr	x25, [sp, #64]
   84d70:	17ffffc2 	b	84c78 <get_l3_table_for_addr+0x78>
   84d74:	b0007be0 	adrp	x0, 1001000 <GLOBAL_UART+0x1000>
   84d78:	91260000 	add	x0, x0, #0x980
   84d7c:	97fff56d 	bl	82330 <uart_puts>
   84d80:	aa1503e0 	mov	x0, x21
   84d84:	97fff5af 	bl	82440 <uart_hex64>
   84d88:	b0007be0 	adrp	x0, 1001000 <GLOBAL_UART+0x1000>
   84d8c:	91268000 	add	x0, x0, #0x9a0
   84d90:	97fff568 	bl	82330 <uart_puts>
   84d94:	97fff6f9 	bl	82978 <alloc_page>
   84d98:	aa0003f3 	mov	x19, x0
   84d9c:	b4000140 	cbz	x0, 84dc4 <get_l3_table_for_addr+0x1c4>
   84da0:	d2820002 	mov	x2, #0x1000                	// #4096
   84da4:	52800001 	mov	w1, #0x0                   	// #0
   84da8:	97fff5c8 	bl	824c8 <memset>
   84dac:	b2400673 	orr	x19, x19, #0x3
   84db0:	f8367a93 	str	x19, [x20, x22, lsl #3]
   84db4:	d50b7a37 	dc	cvac, x23
   84db8:	d5033b9f 	dsb	ish
   84dbc:	d5033fdf 	isb
   84dc0:	17ffffa9 	b	84c64 <get_l3_table_for_addr+0x64>
   84dc4:	b0007be0 	adrp	x0, 1001000 <GLOBAL_UART+0x1000>
   84dc8:	91270000 	add	x0, x0, #0x9c0
   84dcc:	97fff559 	bl	82330 <uart_puts>
   84dd0:	a9425bf5 	ldp	x21, x22, [sp, #32]
   84dd4:	a94363f7 	ldp	x23, x24, [sp, #48]
   84dd8:	f94023f9 	ldr	x25, [sp, #64]
   84ddc:	17ffffa7 	b	84c78 <get_l3_table_for_addr+0x78>

0000000000084de0 <map_range>:
   84de0:	a9bc7bfd 	stp	x29, x30, [sp, #-64]!
   84de4:	910003fd 	mov	x29, sp
   84de8:	a90153f3 	stp	x19, x20, [sp, #16]
   84dec:	a9025bf5 	stp	x21, x22, [sp, #32]
   84df0:	a90363f7 	stp	x23, x24, [sp, #48]
   84df4:	aa0003f8 	mov	x24, x0
   84df8:	aa0103f3 	mov	x19, x1
   84dfc:	aa0203f5 	mov	x21, x2
   84e00:	aa0403f7 	mov	x23, x4
   84e04:	cb010076 	sub	x22, x3, x1
   84e08:	eb02003f 	cmp	x1, x2
   84e0c:	54000182 	b.cs	84e3c <map_range+0x5c>  // b.hs, b.nlast
   84e10:	8b1302d4 	add	x20, x22, x19
   84e14:	aa1303e1 	mov	x1, x19
   84e18:	aa1803e0 	mov	x0, x24
   84e1c:	97ffff79 	bl	84c00 <get_l3_table_for_addr>
   84e20:	aa1703e3 	mov	x3, x23
   84e24:	aa1403e2 	mov	x2, x20
   84e28:	aa1303e1 	mov	x1, x19
   84e2c:	97fffe22 	bl	846b4 <map_page>
   84e30:	91400673 	add	x19, x19, #0x1, lsl #12
   84e34:	eb1302bf 	cmp	x21, x19
   84e38:	54fffec8 	b.hi	84e10 <map_range+0x30>  // b.pmore
   84e3c:	a94153f3 	ldp	x19, x20, [sp, #16]
   84e40:	a9425bf5 	ldp	x21, x22, [sp, #32]
   84e44:	a94363f7 	ldp	x23, x24, [sp, #48]
   84e48:	a8c47bfd 	ldp	x29, x30, [sp], #64
   84e4c:	d65f03c0 	ret

0000000000084e50 <verify_code_is_executable>:
   84e50:	a9b87bfd 	stp	x29, x30, [sp, #-128]!
   84e54:	910003fd 	mov	x29, sp
   84e58:	a9025bf5 	stp	x21, x22, [sp, #32]
   84e5c:	d2a12000 	mov	x0, #0x9000000             	// #150994944
   84e60:	528008c1 	mov	w1, #0x46                  	// #70
   84e64:	b9000001 	str	w1, [x0]
   84e68:	52800921 	mov	w1, #0x49                  	// #73
   84e6c:	b9000001 	str	w1, [x0]
   84e70:	52800b01 	mov	w1, #0x58                  	// #88
   84e74:	b9000001 	str	w1, [x0]
   84e78:	b9000001 	str	w1, [x0]
   84e7c:	52800741 	mov	w1, #0x3a                  	// #58
   84e80:	b9000001 	str	w1, [x0]
   84e84:	90007c00 	adrp	x0, 1004000 <page_bitmap>
   84e88:	f9402016 	ldr	x22, [x0, #64]
   84e8c:	b4000296 	cbz	x22, 84edc <verify_code_is_executable+0x8c>
   84e90:	a90153f3 	stp	x19, x20, [sp, #16]
   84e94:	90007be0 	adrp	x0, 1000000 <GLOBAL_UART>
   84e98:	91002000 	add	x0, x0, #0x8
   84e9c:	910143e1 	add	x1, sp, #0x50
   84ea0:	ad40741f 	ldp	q31, q29, [x0]
   84ea4:	3dc0081e 	ldr	q30, [x0, #32]
   84ea8:	ad00743f 	stp	q31, q29, [x1]
   84eac:	3d801ffe 	str	q30, [sp, #112]
   84eb0:	9e6603f3 	fmov	x19, d31
   84eb4:	b40004f3 	cbz	x19, 84f50 <verify_code_is_executable+0x100>
   84eb8:	a90363f7 	stp	x23, x24, [sp, #48]
   84ebc:	a9046bf9 	stp	x25, x26, [sp, #64]
   84ec0:	d2800014 	mov	x20, #0x0                   	// #0
   84ec4:	d2a12015 	mov	x21, #0x9000000             	// #150994944
   84ec8:	52800b17 	mov	w23, #0x58                  	// #88
   84ecc:	5280099a 	mov	w26, #0x4c                  	// #76
   84ed0:	52800679 	mov	w25, #0x33                  	// #51
   84ed4:	52800438 	mov	w24, #0x21                  	// #33
   84ed8:	14000010 	b	84f18 <verify_code_is_executable+0xc8>
   84edc:	d2a12000 	mov	x0, #0x9000000             	// #150994944
   84ee0:	52800981 	mov	w1, #0x4c                  	// #76
   84ee4:	b9000001 	str	w1, [x0]
   84ee8:	52800601 	mov	w1, #0x30                  	// #48
   84eec:	b9000001 	str	w1, [x0]
   84ef0:	52800421 	mov	w1, #0x21                  	// #33
   84ef4:	b9000001 	str	w1, [x0]
   84ef8:	14000024 	b	84f88 <verify_code_is_executable+0x138>
   84efc:	b90002ba 	str	w26, [x21]
   84f00:	b90002b9 	str	w25, [x21]
   84f04:	b90002b8 	str	w24, [x21]
   84f08:	91000694 	add	x20, x20, #0x1
   84f0c:	910143e0 	add	x0, sp, #0x50
   84f10:	f8747813 	ldr	x19, [x0, x20, lsl #3]
   84f14:	b40001b3 	cbz	x19, 84f48 <verify_code_is_executable+0xf8>
   84f18:	aa1303e1 	mov	x1, x19
   84f1c:	aa1603e0 	mov	x0, x22
   84f20:	97ffff38 	bl	84c00 <get_l3_table_for_addr>
   84f24:	b4fffec0 	cbz	x0, 84efc <verify_code_is_executable+0xac>
   84f28:	d34c5273 	ubfx	x19, x19, #12, #9
   84f2c:	f8737801 	ldr	x1, [x0, x19, lsl #3]
   84f30:	9249f421 	and	x1, x1, #0xff9fffffffffffff
   84f34:	f8337801 	str	x1, [x0, x19, lsl #3]
   84f38:	b90002b7 	str	w23, [x21]
   84f3c:	1100c280 	add	w0, w20, #0x30
   84f40:	b90002a0 	str	w0, [x21]
   84f44:	17fffff1 	b	84f08 <verify_code_is_executable+0xb8>
   84f48:	a94363f7 	ldp	x23, x24, [sp, #48]
   84f4c:	a9446bf9 	ldp	x25, x26, [sp, #64]
   84f50:	d5033a9f 	dsb	ishst
   84f54:	d508831f 	tlbi	vmalle1is
   84f58:	d5033b9f 	dsb	ish
   84f5c:	d5033fdf 	isb
   84f60:	d2a12000 	mov	x0, #0x9000000             	// #150994944
   84f64:	528009e1 	mov	w1, #0x4f                  	// #79
   84f68:	b9000001 	str	w1, [x0]
   84f6c:	52800961 	mov	w1, #0x4b                  	// #75
   84f70:	b9000001 	str	w1, [x0]
   84f74:	528001a1 	mov	w1, #0xd                   	// #13
   84f78:	b9000001 	str	w1, [x0]
   84f7c:	52800141 	mov	w1, #0xa                   	// #10
   84f80:	b9000001 	str	w1, [x0]
   84f84:	a94153f3 	ldp	x19, x20, [sp, #16]
   84f88:	a9425bf5 	ldp	x21, x22, [sp, #32]
   84f8c:	a8c87bfd 	ldp	x29, x30, [sp], #128
   84f90:	d65f03c0 	ret

0000000000084f94 <map_page_direct>:
   84f94:	a9bc7bfd 	stp	x29, x30, [sp, #-64]!
   84f98:	910003fd 	mov	x29, sp
   84f9c:	a90153f3 	stp	x19, x20, [sp, #16]
   84fa0:	aa0003f4 	mov	x20, x0
   84fa4:	90007c00 	adrp	x0, 1004000 <page_bitmap>
   84fa8:	f9402000 	ldr	x0, [x0, #64]
   84fac:	b4000320 	cbz	x0, 85010 <map_page_direct+0x7c>
   84fb0:	a9025bf5 	stp	x21, x22, [sp, #32]
   84fb4:	a90363f7 	stp	x23, x24, [sp, #48]
   84fb8:	aa0103f7 	mov	x23, x1
   84fbc:	aa0203f5 	mov	x21, x2
   84fc0:	aa0303f8 	mov	x24, x3
   84fc4:	aa1403e1 	mov	x1, x20
   84fc8:	97ffff0e 	bl	84c00 <get_l3_table_for_addr>
   84fcc:	aa0003f6 	mov	x22, x0
   84fd0:	b40002e0 	cbz	x0, 8502c <map_page_direct+0x98>
   84fd4:	d2800013 	mov	x19, #0x0                   	// #0
   84fd8:	b4000255 	cbz	x21, 85020 <map_page_direct+0x8c>
   84fdc:	aa1803e3 	mov	x3, x24
   84fe0:	8b1302e2 	add	x2, x23, x19
   84fe4:	8b130281 	add	x1, x20, x19
   84fe8:	aa1603e0 	mov	x0, x22
   84fec:	97fffdb2 	bl	846b4 <map_page>
   84ff0:	91400673 	add	x19, x19, #0x1, lsl #12
   84ff4:	eb1302bf 	cmp	x21, x19
   84ff8:	54ffff28 	b.hi	84fdc <map_page_direct+0x48>  // b.pmore
   84ffc:	a9425bf5 	ldp	x21, x22, [sp, #32]
   85000:	a94363f7 	ldp	x23, x24, [sp, #48]
   85004:	a94153f3 	ldp	x19, x20, [sp, #16]
   85008:	a8c47bfd 	ldp	x29, x30, [sp], #64
   8500c:	d65f03c0 	ret
   85010:	90007be0 	adrp	x0, 1001000 <GLOBAL_UART+0x1000>
   85014:	9127c000 	add	x0, x0, #0x9f0
   85018:	97fff4c6 	bl	82330 <uart_puts>
   8501c:	17fffffa 	b	85004 <map_page_direct+0x70>
   85020:	a9425bf5 	ldp	x21, x22, [sp, #32]
   85024:	a94363f7 	ldp	x23, x24, [sp, #48]
   85028:	17fffff7 	b	85004 <map_page_direct+0x70>
   8502c:	90007be0 	adrp	x0, 1001000 <GLOBAL_UART+0x1000>
   85030:	9128c000 	add	x0, x0, #0xa30
   85034:	97fff4bf 	bl	82330 <uart_puts>
   85038:	aa1403e0 	mov	x0, x20
   8503c:	97fff501 	bl	82440 <uart_hex64>
   85040:	f0007bc0 	adrp	x0, 1000000 <GLOBAL_UART>
   85044:	9122a000 	add	x0, x0, #0x8a8
   85048:	97fff4ba 	bl	82330 <uart_puts>
   8504c:	a9425bf5 	ldp	x21, x22, [sp, #32]
   85050:	a94363f7 	ldp	x23, x24, [sp, #48]
   85054:	17ffffec 	b	85004 <map_page_direct+0x70>

0000000000085058 <map_page_region>:
   85058:	a9bc7bfd 	stp	x29, x30, [sp, #-64]!
   8505c:	910003fd 	mov	x29, sp
   85060:	a90153f3 	stp	x19, x20, [sp, #16]
   85064:	aa0003f4 	mov	x20, x0
   85068:	f0007be0 	adrp	x0, 1004000 <page_bitmap>
   8506c:	f9402000 	ldr	x0, [x0, #64]
   85070:	b4000320 	cbz	x0, 850d4 <map_page_region+0x7c>
   85074:	a9025bf5 	stp	x21, x22, [sp, #32]
   85078:	a90363f7 	stp	x23, x24, [sp, #48]
   8507c:	aa0103f7 	mov	x23, x1
   85080:	aa0203f5 	mov	x21, x2
   85084:	aa0303f8 	mov	x24, x3
   85088:	aa1403e1 	mov	x1, x20
   8508c:	97fffedd 	bl	84c00 <get_l3_table_for_addr>
   85090:	aa0003f6 	mov	x22, x0
   85094:	b40002e0 	cbz	x0, 850f0 <map_page_region+0x98>
   85098:	d2800013 	mov	x19, #0x0                   	// #0
   8509c:	b4000255 	cbz	x21, 850e4 <map_page_region+0x8c>
   850a0:	aa1803e3 	mov	x3, x24
   850a4:	8b1302e2 	add	x2, x23, x19
   850a8:	8b130281 	add	x1, x20, x19
   850ac:	aa1603e0 	mov	x0, x22
   850b0:	97fffd81 	bl	846b4 <map_page>
   850b4:	91400673 	add	x19, x19, #0x1, lsl #12
   850b8:	eb1302bf 	cmp	x21, x19
   850bc:	54ffff28 	b.hi	850a0 <map_page_region+0x48>  // b.pmore
   850c0:	a9425bf5 	ldp	x21, x22, [sp, #32]
   850c4:	a94363f7 	ldp	x23, x24, [sp, #48]
   850c8:	a94153f3 	ldp	x19, x20, [sp, #16]
   850cc:	a8c47bfd 	ldp	x29, x30, [sp], #64
   850d0:	d65f03c0 	ret
   850d4:	90007be0 	adrp	x0, 1001000 <GLOBAL_UART+0x1000>
   850d8:	9127c000 	add	x0, x0, #0x9f0
   850dc:	97fff495 	bl	82330 <uart_puts>
   850e0:	17fffffa 	b	850c8 <map_page_region+0x70>
   850e4:	a9425bf5 	ldp	x21, x22, [sp, #32]
   850e8:	a94363f7 	ldp	x23, x24, [sp, #48]
   850ec:	17fffff7 	b	850c8 <map_page_region+0x70>
   850f0:	90007be0 	adrp	x0, 1001000 <GLOBAL_UART+0x1000>
   850f4:	9128c000 	add	x0, x0, #0xa30
   850f8:	97fff48e 	bl	82330 <uart_puts>
   850fc:	aa1403e0 	mov	x0, x20
   85100:	97fff4d0 	bl	82440 <uart_hex64>
   85104:	f0007bc0 	adrp	x0, 1000000 <GLOBAL_UART>
   85108:	9122a000 	add	x0, x0, #0x8a8
   8510c:	97fff489 	bl	82330 <uart_puts>
   85110:	a9425bf5 	ldp	x21, x22, [sp, #32]
   85114:	a94363f7 	ldp	x23, x24, [sp, #48]
   85118:	17ffffec 	b	850c8 <map_page_region+0x70>

000000000008511c <init_mmu_after_el1>:
   8511c:	a9bd7bfd 	stp	x29, x30, [sp, #-48]!
   85120:	910003fd 	mov	x29, sp
   85124:	97fff615 	bl	82978 <alloc_page>
   85128:	f0007be1 	adrp	x1, 1004000 <page_bitmap>
   8512c:	f9002020 	str	x0, [x1, #64]
   85130:	b4000b40 	cbz	x0, 85298 <init_mmu_after_el1+0x17c>
   85134:	a90153f3 	stp	x19, x20, [sp, #16]
   85138:	90007be0 	adrp	x0, 1001000 <GLOBAL_UART+0x1000>
   8513c:	912a6000 	add	x0, x0, #0xa98
   85140:	97fff47c 	bl	82330 <uart_puts>
   85144:	f0007bf3 	adrp	x19, 1004000 <page_bitmap>
   85148:	f9402260 	ldr	x0, [x19, #64]
   8514c:	97fff4bd 	bl	82440 <uart_hex64>
   85150:	f0007bc0 	adrp	x0, 1000000 <GLOBAL_UART>
   85154:	9122a000 	add	x0, x0, #0x8a8
   85158:	97fff476 	bl	82330 <uart_puts>
   8515c:	d2820002 	mov	x2, #0x1000                	// #4096
   85160:	52800001 	mov	w1, #0x0                   	// #0
   85164:	f9402260 	ldr	x0, [x19, #64]
   85168:	97fff4d8 	bl	824c8 <memset>
   8516c:	97fff603 	bl	82978 <alloc_page>
   85170:	aa0003f3 	mov	x19, x0
   85174:	b40009a0 	cbz	x0, 852a8 <init_mmu_after_el1+0x18c>
   85178:	a9025bf5 	stp	x21, x22, [sp, #32]
   8517c:	90007be0 	adrp	x0, 1001000 <GLOBAL_UART+0x1000>
   85180:	912bc000 	add	x0, x0, #0xaf0
   85184:	97fff46b 	bl	82330 <uart_puts>
   85188:	aa1303e0 	mov	x0, x19
   8518c:	97fff4ad 	bl	82440 <uart_hex64>
   85190:	f0007bd5 	adrp	x21, 1000000 <GLOBAL_UART>
   85194:	9122a2b5 	add	x21, x21, #0x8a8
   85198:	aa1503e0 	mov	x0, x21
   8519c:	97fff465 	bl	82330 <uart_puts>
   851a0:	d2820002 	mov	x2, #0x1000                	// #4096
   851a4:	52800001 	mov	w1, #0x0                   	// #0
   851a8:	aa1303e0 	mov	x0, x19
   851ac:	97fff4c7 	bl	824c8 <memset>
   851b0:	b2400673 	orr	x19, x19, #0x3
   851b4:	f0007be0 	adrp	x0, 1004000 <page_bitmap>
   851b8:	f9402014 	ldr	x20, [x0, #64]
   851bc:	90007be0 	adrp	x0, 1001000 <GLOBAL_UART+0x1000>
   851c0:	912c6000 	add	x0, x0, #0xb18
   851c4:	97fff45b 	bl	82330 <uart_puts>
   851c8:	aa1303e0 	mov	x0, x19
   851cc:	97fff49d 	bl	82440 <uart_hex64>
   851d0:	90007be0 	adrp	x0, 1001000 <GLOBAL_UART+0x1000>
   851d4:	912ce000 	add	x0, x0, #0xb38
   851d8:	97fff456 	bl	82330 <uart_puts>
   851dc:	aa1403e0 	mov	x0, x20
   851e0:	97fff498 	bl	82440 <uart_hex64>
   851e4:	aa1503e0 	mov	x0, x21
   851e8:	97fff452 	bl	82330 <uart_puts>
   851ec:	d5033b9f 	dsb	ish
   851f0:	f9000293 	str	x19, [x20]
   851f4:	d50b7a34 	dc	cvac, x20
   851f8:	d5033b9f 	dsb	ish
   851fc:	d5033fdf 	isb
   85200:	f9400295 	ldr	x21, [x20]
   85204:	eb15027f 	cmp	x19, x21
   85208:	54000620 	b.eq	852cc <init_mmu_after_el1+0x1b0>  // b.none
   8520c:	90007be0 	adrp	x0, 1001000 <GLOBAL_UART+0x1000>
   85210:	912d2000 	add	x0, x0, #0xb48
   85214:	97fff447 	bl	82330 <uart_puts>
   85218:	aa1503e0 	mov	x0, x21
   8521c:	97fff489 	bl	82440 <uart_hex64>
   85220:	90007be0 	adrp	x0, 1001000 <GLOBAL_UART+0x1000>
   85224:	912e0000 	add	x0, x0, #0xb80
   85228:	97fff442 	bl	82330 <uart_puts>
   8522c:	aa1303e0 	mov	x0, x19
   85230:	97fff484 	bl	82440 <uart_hex64>
   85234:	f0007bc0 	adrp	x0, 1000000 <GLOBAL_UART>
   85238:	9122a000 	add	x0, x0, #0x8a8
   8523c:	97fff43d 	bl	82330 <uart_puts>
   85240:	f9000293 	str	x19, [x20]
   85244:	d50b7e34 	dc	civac, x20
   85248:	d5033f9f 	dsb	sy
   8524c:	d5033fdf 	isb
   85250:	f9400280 	ldr	x0, [x20]
   85254:	eb00027f 	cmp	x19, x0
   85258:	54000320 	b.eq	852bc <init_mmu_after_el1+0x1a0>  // b.none
   8525c:	90007be0 	adrp	x0, 1001000 <GLOBAL_UART+0x1000>
   85260:	912e6000 	add	x0, x0, #0xb98
   85264:	97fff433 	bl	82330 <uart_puts>
   85268:	90007be0 	adrp	x0, 1001000 <GLOBAL_UART+0x1000>
   8526c:	9130a000 	add	x0, x0, #0xc28
   85270:	97fff430 	bl	82330 <uart_puts>
   85274:	aa1303e0 	mov	x0, x19
   85278:	97fff472 	bl	82440 <uart_hex64>
   8527c:	f0007bc0 	adrp	x0, 1000000 <GLOBAL_UART>
   85280:	9122a000 	add	x0, x0, #0x8a8
   85284:	97fff42b 	bl	82330 <uart_puts>
   85288:	a94153f3 	ldp	x19, x20, [sp, #16]
   8528c:	a9425bf5 	ldp	x21, x22, [sp, #32]
   85290:	a8c37bfd 	ldp	x29, x30, [sp], #48
   85294:	d65f03c0 	ret
   85298:	90007be0 	adrp	x0, 1001000 <GLOBAL_UART+0x1000>
   8529c:	9129a000 	add	x0, x0, #0xa68
   852a0:	97fff424 	bl	82330 <uart_puts>
   852a4:	17fffffb 	b	85290 <init_mmu_after_el1+0x174>
   852a8:	90007be0 	adrp	x0, 1001000 <GLOBAL_UART+0x1000>
   852ac:	912b0000 	add	x0, x0, #0xac0
   852b0:	97fff420 	bl	82330 <uart_puts>
   852b4:	a94153f3 	ldp	x19, x20, [sp, #16]
   852b8:	17fffff6 	b	85290 <init_mmu_after_el1+0x174>
   852bc:	90007be0 	adrp	x0, 1001000 <GLOBAL_UART+0x1000>
   852c0:	912f4000 	add	x0, x0, #0xbd0
   852c4:	97fff41b 	bl	82330 <uart_puts>
   852c8:	17ffffe8 	b	85268 <init_mmu_after_el1+0x14c>
   852cc:	90007be0 	adrp	x0, 1001000 <GLOBAL_UART+0x1000>
   852d0:	91300000 	add	x0, x0, #0xc00
   852d4:	97fff417 	bl	82330 <uart_puts>
   852d8:	17ffffe4 	b	85268 <init_mmu_after_el1+0x14c>

00000000000852dc <map_code_section>:
   852dc:	a9bd7bfd 	stp	x29, x30, [sp, #-48]!
   852e0:	910003fd 	mov	x29, sp
   852e4:	a90153f3 	stp	x19, x20, [sp, #16]
   852e8:	a9025bf5 	stp	x21, x22, [sp, #32]
   852ec:	90007be0 	adrp	x0, 1001000 <GLOBAL_UART+0x1000>
   852f0:	91312000 	add	x0, x0, #0xc48
   852f4:	97fff40f 	bl	82330 <uart_puts>
   852f8:	d2a80113 	mov	x19, #0x40080000            	// #1074266112
   852fc:	f0007bf4 	adrp	x20, 1004000 <page_bitmap>
   85300:	90007bf6 	adrp	x22, 1001000 <GLOBAL_UART+0x1000>
   85304:	913222d6 	add	x22, x22, #0xc88
   85308:	f0007bd5 	adrp	x21, 1000000 <GLOBAL_UART>
   8530c:	9122a2b5 	add	x21, x21, #0x8a8
   85310:	1400000b 	b	8533c <map_code_section+0x60>
   85314:	aa1603e0 	mov	x0, x22
   85318:	97fff406 	bl	82330 <uart_puts>
   8531c:	aa1303e0 	mov	x0, x19
   85320:	97fff448 	bl	82440 <uart_hex64>
   85324:	aa1503e0 	mov	x0, x21
   85328:	97fff402 	bl	82330 <uart_puts>
   8532c:	91400673 	add	x19, x19, #0x1, lsl #12
   85330:	d2a80120 	mov	x0, #0x40090000            	// #1074331648
   85334:	eb00027f 	cmp	x19, x0
   85338:	540001c0 	b.eq	85370 <map_code_section+0x94>  // b.none
   8533c:	aa1303e1 	mov	x1, x19
   85340:	f9402280 	ldr	x0, [x20, #64]
   85344:	97fffe2f 	bl	84c00 <get_l3_table_for_addr>
   85348:	b4fffe60 	cbz	x0, 85314 <map_code_section+0x38>
   8534c:	d34c5262 	ubfx	x2, x19, #12, #9
   85350:	8b020c03 	add	x3, x0, x2, lsl #3
   85354:	d280a0e1 	mov	x1, #0x507                 	// #1287
   85358:	aa010261 	orr	x1, x19, x1
   8535c:	f8227801 	str	x1, [x0, x2, lsl #3]
   85360:	d50b7a23 	dc	cvac, x3
   85364:	d5033b9f 	dsb	ish
   85368:	d5033fdf 	isb
   8536c:	17fffff0 	b	8532c <map_code_section+0x50>
   85370:	90007be0 	adrp	x0, 1001000 <GLOBAL_UART+0x1000>
   85374:	91332000 	add	x0, x0, #0xcc8
   85378:	97fff3ee 	bl	82330 <uart_puts>
   8537c:	d5033a9f 	dsb	ishst
   85380:	d508831f 	tlbi	vmalle1is
   85384:	d5033b9f 	dsb	ish
   85388:	d5033fdf 	isb
   8538c:	a94153f3 	ldp	x19, x20, [sp, #16]
   85390:	a9425bf5 	ldp	x21, x22, [sp, #32]
   85394:	a8c37bfd 	ldp	x29, x30, [sp], #48
   85398:	d65f03c0 	ret

000000000008539c <map_kernel_page>:
   8539c:	a9bd7bfd 	stp	x29, x30, [sp, #-48]!
   853a0:	910003fd 	mov	x29, sp
   853a4:	a90153f3 	stp	x19, x20, [sp, #16]
   853a8:	a9025bf5 	stp	x21, x22, [sp, #32]
   853ac:	aa0003f3 	mov	x19, x0
   853b0:	aa0103f5 	mov	x21, x1
   853b4:	aa0203f6 	mov	x22, x2
   853b8:	90007be0 	adrp	x0, 1001000 <GLOBAL_UART+0x1000>
   853bc:	9133c000 	add	x0, x0, #0xcf0
   853c0:	97ffef32 	bl	81088 <debug_print>
   853c4:	d0007bf4 	adrp	x20, 1003000 <GLOBAL_UART+0x3000>
   853c8:	910e2294 	add	x20, x20, #0x388
   853cc:	aa1303e1 	mov	x1, x19
   853d0:	aa1403e0 	mov	x0, x20
   853d4:	97ffef42 	bl	810dc <debug_hex64>
   853d8:	90007be0 	adrp	x0, 1001000 <GLOBAL_UART+0x1000>
   853dc:	91344000 	add	x0, x0, #0xd10
   853e0:	97ffef2a 	bl	81088 <debug_print>
   853e4:	aa1503e1 	mov	x1, x21
   853e8:	aa1403e0 	mov	x0, x20
   853ec:	97ffef3c 	bl	810dc <debug_hex64>
   853f0:	f0007bc0 	adrp	x0, 1000000 <GLOBAL_UART>
   853f4:	9122a000 	add	x0, x0, #0x8a8
   853f8:	97ffef24 	bl	81088 <debug_print>
   853fc:	f0007be0 	adrp	x0, 1004000 <page_bitmap>
   85400:	f9402000 	ldr	x0, [x0, #64]
   85404:	b4000260 	cbz	x0, 85450 <map_kernel_page+0xb4>
   85408:	aa1303e1 	mov	x1, x19
   8540c:	97fffdfd 	bl	84c00 <get_l3_table_for_addr>
   85410:	b4000280 	cbz	x0, 85460 <map_kernel_page+0xc4>
   85414:	aa1603e3 	mov	x3, x22
   85418:	aa1503e2 	mov	x2, x21
   8541c:	aa1303e1 	mov	x1, x19
   85420:	97fffca5 	bl	846b4 <map_page>
   85424:	d5033a9f 	dsb	ishst
   85428:	d508831f 	tlbi	vmalle1is
   8542c:	d5033b9f 	dsb	ish
   85430:	d5033fdf 	isb
   85434:	90007be0 	adrp	x0, 1001000 <GLOBAL_UART+0x1000>
   85438:	91362000 	add	x0, x0, #0xd88
   8543c:	97ffef13 	bl	81088 <debug_print>
   85440:	a94153f3 	ldp	x19, x20, [sp, #16]
   85444:	a9425bf5 	ldp	x21, x22, [sp, #32]
   85448:	a8c37bfd 	ldp	x29, x30, [sp], #48
   8544c:	d65f03c0 	ret
   85450:	90007be0 	adrp	x0, 1001000 <GLOBAL_UART+0x1000>
   85454:	91348000 	add	x0, x0, #0xd20
   85458:	97ffef0c 	bl	81088 <debug_print>
   8545c:	17fffff9 	b	85440 <map_kernel_page+0xa4>
   85460:	90007be0 	adrp	x0, 1001000 <GLOBAL_UART+0x1000>
   85464:	91354000 	add	x0, x0, #0xd50
   85468:	97ffef08 	bl	81088 <debug_print>
   8546c:	17fffff5 	b	85440 <map_kernel_page+0xa4>

0000000000085470 <map_user_task_section>:
   85470:	a9bb7bfd 	stp	x29, x30, [sp, #-80]!
   85474:	910003fd 	mov	x29, sp
   85478:	a90153f3 	stp	x19, x20, [sp, #16]
   8547c:	a90363f7 	stp	x23, x24, [sp, #48]
   85480:	d2a12000 	mov	x0, #0x9000000             	// #150994944
   85484:	52800b61 	mov	w1, #0x5b                  	// #91
   85488:	b9000001 	str	w1, [x0]
   8548c:	52800aa1 	mov	w1, #0x55                  	// #85
   85490:	b9000001 	str	w1, [x0]
   85494:	52800a61 	mov	w1, #0x53                  	// #83
   85498:	b9000001 	str	w1, [x0]
   8549c:	52800a41 	mov	w1, #0x52                  	// #82
   854a0:	b9000001 	str	w1, [x0]
   854a4:	52800ba2 	mov	w2, #0x5d                  	// #93
   854a8:	b9000002 	str	w2, [x0]
   854ac:	f0000013 	adrp	x19, 88000 <create_el0_task+0x110>
   854b0:	91284273 	add	x19, x19, #0xa10
   854b4:	52800822 	mov	w2, #0x41                  	// #65
   854b8:	b9000002 	str	w2, [x0]
   854bc:	52800882 	mov	w2, #0x44                  	// #68
   854c0:	b9000002 	str	w2, [x0]
   854c4:	b9000002 	str	w2, [x0]
   854c8:	b9000001 	str	w1, [x0]
   854cc:	52800741 	mov	w1, #0x3a                  	// #58
   854d0:	b9000001 	str	w1, [x0]
   854d4:	d1002266 	sub	x6, x19, #0x8
   854d8:	aa1303e2 	mov	x2, x19
   854dc:	aa0003e1 	mov	x1, x0
   854e0:	39401c40 	ldrb	w0, [x2, #7]
   854e4:	53047c04 	lsr	w4, w0, #4
   854e8:	12000c00 	and	w0, w0, #0xf
   854ec:	1100c085 	add	w5, w4, #0x30
   854f0:	1100dc83 	add	w3, w4, #0x37
   854f4:	7100249f 	cmp	w4, #0x9
   854f8:	1a858063 	csel	w3, w3, w5, hi	// hi = pmore
   854fc:	b9000023 	str	w3, [x1]
   85500:	1100c004 	add	w4, w0, #0x30
   85504:	1100dc03 	add	w3, w0, #0x37
   85508:	7100241f 	cmp	w0, #0x9
   8550c:	1a848060 	csel	w0, w3, w4, hi	// hi = pmore
   85510:	b9000020 	str	w0, [x1]
   85514:	d1000442 	sub	x2, x2, #0x1
   85518:	eb06005f 	cmp	x2, x6
   8551c:	54fffe21 	b.ne	854e0 <map_user_task_section+0x70>  // b.any
   85520:	d2a12000 	mov	x0, #0x9000000             	// #150994944
   85524:	528001a1 	mov	w1, #0xd                   	// #13
   85528:	b9000001 	str	w1, [x0]
   8552c:	52800141 	mov	w1, #0xa                   	// #10
   85530:	b9000001 	str	w1, [x0]
   85534:	90007be0 	adrp	x0, 1001000 <GLOBAL_UART+0x1000>
   85538:	9136c000 	add	x0, x0, #0xdb0
   8553c:	97ffeed3 	bl	81088 <debug_print>
   85540:	90007be0 	adrp	x0, 1001000 <GLOBAL_UART+0x1000>
   85544:	9137a000 	add	x0, x0, #0xde8
   85548:	97ffeed0 	bl	81088 <debug_print>
   8554c:	aa1303e1 	mov	x1, x19
   85550:	d0007be0 	adrp	x0, 1003000 <GLOBAL_UART+0x3000>
   85554:	910e2000 	add	x0, x0, #0x388
   85558:	97ffeee1 	bl	810dc <debug_hex64>
   8555c:	f0007bc0 	adrp	x0, 1000000 <GLOBAL_UART>
   85560:	9122a000 	add	x0, x0, #0x8a8
   85564:	97ffeec9 	bl	81088 <debug_print>
   85568:	f0007be0 	adrp	x0, 1004000 <page_bitmap>
   8556c:	f9402000 	ldr	x0, [x0, #64]
   85570:	9274ce73 	and	x19, x19, #0xfffffffffffff000
   85574:	91400e78 	add	x24, x19, #0x3, lsl #12
   85578:	b4000500 	cbz	x0, 85618 <map_user_task_section+0x1a8>
   8557c:	a9025bf5 	stp	x21, x22, [sp, #32]
   85580:	f90023f9 	str	x25, [sp, #64]
   85584:	d280a839 	mov	x25, #0x541                 	// #1345
   85588:	90007bf7 	adrp	x23, 1001000 <GLOBAL_UART+0x1000>
   8558c:	913822f7 	add	x23, x23, #0xe08
   85590:	d0007bf4 	adrp	x20, 1003000 <GLOBAL_UART+0x3000>
   85594:	910e2294 	add	x20, x20, #0x388
   85598:	90007bf6 	adrp	x22, 1001000 <GLOBAL_UART+0x1000>
   8559c:	9138c2d6 	add	x22, x22, #0xe30
   855a0:	90007bf5 	adrp	x21, 1001000 <GLOBAL_UART+0x1000>
   855a4:	913902b5 	add	x21, x21, #0xe40
   855a8:	aa1903e2 	mov	x2, x25
   855ac:	aa1303e1 	mov	x1, x19
   855b0:	aa1303e0 	mov	x0, x19
   855b4:	97ffff7a 	bl	8539c <map_kernel_page>
   855b8:	aa1703e0 	mov	x0, x23
   855bc:	97ffeeb3 	bl	81088 <debug_print>
   855c0:	aa1303e1 	mov	x1, x19
   855c4:	aa1403e0 	mov	x0, x20
   855c8:	97ffeec5 	bl	810dc <debug_hex64>
   855cc:	aa1603e0 	mov	x0, x22
   855d0:	97ffeeae 	bl	81088 <debug_print>
   855d4:	aa1303e1 	mov	x1, x19
   855d8:	aa1403e0 	mov	x0, x20
   855dc:	97ffeec0 	bl	810dc <debug_hex64>
   855e0:	aa1503e0 	mov	x0, x21
   855e4:	97ffeea9 	bl	81088 <debug_print>
   855e8:	91400673 	add	x19, x19, #0x1, lsl #12
   855ec:	eb13031f 	cmp	x24, x19
   855f0:	54fffdc1 	b.ne	855a8 <map_user_task_section+0x138>  // b.any
   855f4:	90007be0 	adrp	x0, 1001000 <GLOBAL_UART+0x1000>
   855f8:	9139a000 	add	x0, x0, #0xe68
   855fc:	97ffeea3 	bl	81088 <debug_print>
   85600:	a9425bf5 	ldp	x21, x22, [sp, #32]
   85604:	f94023f9 	ldr	x25, [sp, #64]
   85608:	a94153f3 	ldp	x19, x20, [sp, #16]
   8560c:	a94363f7 	ldp	x23, x24, [sp, #48]
   85610:	a8c57bfd 	ldp	x29, x30, [sp], #80
   85614:	d65f03c0 	ret
   85618:	90007be0 	adrp	x0, 1001000 <GLOBAL_UART+0x1000>
   8561c:	91348000 	add	x0, x0, #0xd20
   85620:	97ffee9a 	bl	81088 <debug_print>
   85624:	17fffff9 	b	85608 <map_user_task_section+0x198>

0000000000085628 <enable_mmu>:
   85628:	a9bd7bfd 	stp	x29, x30, [sp, #-48]!
   8562c:	910003fd 	mov	x29, sp
   85630:	a90153f3 	stp	x19, x20, [sp, #16]
   85634:	f90013f5 	str	x21, [sp, #32]
   85638:	aa0003f4 	mov	x20, x0
   8563c:	90007be0 	adrp	x0, 1001000 <GLOBAL_UART+0x1000>
   85640:	913a8000 	add	x0, x0, #0xea0
   85644:	97fff33b 	bl	82330 <uart_puts>
   85648:	f0007be0 	adrp	x0, 1004000 <page_bitmap>
   8564c:	f9402400 	ldr	x0, [x0, #72]
   85650:	97fff37c 	bl	82440 <uart_hex64>
   85654:	f0007bd3 	adrp	x19, 1000000 <GLOBAL_UART>
   85658:	9122a273 	add	x19, x19, #0x8a8
   8565c:	aa1303e0 	mov	x0, x19
   85660:	97fff334 	bl	82330 <uart_puts>
   85664:	d538c015 	mrs	x21, vbar_el1
   85668:	90007be0 	adrp	x0, 1001000 <GLOBAL_UART+0x1000>
   8566c:	913b6000 	add	x0, x0, #0xed8
   85670:	97fff330 	bl	82330 <uart_puts>
   85674:	aa1503e0 	mov	x0, x21
   85678:	97fff372 	bl	82440 <uart_hex64>
   8567c:	aa1303e0 	mov	x0, x19
   85680:	97fff32c 	bl	82330 <uart_puts>
   85684:	b40000f5 	cbz	x21, 856a0 <enable_mmu+0x78>
   85688:	f0007be0 	adrp	x0, 1004000 <page_bitmap>
   8568c:	f9402413 	ldr	x19, [x0, #72]
   85690:	f100027f 	cmp	x19, #0x0
   85694:	fa551264 	ccmp	x19, x21, #0x4, ne	// ne = any
   85698:	54000360 	b.eq	85704 <enable_mmu+0xdc>  // b.none
   8569c:	14000007 	b	856b8 <enable_mmu+0x90>
   856a0:	f0007be0 	adrp	x0, 1004000 <page_bitmap>
   856a4:	f9402413 	ldr	x19, [x0, #72]
   856a8:	90000020 	adrp	x0, 89000 <vector_table>
   856ac:	91000000 	add	x0, x0, #0x0
   856b0:	f100027f 	cmp	x19, #0x0
   856b4:	9a930013 	csel	x19, x0, x19, eq	// eq = none
   856b8:	90007be0 	adrp	x0, 1001000 <GLOBAL_UART+0x1000>
   856bc:	913be000 	add	x0, x0, #0xef8
   856c0:	97fff31c 	bl	82330 <uart_puts>
   856c4:	aa1303e0 	mov	x0, x19
   856c8:	97fff35e 	bl	82440 <uart_hex64>
   856cc:	90007be0 	adrp	x0, 1001000 <GLOBAL_UART+0x1000>
   856d0:	913c6000 	add	x0, x0, #0xf18
   856d4:	97fff317 	bl	82330 <uart_puts>
   856d8:	d518c013 	msr	vbar_el1, x19
   856dc:	d5033fdf 	isb
   856e0:	d538c013 	mrs	x19, vbar_el1
   856e4:	90007be0 	adrp	x0, 1001000 <GLOBAL_UART+0x1000>
   856e8:	913cc000 	add	x0, x0, #0xf30
   856ec:	97fff311 	bl	82330 <uart_puts>
   856f0:	aa1303e0 	mov	x0, x19
   856f4:	97fff353 	bl	82440 <uart_hex64>
   856f8:	f0007bc0 	adrp	x0, 1000000 <GLOBAL_UART>
   856fc:	9122a000 	add	x0, x0, #0x8a8
   85700:	97fff30c 	bl	82330 <uart_puts>
   85704:	10ff47e9 	adr	x9, 84000 <mmu_continuation_point>
   85708:	d5033b9f 	dsb	ish
   8570c:	d2801fe0 	mov	x0, #0xff                  	// #255
   85710:	f2a00880 	movk	x0, #0x44, lsl #16
   85714:	d518a200 	msr	mair_el1, x0
   85718:	d2800320 	mov	x0, #0x19                  	// #25
   8571c:	f2c00020 	movk	x0, #0x1, lsl #32
   85720:	d5182040 	msr	tcr_el1, x0
   85724:	d5182014 	msr	ttbr0_el1, x20
   85728:	d518203f 	msr	ttbr1_el1, xzr
   8572c:	d5033fdf 	isb
   85730:	d5381000 	mrs	x0, sctlr_el1
   85734:	b2400000 	orr	x0, x0, #0x1
   85738:	d5181000 	msr	sctlr_el1, x0
   8573c:	d5033fdf 	isb
   85740:	d61f0120 	br	x9
   85744:	d28008a0 	mov	x0, #0x45                  	// #69
   85748:	d2920001 	mov	x1, #0x9000                	// #36864
   8574c:	f2a00001 	movk	x1, #0x0, lsl #16
   85750:	b9000020 	str	w0, [x1]
   85754:	14000000 	b	85754 <enable_mmu+0x12c>
   85758:	90007be0 	adrp	x0, 1001000 <GLOBAL_UART+0x1000>
   8575c:	913d4000 	add	x0, x0, #0xf50
   85760:	97fff2f4 	bl	82330 <uart_puts>
   85764:	a94153f3 	ldp	x19, x20, [sp, #16]
   85768:	f94013f5 	ldr	x21, [sp, #32]
   8576c:	a8c37bfd 	ldp	x29, x30, [sp], #48
   85770:	d65f03c0 	ret

0000000000085774 <get_kernel_l3_table>:
   85774:	a9be7bfd 	stp	x29, x30, [sp, #-32]!
   85778:	910003fd 	mov	x29, sp
   8577c:	f9000bf3 	str	x19, [sp, #16]
   85780:	f0007be0 	adrp	x0, 1004000 <page_bitmap>
   85784:	f9402013 	ldr	x19, [x0, #64]
   85788:	b4000153 	cbz	x19, 857b0 <get_kernel_l3_table+0x3c>
   8578c:	d2a02001 	mov	x1, #0x1000000             	// #16777216
   85790:	aa1303e0 	mov	x0, x19
   85794:	97fffd1b 	bl	84c00 <get_l3_table_for_addr>
   85798:	aa0003f3 	mov	x19, x0
   8579c:	b4000120 	cbz	x0, 857c0 <get_kernel_l3_table+0x4c>
   857a0:	aa1303e0 	mov	x0, x19
   857a4:	f9400bf3 	ldr	x19, [sp, #16]
   857a8:	a8c27bfd 	ldp	x29, x30, [sp], #32
   857ac:	d65f03c0 	ret
   857b0:	90007be0 	adrp	x0, 1001000 <GLOBAL_UART+0x1000>
   857b4:	913e6000 	add	x0, x0, #0xf98
   857b8:	97fff2de 	bl	82330 <uart_puts>
   857bc:	17fffff9 	b	857a0 <get_kernel_l3_table+0x2c>
   857c0:	90007be0 	adrp	x0, 1001000 <GLOBAL_UART+0x1000>
   857c4:	913f8000 	add	x0, x0, #0xfe0
   857c8:	97fff2da 	bl	82330 <uart_puts>
   857cc:	17fffff5 	b	857a0 <get_kernel_l3_table+0x2c>

00000000000857d0 <get_kernel_page_table>:
   857d0:	f0007be0 	adrp	x0, 1004000 <page_bitmap>
   857d4:	f9402000 	ldr	x0, [x0, #64]
   857d8:	d65f03c0 	ret

00000000000857dc <init_vmm_impl>:
   857dc:	a9bc7bfd 	stp	x29, x30, [sp, #-64]!
   857e0:	910003fd 	mov	x29, sp
   857e4:	b0007be0 	adrp	x0, 1002000 <GLOBAL_UART+0x2000>
   857e8:	91008000 	add	x0, x0, #0x20
   857ec:	97fff2d1 	bl	82330 <uart_puts>
   857f0:	97fffba0 	bl	84670 <create_page_table>
   857f4:	f0007be1 	adrp	x1, 1004000 <page_bitmap>
   857f8:	f9002020 	str	x0, [x1, #64]
   857fc:	b4000ce0 	cbz	x0, 85998 <init_vmm_impl+0x1bc>
   85800:	a9025bf5 	stp	x21, x22, [sp, #32]
   85804:	b0007be0 	adrp	x0, 1002000 <GLOBAL_UART+0x2000>
   85808:	9101e000 	add	x0, x0, #0x78
   8580c:	97fff2c9 	bl	82330 <uart_puts>
   85810:	f0007be0 	adrp	x0, 1004000 <page_bitmap>
   85814:	f9402000 	ldr	x0, [x0, #64]
   85818:	97fff30a 	bl	82440 <uart_hex64>
   8581c:	f0007bc0 	adrp	x0, 1000000 <GLOBAL_UART>
   85820:	9122a000 	add	x0, x0, #0x8a8
   85824:	97fff2c3 	bl	82330 <uart_puts>
   85828:	97fffb92 	bl	84670 <create_page_table>
   8582c:	aa0003f6 	mov	x22, x0
   85830:	b4000bc0 	cbz	x0, 859a8 <init_vmm_impl+0x1cc>
   85834:	f9001bf7 	str	x23, [sp, #48]
   85838:	b0007be0 	adrp	x0, 1002000 <GLOBAL_UART+0x2000>
   8583c:	9102e000 	add	x0, x0, #0xb8
   85840:	97fff2bc 	bl	82330 <uart_puts>
   85844:	aa1603e0 	mov	x0, x22
   85848:	97fff2fe 	bl	82440 <uart_hex64>
   8584c:	f0007bc0 	adrp	x0, 1000000 <GLOBAL_UART>
   85850:	9122a000 	add	x0, x0, #0x8a8
   85854:	97fff2b7 	bl	82330 <uart_puts>
   85858:	97fffb86 	bl	84670 <create_page_table>
   8585c:	aa0003f7 	mov	x23, x0
   85860:	b4000ae0 	cbz	x0, 859bc <init_vmm_impl+0x1e0>
   85864:	a90153f3 	stp	x19, x20, [sp, #16]
   85868:	b0007be0 	adrp	x0, 1002000 <GLOBAL_UART+0x2000>
   8586c:	9103e000 	add	x0, x0, #0xf8
   85870:	97fff2b0 	bl	82330 <uart_puts>
   85874:	aa1703e0 	mov	x0, x23
   85878:	97fff2f2 	bl	82440 <uart_hex64>
   8587c:	f0007bc0 	adrp	x0, 1000000 <GLOBAL_UART>
   85880:	9122a000 	add	x0, x0, #0x8a8
   85884:	97fff2ab 	bl	82330 <uart_puts>
   85888:	97fffb7a 	bl	84670 <create_page_table>
   8588c:	aa0003f4 	mov	x20, x0
   85890:	b4000a20 	cbz	x0, 859d4 <init_vmm_impl+0x1f8>
   85894:	b0007be0 	adrp	x0, 1002000 <GLOBAL_UART+0x2000>
   85898:	9104e000 	add	x0, x0, #0x138
   8589c:	97fff2a5 	bl	82330 <uart_puts>
   858a0:	aa1403e0 	mov	x0, x20
   858a4:	97fff2e7 	bl	82440 <uart_hex64>
   858a8:	f0007bd3 	adrp	x19, 1000000 <GLOBAL_UART>
   858ac:	9122a273 	add	x19, x19, #0x8a8
   858b0:	aa1303e0 	mov	x0, x19
   858b4:	97fff29f 	bl	82330 <uart_puts>
   858b8:	f0007bf5 	adrp	x21, 1004000 <page_bitmap>
   858bc:	f94022a0 	ldr	x0, [x21, #64]
   858c0:	b24006c1 	orr	x1, x22, #0x3
   858c4:	f9000001 	str	x1, [x0]
   858c8:	b24006e0 	orr	x0, x23, #0x3
   858cc:	f90002c0 	str	x0, [x22]
   858d0:	b2400680 	orr	x0, x20, #0x3
   858d4:	f90002e0 	str	x0, [x23]
   858d8:	b0007be0 	adrp	x0, 1002000 <GLOBAL_UART+0x2000>
   858dc:	91054000 	add	x0, x0, #0x150
   858e0:	97fff294 	bl	82330 <uart_puts>
   858e4:	b0007be0 	adrp	x0, 1002000 <GLOBAL_UART+0x2000>
   858e8:	9105c000 	add	x0, x0, #0x170
   858ec:	97fff291 	bl	82330 <uart_puts>
   858f0:	f94022a0 	ldr	x0, [x21, #64]
   858f4:	f9400000 	ldr	x0, [x0]
   858f8:	97fff2d2 	bl	82440 <uart_hex64>
   858fc:	aa1303e0 	mov	x0, x19
   85900:	97fff28c 	bl	82330 <uart_puts>
   85904:	b0007be0 	adrp	x0, 1002000 <GLOBAL_UART+0x2000>
   85908:	91060000 	add	x0, x0, #0x180
   8590c:	97fff289 	bl	82330 <uart_puts>
   85910:	f94002c0 	ldr	x0, [x22]
   85914:	97fff2cb 	bl	82440 <uart_hex64>
   85918:	aa1303e0 	mov	x0, x19
   8591c:	97fff285 	bl	82330 <uart_puts>
   85920:	b0007be0 	adrp	x0, 1002000 <GLOBAL_UART+0x2000>
   85924:	91064000 	add	x0, x0, #0x190
   85928:	97fff282 	bl	82330 <uart_puts>
   8592c:	f94002e0 	ldr	x0, [x23]
   85930:	97fff2c4 	bl	82440 <uart_hex64>
   85934:	aa1303e0 	mov	x0, x19
   85938:	97fff27e 	bl	82330 <uart_puts>
   8593c:	d2800013 	mov	x19, #0x0                   	// #0
   85940:	d280a035 	mov	x21, #0x501                 	// #1281
   85944:	aa1503e3 	mov	x3, x21
   85948:	aa1303e2 	mov	x2, x19
   8594c:	aa1303e1 	mov	x1, x19
   85950:	aa1403e0 	mov	x0, x20
   85954:	97fffb58 	bl	846b4 <map_page>
   85958:	91400673 	add	x19, x19, #0x1, lsl #12
   8595c:	f144027f 	cmp	x19, #0x100, lsl #12
   85960:	54ffff21 	b.ne	85944 <init_vmm_impl+0x168>  // b.any
   85964:	d280a0a3 	mov	x3, #0x505                 	// #1285
   85968:	d2a12002 	mov	x2, #0x9000000             	// #150994944
   8596c:	aa0203e1 	mov	x1, x2
   85970:	aa1403e0 	mov	x0, x20
   85974:	97fffb50 	bl	846b4 <map_page>
   85978:	b0007be0 	adrp	x0, 1002000 <GLOBAL_UART+0x2000>
   8597c:	91068000 	add	x0, x0, #0x1a0
   85980:	97fff26c 	bl	82330 <uart_puts>
   85984:	a94153f3 	ldp	x19, x20, [sp, #16]
   85988:	a9425bf5 	ldp	x21, x22, [sp, #32]
   8598c:	f9401bf7 	ldr	x23, [sp, #48]
   85990:	a8c47bfd 	ldp	x29, x30, [sp], #64
   85994:	d65f03c0 	ret
   85998:	b0007be0 	adrp	x0, 1002000 <GLOBAL_UART+0x2000>
   8599c:	91014000 	add	x0, x0, #0x50
   859a0:	97fff264 	bl	82330 <uart_puts>
   859a4:	17fffffb 	b	85990 <init_vmm_impl+0x1b4>
   859a8:	b0007be0 	adrp	x0, 1002000 <GLOBAL_UART+0x2000>
   859ac:	91024000 	add	x0, x0, #0x90
   859b0:	97fff260 	bl	82330 <uart_puts>
   859b4:	a9425bf5 	ldp	x21, x22, [sp, #32]
   859b8:	17fffff6 	b	85990 <init_vmm_impl+0x1b4>
   859bc:	b0007be0 	adrp	x0, 1002000 <GLOBAL_UART+0x2000>
   859c0:	91034000 	add	x0, x0, #0xd0
   859c4:	97fff25b 	bl	82330 <uart_puts>
   859c8:	a9425bf5 	ldp	x21, x22, [sp, #32]
   859cc:	f9401bf7 	ldr	x23, [sp, #48]
   859d0:	17fffff0 	b	85990 <init_vmm_impl+0x1b4>
   859d4:	b0007be0 	adrp	x0, 1002000 <GLOBAL_UART+0x2000>
   859d8:	91044000 	add	x0, x0, #0x110
   859dc:	97fff255 	bl	82330 <uart_puts>
   859e0:	a94153f3 	ldp	x19, x20, [sp, #16]
   859e4:	a9425bf5 	ldp	x21, x22, [sp, #32]
   859e8:	f9401bf7 	ldr	x23, [sp, #48]
   859ec:	17ffffe9 	b	85990 <init_vmm_impl+0x1b4>

00000000000859f0 <get_pte>:
   859f0:	aa0003e1 	mov	x1, x0
   859f4:	f0007be0 	adrp	x0, 1004000 <page_bitmap>
   859f8:	f9402000 	ldr	x0, [x0, #64]
   859fc:	d367bc22 	ubfx	x2, x1, #39, #9
   85a00:	b40003a0 	cbz	x0, 85a74 <get_pte+0x84>
   85a04:	f8627802 	ldr	x2, [x0, x2, lsl #3]
   85a08:	92400040 	and	x0, x2, #0x1
   85a0c:	36000362 	tbz	w2, #0, 85a78 <get_pte+0x88>
   85a10:	d2800000 	mov	x0, #0x0                   	// #0
   85a14:	f13ffc5f 	cmp	x2, #0xfff
   85a18:	54000309 	b.ls	85a78 <get_pte+0x88>  // b.plast
   85a1c:	9274cc42 	and	x2, x2, #0xfffffffffffff000
   85a20:	d35e9820 	ubfx	x0, x1, #30, #9
   85a24:	f8607842 	ldr	x2, [x2, x0, lsl #3]
   85a28:	92400040 	and	x0, x2, #0x1
   85a2c:	36000262 	tbz	w2, #0, 85a78 <get_pte+0x88>
   85a30:	d2800000 	mov	x0, #0x0                   	// #0
   85a34:	f13ffc5f 	cmp	x2, #0xfff
   85a38:	54000209 	b.ls	85a78 <get_pte+0x88>  // b.plast
   85a3c:	9274cc42 	and	x2, x2, #0xfffffffffffff000
   85a40:	d3557420 	ubfx	x0, x1, #21, #9
   85a44:	f8607842 	ldr	x2, [x2, x0, lsl #3]
   85a48:	92400040 	and	x0, x2, #0x1
   85a4c:	36000162 	tbz	w2, #0, 85a78 <get_pte+0x88>
   85a50:	d2800000 	mov	x0, #0x0                   	// #0
   85a54:	f13ffc5f 	cmp	x2, #0xfff
   85a58:	54000109 	b.ls	85a78 <get_pte+0x88>  // b.plast
   85a5c:	9274cc42 	and	x2, x2, #0xfffffffffffff000
   85a60:	d34c5021 	ubfx	x1, x1, #12, #9
   85a64:	f8617841 	ldr	x1, [x2, x1, lsl #3]
   85a68:	f2400020 	ands	x0, x1, #0x1
   85a6c:	9a810000 	csel	x0, x0, x1, eq	// eq = none
   85a70:	14000002 	b	85a78 <get_pte+0x88>
   85a74:	d2800000 	mov	x0, #0x0                   	// #0
   85a78:	d65f03c0 	ret

0000000000085a7c <ensure_vbar_after_mmu>:
   85a7c:	a9bd7bfd 	stp	x29, x30, [sp, #-48]!
   85a80:	910003fd 	mov	x29, sp
   85a84:	a90153f3 	stp	x19, x20, [sp, #16]
   85a88:	f90013f5 	str	x21, [sp, #32]
   85a8c:	b0007be0 	adrp	x0, 1002000 <GLOBAL_UART+0x2000>
   85a90:	91072000 	add	x0, x0, #0x1c8
   85a94:	97fff227 	bl	82330 <uart_puts>
   85a98:	d538c015 	mrs	x21, vbar_el1
   85a9c:	b0007be0 	adrp	x0, 1002000 <GLOBAL_UART+0x2000>
   85aa0:	9107e000 	add	x0, x0, #0x1f8
   85aa4:	97fff223 	bl	82330 <uart_puts>
   85aa8:	aa1503e0 	mov	x0, x21
   85aac:	97fff265 	bl	82440 <uart_hex64>
   85ab0:	f0007bd4 	adrp	x20, 1000000 <GLOBAL_UART>
   85ab4:	9122a294 	add	x20, x20, #0x8a8
   85ab8:	aa1403e0 	mov	x0, x20
   85abc:	97fff21d 	bl	82330 <uart_puts>
   85ac0:	b0007be0 	adrp	x0, 1002000 <GLOBAL_UART+0x2000>
   85ac4:	9108a000 	add	x0, x0, #0x228
   85ac8:	97fff21a 	bl	82330 <uart_puts>
   85acc:	f0007bf3 	adrp	x19, 1004000 <page_bitmap>
   85ad0:	91010273 	add	x19, x19, #0x40
   85ad4:	f9400660 	ldr	x0, [x19, #8]
   85ad8:	97fff25a 	bl	82440 <uart_hex64>
   85adc:	aa1403e0 	mov	x0, x20
   85ae0:	97fff214 	bl	82330 <uart_puts>
   85ae4:	f9400660 	ldr	x0, [x19, #8]
   85ae8:	b4000220 	cbz	x0, 85b2c <ensure_vbar_after_mmu+0xb0>
   85aec:	97ffffc1 	bl	859f0 <get_pte>
   85af0:	aa0003f3 	mov	x19, x0
   85af4:	b0007be0 	adrp	x0, 1002000 <GLOBAL_UART+0x2000>
   85af8:	910a6000 	add	x0, x0, #0x298
   85afc:	97fff20d 	bl	82330 <uart_puts>
   85b00:	aa1303e0 	mov	x0, x19
   85b04:	97fff24f 	bl	82440 <uart_hex64>
   85b08:	36000233 	tbz	w19, #0, 85b4c <ensure_vbar_after_mmu+0xd0>
   85b0c:	b0007be0 	adrp	x0, 1002000 <GLOBAL_UART+0x2000>
   85b10:	910ae000 	add	x0, x0, #0x2b8
   85b14:	97fff207 	bl	82330 <uart_puts>
   85b18:	b6a80133 	tbz	x19, #53, 85b3c <ensure_vbar_after_mmu+0xc0>
   85b1c:	b0007be0 	adrp	x0, 1002000 <GLOBAL_UART+0x2000>
   85b20:	910b2000 	add	x0, x0, #0x2c8
   85b24:	97fff203 	bl	82330 <uart_puts>
   85b28:	1400000f 	b	85b64 <ensure_vbar_after_mmu+0xe8>
   85b2c:	b0007be0 	adrp	x0, 1002000 <GLOBAL_UART+0x2000>
   85b30:	91094000 	add	x0, x0, #0x250
   85b34:	97fff1ff 	bl	82330 <uart_puts>
   85b38:	1400002f 	b	85bf4 <ensure_vbar_after_mmu+0x178>
   85b3c:	b0007be0 	adrp	x0, 1002000 <GLOBAL_UART+0x2000>
   85b40:	910c4000 	add	x0, x0, #0x310
   85b44:	97fff1fb 	bl	82330 <uart_puts>
   85b48:	14000007 	b	85b64 <ensure_vbar_after_mmu+0xe8>
   85b4c:	b0007be0 	adrp	x0, 1002000 <GLOBAL_UART+0x2000>
   85b50:	910d6000 	add	x0, x0, #0x358
   85b54:	97fff1f7 	bl	82330 <uart_puts>
   85b58:	b0007be0 	adrp	x0, 1002000 <GLOBAL_UART+0x2000>
   85b5c:	910de000 	add	x0, x0, #0x378
   85b60:	97fff1f4 	bl	82330 <uart_puts>
   85b64:	b40000b5 	cbz	x21, 85b78 <ensure_vbar_after_mmu+0xfc>
   85b68:	f0007be0 	adrp	x0, 1004000 <page_bitmap>
   85b6c:	f9402400 	ldr	x0, [x0, #72]
   85b70:	eb15001f 	cmp	x0, x21
   85b74:	54000500 	b.eq	85c14 <ensure_vbar_after_mmu+0x198>  // b.none
   85b78:	b0007be0 	adrp	x0, 1002000 <GLOBAL_UART+0x2000>
   85b7c:	910f0000 	add	x0, x0, #0x3c0
   85b80:	97fff1ec 	bl	82330 <uart_puts>
   85b84:	f0007bf3 	adrp	x19, 1004000 <page_bitmap>
   85b88:	91010273 	add	x19, x19, #0x40
   85b8c:	f9400660 	ldr	x0, [x19, #8]
   85b90:	97fff22c 	bl	82440 <uart_hex64>
   85b94:	f0007bc0 	adrp	x0, 1000000 <GLOBAL_UART>
   85b98:	9122a000 	add	x0, x0, #0x8a8
   85b9c:	97fff1e5 	bl	82330 <uart_puts>
   85ba0:	f9400660 	ldr	x0, [x19, #8]
   85ba4:	d518c000 	msr	vbar_el1, x0
   85ba8:	d5033fdf 	isb
   85bac:	d538c014 	mrs	x20, vbar_el1
   85bb0:	b0007be0 	adrp	x0, 1002000 <GLOBAL_UART+0x2000>
   85bb4:	91102000 	add	x0, x0, #0x408
   85bb8:	97fff1de 	bl	82330 <uart_puts>
   85bbc:	aa1403e0 	mov	x0, x20
   85bc0:	97fff220 	bl	82440 <uart_hex64>
   85bc4:	f9400660 	ldr	x0, [x19, #8]
   85bc8:	eb14001f 	cmp	x0, x20
   85bcc:	540001c0 	b.eq	85c04 <ensure_vbar_after_mmu+0x188>  // b.none
   85bd0:	b0007be0 	adrp	x0, 1002000 <GLOBAL_UART+0x2000>
   85bd4:	91110000 	add	x0, x0, #0x440
   85bd8:	97fff1d6 	bl	82330 <uart_puts>
   85bdc:	b0007be0 	adrp	x0, 1002000 <GLOBAL_UART+0x2000>
   85be0:	91118000 	add	x0, x0, #0x460
   85be4:	97fff1d3 	bl	82330 <uart_puts>
   85be8:	b0007be0 	adrp	x0, 1002000 <GLOBAL_UART+0x2000>
   85bec:	91138000 	add	x0, x0, #0x4e0
   85bf0:	97fff1d0 	bl	82330 <uart_puts>
   85bf4:	a94153f3 	ldp	x19, x20, [sp, #16]
   85bf8:	f94013f5 	ldr	x21, [sp, #32]
   85bfc:	a8c37bfd 	ldp	x29, x30, [sp], #48
   85c00:	d65f03c0 	ret
   85c04:	b0007be0 	adrp	x0, 1002000 <GLOBAL_UART+0x2000>
   85c08:	9110c000 	add	x0, x0, #0x430
   85c0c:	97fff1c9 	bl	82330 <uart_puts>
   85c10:	17fffff6 	b	85be8 <ensure_vbar_after_mmu+0x16c>
   85c14:	b0007be0 	adrp	x0, 1002000 <GLOBAL_UART+0x2000>
   85c18:	91128000 	add	x0, x0, #0x4a0
   85c1c:	97fff1c5 	bl	82330 <uart_puts>
   85c20:	17fffff2 	b	85be8 <ensure_vbar_after_mmu+0x16c>

0000000000085c24 <verify_page_mapping>:
   85c24:	a9be7bfd 	stp	x29, x30, [sp, #-32]!
   85c28:	910003fd 	mov	x29, sp
   85c2c:	f9000bf3 	str	x19, [sp, #16]
   85c30:	aa0003f3 	mov	x19, x0
   85c34:	b0007be0 	adrp	x0, 1002000 <GLOBAL_UART+0x2000>
   85c38:	91146000 	add	x0, x0, #0x518
   85c3c:	97fff1bd 	bl	82330 <uart_puts>
   85c40:	aa1303e0 	mov	x0, x19
   85c44:	97fff1ff 	bl	82440 <uart_hex64>
   85c48:	f0007bc0 	adrp	x0, 1000000 <GLOBAL_UART>
   85c4c:	9123e000 	add	x0, x0, #0x8f8
   85c50:	97fff1b8 	bl	82330 <uart_puts>
   85c54:	aa1303e0 	mov	x0, x19
   85c58:	97ffff66 	bl	859f0 <get_pte>
   85c5c:	36000260 	tbz	w0, #0, 85ca8 <verify_page_mapping+0x84>
   85c60:	aa0003f3 	mov	x19, x0
   85c64:	b0007be0 	adrp	x0, 1002000 <GLOBAL_UART+0x2000>
   85c68:	91150000 	add	x0, x0, #0x540
   85c6c:	97fff1b1 	bl	82330 <uart_puts>
   85c70:	aa1303e0 	mov	x0, x19
   85c74:	97fff1f3 	bl	82440 <uart_hex64>
   85c78:	f0007bc0 	adrp	x0, 1000000 <GLOBAL_UART>
   85c7c:	9122a000 	add	x0, x0, #0x8a8
   85c80:	97fff1ac 	bl	82330 <uart_puts>
   85c84:	b7a800b3 	tbnz	x19, #53, 85c98 <verify_page_mapping+0x74>
   85c88:	b0007be0 	adrp	x0, 1002000 <GLOBAL_UART+0x2000>
   85c8c:	91158000 	add	x0, x0, #0x560
   85c90:	97fff1a8 	bl	82330 <uart_puts>
   85c94:	14000008 	b	85cb4 <verify_page_mapping+0x90>
   85c98:	b0007be0 	adrp	x0, 1002000 <GLOBAL_UART+0x2000>
   85c9c:	91164000 	add	x0, x0, #0x590
   85ca0:	97fff1a4 	bl	82330 <uart_puts>
   85ca4:	14000004 	b	85cb4 <verify_page_mapping+0x90>
   85ca8:	b0007be0 	adrp	x0, 1002000 <GLOBAL_UART+0x2000>
   85cac:	91170000 	add	x0, x0, #0x5c0
   85cb0:	97fff1a0 	bl	82330 <uart_puts>
   85cb4:	f9400bf3 	ldr	x19, [sp, #16]
   85cb8:	a8c27bfd 	ldp	x29, x30, [sp], #32
   85cbc:	d65f03c0 	ret

0000000000085cc0 <map_vector_table>:
   85cc0:	a9bd7bfd 	stp	x29, x30, [sp, #-48]!
   85cc4:	910003fd 	mov	x29, sp
   85cc8:	a90153f3 	stp	x19, x20, [sp, #16]
   85ccc:	f90013f5 	str	x21, [sp, #32]
   85cd0:	90000020 	adrp	x0, 89000 <vector_table>
   85cd4:	f9400013 	ldr	x19, [x0]
   85cd8:	d538c015 	mrs	x21, vbar_el1
   85cdc:	b0007be0 	adrp	x0, 1002000 <GLOBAL_UART+0x2000>
   85ce0:	9117c000 	add	x0, x0, #0x5f0
   85ce4:	97fff193 	bl	82330 <uart_puts>
   85ce8:	aa1303e0 	mov	x0, x19
   85cec:	97fff1d5 	bl	82440 <uart_hex64>
   85cf0:	b0007be0 	adrp	x0, 1002000 <GLOBAL_UART+0x2000>
   85cf4:	91186000 	add	x0, x0, #0x618
   85cf8:	97fff18e 	bl	82330 <uart_puts>
   85cfc:	aa1503e0 	mov	x0, x21
   85d00:	97fff1d0 	bl	82440 <uart_hex64>
   85d04:	f0007bd3 	adrp	x19, 1000000 <GLOBAL_UART>
   85d08:	9122a273 	add	x19, x19, #0x8a8
   85d0c:	aa1303e0 	mov	x0, x19
   85d10:	97fff188 	bl	82330 <uart_puts>
   85d14:	b0007be0 	adrp	x0, 1002000 <GLOBAL_UART+0x2000>
   85d18:	9118e000 	add	x0, x0, #0x638
   85d1c:	97fff185 	bl	82330 <uart_puts>
   85d20:	d2920014 	mov	x20, #0x9000                	// #36864
   85d24:	f2a00114 	movk	x20, #0x8, lsl #16
   85d28:	d280a022 	mov	x2, #0x501                 	// #1281
   85d2c:	aa1403e1 	mov	x1, x20
   85d30:	d2a02000 	mov	x0, #0x1000000             	// #16777216
   85d34:	97fffd9a 	bl	8539c <map_kernel_page>
   85d38:	d280a022 	mov	x2, #0x501                 	// #1281
   85d3c:	91400681 	add	x1, x20, #0x1, lsl #12
   85d40:	917de280 	add	x0, x20, #0xf78, lsl #12
   85d44:	97fffd96 	bl	8539c <map_kernel_page>
   85d48:	d2a02014 	mov	x20, #0x1000000             	// #16777216
   85d4c:	f0007be0 	adrp	x0, 1004000 <page_bitmap>
   85d50:	f9002414 	str	x20, [x0, #72]
   85d54:	b0007be0 	adrp	x0, 1002000 <GLOBAL_UART+0x2000>
   85d58:	911a6000 	add	x0, x0, #0x698
   85d5c:	97fff175 	bl	82330 <uart_puts>
   85d60:	aa1403e0 	mov	x0, x20
   85d64:	97ffffb0 	bl	85c24 <verify_page_mapping>
   85d68:	b0007be0 	adrp	x0, 1002000 <GLOBAL_UART+0x2000>
   85d6c:	911b8000 	add	x0, x0, #0x6e0
   85d70:	97fff170 	bl	82330 <uart_puts>
   85d74:	b9400294 	ldr	w20, [x20]
   85d78:	b0007be0 	adrp	x0, 1002000 <GLOBAL_UART+0x2000>
   85d7c:	911c6000 	add	x0, x0, #0x718
   85d80:	97fff16c 	bl	82330 <uart_puts>
   85d84:	2a1403e0 	mov	w0, w20
   85d88:	97fff1ae 	bl	82440 <uart_hex64>
   85d8c:	aa1303e0 	mov	x0, x19
   85d90:	97fff168 	bl	82330 <uart_puts>
   85d94:	f267fabf 	tst	x21, #0xfffffffffeffffff
   85d98:	540000a1 	b.ne	85dac <map_vector_table+0xec>  // b.any
   85d9c:	a94153f3 	ldp	x19, x20, [sp, #16]
   85da0:	f94013f5 	ldr	x21, [sp, #32]
   85da4:	a8c37bfd 	ldp	x29, x30, [sp], #48
   85da8:	d65f03c0 	ret
   85dac:	b0007be0 	adrp	x0, 1002000 <GLOBAL_UART+0x2000>
   85db0:	911d0000 	add	x0, x0, #0x740
   85db4:	97fff15f 	bl	82330 <uart_puts>
   85db8:	aa1503e0 	mov	x0, x21
   85dbc:	97fff1a1 	bl	82440 <uart_hex64>
   85dc0:	b0007be0 	adrp	x0, 1002000 <GLOBAL_UART+0x2000>
   85dc4:	911d8000 	add	x0, x0, #0x760
   85dc8:	97fff15a 	bl	82330 <uart_puts>
   85dcc:	d2a02000 	mov	x0, #0x1000000             	// #16777216
   85dd0:	d518c000 	msr	vbar_el1, x0
   85dd4:	d5033fdf 	isb
   85dd8:	d538c013 	mrs	x19, vbar_el1
   85ddc:	b0007be0 	adrp	x0, 1002000 <GLOBAL_UART+0x2000>
   85de0:	911dc000 	add	x0, x0, #0x770
   85de4:	97fff153 	bl	82330 <uart_puts>
   85de8:	aa1303e0 	mov	x0, x19
   85dec:	97fff195 	bl	82440 <uart_hex64>
   85df0:	f0007bc0 	adrp	x0, 1000000 <GLOBAL_UART>
   85df4:	9122a000 	add	x0, x0, #0x8a8
   85df8:	97fff14e 	bl	82330 <uart_puts>
   85dfc:	17ffffe8 	b	85d9c <map_vector_table+0xdc>

0000000000085e00 <map_mmu_transition_code>:
   85e00:	a9be7bfd 	stp	x29, x30, [sp, #-32]!
   85e04:	910003fd 	mov	x29, sp
   85e08:	a90153f3 	stp	x19, x20, [sp, #16]
   85e0c:	f0fffff4 	adrp	x20, 84000 <mmu_continuation_point>
   85e10:	91000294 	add	x20, x20, #0x0
   85e14:	9274ce93 	and	x19, x20, #0xfffffffffffff000
   85e18:	b0007be0 	adrp	x0, 1002000 <GLOBAL_UART+0x2000>
   85e1c:	911e2000 	add	x0, x0, #0x788
   85e20:	97fff144 	bl	82330 <uart_puts>
   85e24:	b0007be0 	adrp	x0, 1002000 <GLOBAL_UART+0x2000>
   85e28:	911f4000 	add	x0, x0, #0x7d0
   85e2c:	97fff141 	bl	82330 <uart_puts>
   85e30:	aa1403e0 	mov	x0, x20
   85e34:	97fff183 	bl	82440 <uart_hex64>
   85e38:	f0007bc0 	adrp	x0, 1000000 <GLOBAL_UART>
   85e3c:	9122a000 	add	x0, x0, #0x8a8
   85e40:	97fff13c 	bl	82330 <uart_puts>
   85e44:	d280a022 	mov	x2, #0x501                 	// #1281
   85e48:	aa1303e1 	mov	x1, x19
   85e4c:	aa1303e0 	mov	x0, x19
   85e50:	97fffd53 	bl	8539c <map_kernel_page>
   85e54:	91400660 	add	x0, x19, #0x1, lsl #12
   85e58:	d280a022 	mov	x2, #0x501                 	// #1281
   85e5c:	aa0003e1 	mov	x1, x0
   85e60:	97fffd4f 	bl	8539c <map_kernel_page>
   85e64:	b0007be0 	adrp	x0, 1002000 <GLOBAL_UART+0x2000>
   85e68:	91200000 	add	x0, x0, #0x800
   85e6c:	97fff131 	bl	82330 <uart_puts>
   85e70:	aa1403e0 	mov	x0, x20
   85e74:	97ffff6c 	bl	85c24 <verify_page_mapping>
   85e78:	a94153f3 	ldp	x19, x20, [sp, #16]
   85e7c:	a8c27bfd 	ldp	x29, x30, [sp], #32
   85e80:	d65f03c0 	ret

0000000000085e84 <init_vmm_wrapper>:
   85e84:	a9bf7bfd 	stp	x29, x30, [sp, #-16]!
   85e88:	910003fd 	mov	x29, sp
   85e8c:	97fffe54 	bl	857dc <init_vmm_impl>
   85e90:	97ffffdc 	bl	85e00 <map_mmu_transition_code>
   85e94:	97ffff8b 	bl	85cc0 <map_vector_table>
   85e98:	f0007be0 	adrp	x0, 1004000 <page_bitmap>
   85e9c:	f9402000 	ldr	x0, [x0, #64]
   85ea0:	97fffde2 	bl	85628 <enable_mmu>
   85ea4:	a8c17bfd 	ldp	x29, x30, [sp], #16
   85ea8:	d65f03c0 	ret

0000000000085eac <init_vmm>:
   85eac:	a9bd7bfd 	stp	x29, x30, [sp, #-48]!
   85eb0:	910003fd 	mov	x29, sp
   85eb4:	b0007be0 	adrp	x0, 1002000 <GLOBAL_UART+0x2000>
   85eb8:	9120e000 	add	x0, x0, #0x838
   85ebc:	97fff11d 	bl	82330 <uart_puts>
   85ec0:	97fff9ec 	bl	84670 <create_page_table>
   85ec4:	f0007be1 	adrp	x1, 1004000 <page_bitmap>
   85ec8:	f9002020 	str	x0, [x1, #64]
   85ecc:	b40005c0 	cbz	x0, 85f84 <init_vmm+0xd8>
   85ed0:	a90153f3 	stp	x19, x20, [sp, #16]
   85ed4:	f90013f5 	str	x21, [sp, #32]
   85ed8:	d280a0a2 	mov	x2, #0x505                 	// #1285
   85edc:	d2a12001 	mov	x1, #0x9000000             	// #150994944
   85ee0:	aa0103e0 	mov	x0, x1
   85ee4:	97fffd2e 	bl	8539c <map_kernel_page>
   85ee8:	d2a00113 	mov	x19, #0x80000               	// #524288
   85eec:	d280a034 	mov	x20, #0x501                 	// #1281
   85ef0:	aa1403e2 	mov	x2, x20
   85ef4:	aa1303e1 	mov	x1, x19
   85ef8:	aa1303e0 	mov	x0, x19
   85efc:	97fffd28 	bl	8539c <map_kernel_page>
   85f00:	91400673 	add	x19, x19, #0x1, lsl #12
   85f04:	f144027f 	cmp	x19, #0x100, lsl #12
   85f08:	54ffff41 	b.ne	85ef0 <init_vmm+0x44>  // b.any
   85f0c:	d280a034 	mov	x20, #0x501                 	// #1281
   85f10:	aa1403e2 	mov	x2, x20
   85f14:	aa1303e1 	mov	x1, x19
   85f18:	aa1303e0 	mov	x0, x19
   85f1c:	97fffd20 	bl	8539c <map_kernel_page>
   85f20:	91400673 	add	x19, x19, #0x1, lsl #12
   85f24:	f148027f 	cmp	x19, #0x200, lsl #12
   85f28:	54ffff41 	b.ne	85f10 <init_vmm+0x64>  // b.any
   85f2c:	d2a81013 	mov	x19, #0x40800000            	// #1082130432
   85f30:	d280a035 	mov	x21, #0x501                 	// #1281
   85f34:	d2a81214 	mov	x20, #0x40900000            	// #1083179008
   85f38:	aa1503e2 	mov	x2, x21
   85f3c:	aa1303e1 	mov	x1, x19
   85f40:	aa1303e0 	mov	x0, x19
   85f44:	97fffd16 	bl	8539c <map_kernel_page>
   85f48:	91400673 	add	x19, x19, #0x1, lsl #12
   85f4c:	eb14027f 	cmp	x19, x20
   85f50:	54ffff41 	b.ne	85f38 <init_vmm+0x8c>  // b.any
   85f54:	97ffff5b 	bl	85cc0 <map_vector_table>
   85f58:	97ffffaa 	bl	85e00 <map_mmu_transition_code>
   85f5c:	f0007be0 	adrp	x0, 1004000 <page_bitmap>
   85f60:	f9402000 	ldr	x0, [x0, #64]
   85f64:	97fffdb1 	bl	85628 <enable_mmu>
   85f68:	b0007be0 	adrp	x0, 1002000 <GLOBAL_UART+0x2000>
   85f6c:	91226000 	add	x0, x0, #0x898
   85f70:	97fff0f0 	bl	82330 <uart_puts>
   85f74:	a94153f3 	ldp	x19, x20, [sp, #16]
   85f78:	f94013f5 	ldr	x21, [sp, #32]
   85f7c:	a8c37bfd 	ldp	x29, x30, [sp], #48
   85f80:	d65f03c0 	ret
   85f84:	b0007be0 	adrp	x0, 1002000 <GLOBAL_UART+0x2000>
   85f88:	9121a000 	add	x0, x0, #0x868
   85f8c:	97fff0e9 	bl	82330 <uart_puts>
   85f90:	17fffffb 	b	85f7c <init_vmm+0xd0>

0000000000085f94 <ensure_vector_table_executable_l3>:
   85f94:	a9bc7bfd 	stp	x29, x30, [sp, #-64]!
   85f98:	910003fd 	mov	x29, sp
   85f9c:	a90153f3 	stp	x19, x20, [sp, #16]
   85fa0:	a9025bf5 	stp	x21, x22, [sp, #32]
   85fa4:	f9001bf7 	str	x23, [sp, #48]
   85fa8:	aa0003f6 	mov	x22, x0
   85fac:	90000035 	adrp	x21, 89000 <vector_table>
   85fb0:	910002b5 	add	x21, x21, #0x0
   85fb4:	b0007be0 	adrp	x0, 1002000 <GLOBAL_UART+0x2000>
   85fb8:	91234000 	add	x0, x0, #0x8d0
   85fbc:	97ffec33 	bl	81088 <debug_print>
   85fc0:	9274ceb7 	and	x23, x21, #0xfffffffffffff000
   85fc4:	d34c52b5 	ubfx	x21, x21, #12, #9
   85fc8:	b0007be0 	adrp	x0, 1002000 <GLOBAL_UART+0x2000>
   85fcc:	91242000 	add	x0, x0, #0x908
   85fd0:	97ffec2e 	bl	81088 <debug_print>
   85fd4:	aa1703e1 	mov	x1, x23
   85fd8:	d0007be0 	adrp	x0, 1003000 <GLOBAL_UART+0x3000>
   85fdc:	910e2000 	add	x0, x0, #0x388
   85fe0:	97ffec3f 	bl	810dc <debug_hex64>
   85fe4:	b0007be0 	adrp	x0, 1002000 <GLOBAL_UART+0x2000>
   85fe8:	9124c000 	add	x0, x0, #0x930
   85fec:	97ffec27 	bl	81088 <debug_print>
   85ff0:	d342fea0 	lsr	x0, x21, #2
   85ff4:	d29eb861 	mov	x1, #0xf5c3                	// #62915
   85ff8:	f2ab8501 	movk	x1, #0x5c28, lsl #16
   85ffc:	f2d851e1 	movk	x1, #0xc28f, lsl #32
   86000:	f2e51ea1 	movk	x1, #0x28f5, lsl #48
   86004:	9bc17c00 	umulh	x0, x0, x1
   86008:	d342fc00 	lsr	x0, x0, #2
   8600c:	b202e7f3 	mov	x19, #0xcccccccccccccccc    	// #-3689348814741910324
   86010:	f29999b3 	movk	x19, #0xcccd
   86014:	9bd37c01 	umulh	x1, x0, x19
   86018:	d343fc21 	lsr	x1, x1, #3
   8601c:	8b010821 	add	x1, x1, x1, lsl #2
   86020:	8b010021 	add	x1, x1, x1
   86024:	cb010000 	sub	x0, x0, x1
   86028:	1100c000 	add	w0, w0, #0x30
   8602c:	97fff0b9 	bl	82310 <uart_putc>
   86030:	9bd37eb4 	umulh	x20, x21, x19
   86034:	d343fe94 	lsr	x20, x20, #3
   86038:	9bd37e93 	umulh	x19, x20, x19
   8603c:	d343fe73 	lsr	x19, x19, #3
   86040:	8b130a73 	add	x19, x19, x19, lsl #2
   86044:	8b130273 	add	x19, x19, x19
   86048:	cb130293 	sub	x19, x20, x19
   8604c:	1100c260 	add	w0, w19, #0x30
   86050:	97fff0b0 	bl	82310 <uart_putc>
   86054:	8b140a94 	add	x20, x20, x20, lsl #2
   86058:	8b140294 	add	x20, x20, x20
   8605c:	cb1402a0 	sub	x0, x21, x20
   86060:	1100c000 	add	w0, w0, #0x30
   86064:	97fff0ab 	bl	82310 <uart_putc>
   86068:	d0007bc0 	adrp	x0, 1000000 <GLOBAL_UART>
   8606c:	9122a000 	add	x0, x0, #0x8a8
   86070:	97ffec06 	bl	81088 <debug_print>
   86074:	f8757ad3 	ldr	x19, [x22, x21, lsl #3]
   86078:	370004f3 	tbnz	w19, #0, 86114 <ensure_vector_table_executable_l3+0x180>
   8607c:	90007be0 	adrp	x0, 1002000 <GLOBAL_UART+0x2000>
   86080:	91256000 	add	x0, x0, #0x958
   86084:	97ffec01 	bl	81088 <debug_print>
   86088:	d280a023 	mov	x3, #0x501                 	// #1281
   8608c:	aa1703e2 	mov	x2, x23
   86090:	aa1703e1 	mov	x1, x23
   86094:	aa1603e0 	mov	x0, x22
   86098:	97fff987 	bl	846b4 <map_page>
   8609c:	90007be0 	adrp	x0, 1002000 <GLOBAL_UART+0x2000>
   860a0:	91266000 	add	x0, x0, #0x998
   860a4:	97ffebf9 	bl	81088 <debug_print>
   860a8:	914006f7 	add	x23, x23, #0x1, lsl #12
   860ac:	d34c52f4 	ubfx	x20, x23, #12, #9
   860b0:	f8747ad3 	ldr	x19, [x22, x20, lsl #3]
   860b4:	37000433 	tbnz	w19, #0, 86138 <ensure_vector_table_executable_l3+0x1a4>
   860b8:	90007be0 	adrp	x0, 1002000 <GLOBAL_UART+0x2000>
   860bc:	91292000 	add	x0, x0, #0xa48
   860c0:	97ffebf2 	bl	81088 <debug_print>
   860c4:	d280a023 	mov	x3, #0x501                 	// #1281
   860c8:	aa1703e2 	mov	x2, x23
   860cc:	aa1703e1 	mov	x1, x23
   860d0:	aa1603e0 	mov	x0, x22
   860d4:	97fff978 	bl	846b4 <map_page>
   860d8:	90007be0 	adrp	x0, 1002000 <GLOBAL_UART+0x2000>
   860dc:	912a0000 	add	x0, x0, #0xa80
   860e0:	97ffebea 	bl	81088 <debug_print>
   860e4:	d5033a9f 	dsb	ishst
   860e8:	d508831f 	tlbi	vmalle1is
   860ec:	d5033b9f 	dsb	ish
   860f0:	d5033fdf 	isb
   860f4:	90007be0 	adrp	x0, 1002000 <GLOBAL_UART+0x2000>
   860f8:	912d6000 	add	x0, x0, #0xb58
   860fc:	97ffebe3 	bl	81088 <debug_print>
   86100:	a94153f3 	ldp	x19, x20, [sp, #16]
   86104:	a9425bf5 	ldp	x21, x22, [sp, #32]
   86108:	f9401bf7 	ldr	x23, [sp, #48]
   8610c:	a8c47bfd 	ldp	x29, x30, [sp], #64
   86110:	d65f03c0 	ret
   86114:	90007be0 	adrp	x0, 1002000 <GLOBAL_UART+0x2000>
   86118:	91272000 	add	x0, x0, #0x9c8
   8611c:	97ffebdb 	bl	81088 <debug_print>
   86120:	9249f673 	and	x19, x19, #0xff9fffffffffffff
   86124:	f8357ad3 	str	x19, [x22, x21, lsl #3]
   86128:	90007be0 	adrp	x0, 1002000 <GLOBAL_UART+0x2000>
   8612c:	91284000 	add	x0, x0, #0xa10
   86130:	97ffebd6 	bl	81088 <debug_print>
   86134:	17ffffdd 	b	860a8 <ensure_vector_table_executable_l3+0x114>
   86138:	90007be0 	adrp	x0, 1002000 <GLOBAL_UART+0x2000>
   8613c:	912b0000 	add	x0, x0, #0xac0
   86140:	97ffebd2 	bl	81088 <debug_print>
   86144:	9249f673 	and	x19, x19, #0xff9fffffffffffff
   86148:	f8347ad3 	str	x19, [x22, x20, lsl #3]
   8614c:	90007be0 	adrp	x0, 1002000 <GLOBAL_UART+0x2000>
   86150:	912c6000 	add	x0, x0, #0xb18
   86154:	97ffebcd 	bl	81088 <debug_print>
   86158:	17ffffe3 	b	860e4 <ensure_vector_table_executable_l3+0x150>

000000000008615c <ensure_vector_table_executable>:
   8615c:	a9bd7bfd 	stp	x29, x30, [sp, #-48]!
   86160:	910003fd 	mov	x29, sp
   86164:	90007be0 	adrp	x0, 1002000 <GLOBAL_UART+0x2000>
   86168:	912e2000 	add	x0, x0, #0xb88
   8616c:	97ffebc7 	bl	81088 <debug_print>
   86170:	d0007be0 	adrp	x0, 1004000 <page_bitmap>
   86174:	f9402000 	ldr	x0, [x0, #64]
   86178:	b40006c0 	cbz	x0, 86250 <ensure_vector_table_executable+0xf4>
   8617c:	a90153f3 	stp	x19, x20, [sp, #16]
   86180:	f0000013 	adrp	x19, 89000 <vector_table>
   86184:	91000273 	add	x19, x19, #0x0
   86188:	aa1303e1 	mov	x1, x19
   8618c:	97fffa9d 	bl	84c00 <get_l3_table_for_addr>
   86190:	b4000680 	cbz	x0, 86260 <ensure_vector_table_executable+0x104>
   86194:	f90013f5 	str	x21, [sp, #32]
   86198:	97ffff7f 	bl	85f94 <ensure_vector_table_executable_l3>
   8619c:	d538c015 	mrs	x21, vbar_el1
   861a0:	d0007bc0 	adrp	x0, 1000000 <GLOBAL_UART>
   861a4:	912bc000 	add	x0, x0, #0xaf0
   861a8:	97ffebb8 	bl	81088 <debug_print>
   861ac:	b0007bf4 	adrp	x20, 1003000 <GLOBAL_UART+0x3000>
   861b0:	910e2294 	add	x20, x20, #0x388
   861b4:	aa1503e1 	mov	x1, x21
   861b8:	aa1403e0 	mov	x0, x20
   861bc:	97ffebc8 	bl	810dc <debug_hex64>
   861c0:	90007be0 	adrp	x0, 1002000 <GLOBAL_UART+0x2000>
   861c4:	9130e000 	add	x0, x0, #0xc38
   861c8:	97ffebb0 	bl	81088 <debug_print>
   861cc:	aa1303e1 	mov	x1, x19
   861d0:	aa1403e0 	mov	x0, x20
   861d4:	97ffebc2 	bl	810dc <debug_hex64>
   861d8:	d0007bc0 	adrp	x0, 1000000 <GLOBAL_UART>
   861dc:	9122a000 	add	x0, x0, #0x8a8
   861e0:	97ffebaa 	bl	81088 <debug_print>
   861e4:	eb15027f 	cmp	x19, x21
   861e8:	54000520 	b.eq	8628c <ensure_vector_table_executable+0x130>  // b.none
   861ec:	90007be0 	adrp	x0, 1002000 <GLOBAL_UART+0x2000>
   861f0:	91318000 	add	x0, x0, #0xc60
   861f4:	97ffeba5 	bl	81088 <debug_print>
   861f8:	d518c013 	msr	vbar_el1, x19
   861fc:	d5033fdf 	isb
   86200:	d538c014 	mrs	x20, vbar_el1
   86204:	90007be0 	adrp	x0, 1002000 <GLOBAL_UART+0x2000>
   86208:	91326000 	add	x0, x0, #0xc98
   8620c:	97ffeb9f 	bl	81088 <debug_print>
   86210:	aa1403e1 	mov	x1, x20
   86214:	b0007be0 	adrp	x0, 1003000 <GLOBAL_UART+0x3000>
   86218:	910e2000 	add	x0, x0, #0x388
   8621c:	97ffebb0 	bl	810dc <debug_hex64>
   86220:	d0007bc0 	adrp	x0, 1000000 <GLOBAL_UART>
   86224:	9122a000 	add	x0, x0, #0x8a8
   86228:	97ffeb98 	bl	81088 <debug_print>
   8622c:	eb14027f 	cmp	x19, x20
   86230:	54000220 	b.eq	86274 <ensure_vector_table_executable+0x118>  // b.none
   86234:	90007be0 	adrp	x0, 1002000 <GLOBAL_UART+0x2000>
   86238:	91338000 	add	x0, x0, #0xce0
   8623c:	97ffeb93 	bl	81088 <debug_print>
   86240:	a94153f3 	ldp	x19, x20, [sp, #16]
   86244:	f94013f5 	ldr	x21, [sp, #32]
   86248:	a8c37bfd 	ldp	x29, x30, [sp], #48
   8624c:	d65f03c0 	ret
   86250:	90007be0 	adrp	x0, 1002000 <GLOBAL_UART+0x2000>
   86254:	912f2000 	add	x0, x0, #0xbc8
   86258:	97ffeb8c 	bl	81088 <debug_print>
   8625c:	17fffffb 	b	86248 <ensure_vector_table_executable+0xec>
   86260:	90007be0 	adrp	x0, 1002000 <GLOBAL_UART+0x2000>
   86264:	912fe000 	add	x0, x0, #0xbf8
   86268:	97ffeb88 	bl	81088 <debug_print>
   8626c:	a94153f3 	ldp	x19, x20, [sp, #16]
   86270:	17fffff6 	b	86248 <ensure_vector_table_executable+0xec>
   86274:	90007be0 	adrp	x0, 1002000 <GLOBAL_UART+0x2000>
   86278:	9132e000 	add	x0, x0, #0xcb8
   8627c:	97ffeb83 	bl	81088 <debug_print>
   86280:	a94153f3 	ldp	x19, x20, [sp, #16]
   86284:	f94013f5 	ldr	x21, [sp, #32]
   86288:	17fffff0 	b	86248 <ensure_vector_table_executable+0xec>
   8628c:	90007be0 	adrp	x0, 1002000 <GLOBAL_UART+0x2000>
   86290:	91344000 	add	x0, x0, #0xd10
   86294:	97ffeb7d 	bl	81088 <debug_print>
   86298:	a94153f3 	ldp	x19, x20, [sp, #16]
   8629c:	f94013f5 	ldr	x21, [sp, #32]
   862a0:	17ffffea 	b	86248 <ensure_vector_table_executable+0xec>

00000000000862a4 <ensure_code_is_executable>:
   862a4:	a9be7bfd 	stp	x29, x30, [sp, #-32]!
   862a8:	910003fd 	mov	x29, sp
   862ac:	f9000bf3 	str	x19, [sp, #16]
   862b0:	d2a12000 	mov	x0, #0x9000000             	// #150994944
   862b4:	528008c1 	mov	w1, #0x46                  	// #70
   862b8:	b9000001 	str	w1, [x0]
   862bc:	52800921 	mov	w1, #0x49                  	// #73
   862c0:	b9000001 	str	w1, [x0]
   862c4:	52800b01 	mov	w1, #0x58                  	// #88
   862c8:	b9000001 	str	w1, [x0]
   862cc:	b9000001 	str	w1, [x0]
   862d0:	52800741 	mov	w1, #0x3a                  	// #58
   862d4:	b9000001 	str	w1, [x0]
   862d8:	d0007be0 	adrp	x0, 1004000 <page_bitmap>
   862dc:	f9402013 	ldr	x19, [x0, #64]
   862e0:	b4000473 	cbz	x19, 8636c <ensure_code_is_executable+0xc8>
   862e4:	90007be0 	adrp	x0, 1002000 <GLOBAL_UART+0x2000>
   862e8:	91350000 	add	x0, x0, #0xd40
   862ec:	97fff011 	bl	82330 <uart_puts>
   862f0:	97ffff9b 	bl	8615c <ensure_vector_table_executable>
   862f4:	d0007bc2 	adrp	x2, 1000000 <GLOBAL_UART>
   862f8:	91166042 	add	x2, x2, #0x598
   862fc:	90000001 	adrp	x1, 86000 <ensure_vector_table_executable_l3+0x6c>
   86300:	911d0021 	add	x1, x1, #0x740
   86304:	aa1303e0 	mov	x0, x19
   86308:	97fff99c 	bl	84978 <verify_executable_address>
   8630c:	90007be2 	adrp	x2, 1002000 <GLOBAL_UART+0x2000>
   86310:	9135c042 	add	x2, x2, #0xd70
   86314:	90ffffe1 	adrp	x1, 82000 <test_exception_delivery+0x1d0>
   86318:	91035021 	add	x1, x1, #0xd4
   8631c:	aa1303e0 	mov	x0, x19
   86320:	97fff996 	bl	84978 <verify_executable_address>
   86324:	90007be2 	adrp	x2, 1002000 <GLOBAL_UART+0x2000>
   86328:	91360042 	add	x2, x2, #0xd80
   8632c:	90000001 	adrp	x1, 86000 <ensure_vector_table_executable_l3+0x6c>
   86330:	911ee021 	add	x1, x1, #0x7b8
   86334:	aa1303e0 	mov	x0, x19
   86338:	97fff990 	bl	84978 <verify_executable_address>
   8633c:	90007be2 	adrp	x2, 1002000 <GLOBAL_UART+0x2000>
   86340:	91366042 	add	x2, x2, #0xd98
   86344:	90000001 	adrp	x1, 86000 <ensure_vector_table_executable_l3+0x6c>
   86348:	9111e021 	add	x1, x1, #0x478
   8634c:	aa1303e0 	mov	x0, x19
   86350:	97fff98a 	bl	84978 <verify_executable_address>
   86354:	90007be0 	adrp	x0, 1002000 <GLOBAL_UART+0x2000>
   86358:	9136c000 	add	x0, x0, #0xdb0
   8635c:	97ffeff5 	bl	82330 <uart_puts>
   86360:	f9400bf3 	ldr	x19, [sp, #16]
   86364:	a8c27bfd 	ldp	x29, x30, [sp], #32
   86368:	d65f03c0 	ret
   8636c:	d2a12000 	mov	x0, #0x9000000             	// #150994944
   86370:	52800981 	mov	w1, #0x4c                  	// #76
   86374:	b9000001 	str	w1, [x0]
   86378:	52800601 	mov	w1, #0x30                  	// #48
   8637c:	b9000001 	str	w1, [x0]
   86380:	52800421 	mov	w1, #0x21                  	// #33
   86384:	b9000001 	str	w1, [x0]
   86388:	17fffff6 	b	86360 <ensure_code_is_executable+0xbc>
   8638c:	00000000 	udf	#0

0000000000086390 <save_context>:
   86390:	a909d013 	stp	x19, x20, [x0, #152]
   86394:	a90ad815 	stp	x21, x22, [x0, #168]
   86398:	a90be017 	stp	x23, x24, [x0, #184]
   8639c:	a90ce819 	stp	x25, x26, [x0, #200]
   863a0:	a90df01b 	stp	x27, x28, [x0, #216]
   863a4:	f900741d 	str	x29, [x0, #232]
   863a8:	f9007c1e 	str	x30, [x0, #248]
   863ac:	910003e1 	mov	x1, sp
   863b0:	f9000001 	str	x1, [x0]
   863b4:	d53b4221 	mrs	x1, daif
   863b8:	f9008001 	str	x1, [x0, #256]
   863bc:	d65f03c0 	ret

00000000000863c0 <restore_context>:
   863c0:	58002041 	ldr	x1, 867c8 <known_branch_test+0x10>
   863c4:	52800a42 	mov	w2, #0x52                  	// #82
   863c8:	b9000022 	str	w2, [x1]
   863cc:	f9408402 	ldr	x2, [x0, #264]
   863d0:	92400c42 	and	x2, x2, #0xf
   863d4:	1100c042 	add	w2, w2, #0x30
   863d8:	b9000022 	str	w2, [x1]
   863dc:	f9407c02 	ldr	x2, [x0, #248]
   863e0:	d35cfc42 	lsr	x2, x2, #28
   863e4:	92400c42 	and	x2, x2, #0xf
   863e8:	f100285f 	cmp	x2, #0xa
   863ec:	5400006a 	b.ge	863f8 <restore_context+0x38>  // b.tcont
   863f0:	1100c042 	add	w2, w2, #0x30
   863f4:	14000003 	b	86400 <restore_context+0x40>
   863f8:	51002842 	sub	w2, w2, #0xa
   863fc:	11010442 	add	w2, w2, #0x41
   86400:	b9000022 	str	w2, [x1]
   86404:	f9400002 	ldr	x2, [x0]
   86408:	d35cfc42 	lsr	x2, x2, #28
   8640c:	92400c42 	and	x2, x2, #0xf
   86410:	f100285f 	cmp	x2, #0xa
   86414:	5400006a 	b.ge	86420 <restore_context+0x60>  // b.tcont
   86418:	1100c042 	add	w2, w2, #0x30
   8641c:	14000003 	b	86428 <restore_context+0x68>
   86420:	51002842 	sub	w2, w2, #0xa
   86424:	11010442 	add	w2, w2, #0x41
   86428:	b9000022 	str	w2, [x1]
   8642c:	f9400002 	ldr	x2, [x0]
   86430:	92400c43 	and	x3, x2, #0xf
   86434:	f100007f 	cmp	x3, #0x0
   86438:	54000080 	b.eq	86448 <restore_context+0x88>  // b.none
   8643c:	52800aa2 	mov	w2, #0x55                  	// #85
   86440:	b9000022 	str	w2, [x1]
   86444:	14000003 	b	86450 <restore_context+0x90>
   86448:	52800822 	mov	w2, #0x41                  	// #65
   8644c:	b9000022 	str	w2, [x1]
   86450:	f9400001 	ldr	x1, [x0]
   86454:	9100003f 	mov	sp, x1
   86458:	a949d013 	ldp	x19, x20, [x0, #152]
   8645c:	a94ad815 	ldp	x21, x22, [x0, #168]
   86460:	a94be017 	ldp	x23, x24, [x0, #184]
   86464:	a94ce819 	ldp	x25, x26, [x0, #200]
   86468:	a94df01b 	ldp	x27, x28, [x0, #216]
   8646c:	f940741d 	ldr	x29, [x0, #232]
   86470:	f9407c1e 	ldr	x30, [x0, #248]
   86474:	d65f03c0 	ret

0000000000086478 <full_restore_context>:
   86478:	58001a85 	ldr	x5, 867c8 <known_branch_test+0x10>
   8647c:	528008c6 	mov	w6, #0x46                  	// #70
   86480:	b90000a6 	str	w6, [x5]
   86484:	f9400001 	ldr	x1, [x0]
   86488:	aa0103e4 	mov	x4, x1
   8648c:	52800a66 	mov	w6, #0x53                  	// #83
   86490:	b90000a6 	str	w6, [x5]
   86494:	52800a06 	mov	w6, #0x50                  	// #80
   86498:	b90000a6 	str	w6, [x5]
   8649c:	528007a6 	mov	w6, #0x3d                  	// #61
   864a0:	b90000a6 	str	w6, [x5]
   864a4:	d2800787 	mov	x7, #0x3c                  	// #60

00000000000864a8 <sp_print_loop>:
   864a8:	aa0403e8 	mov	x8, x4
   864ac:	9ac72508 	lsr	x8, x8, x7
   864b0:	92400d08 	and	x8, x8, #0xf
   864b4:	f100291f 	cmp	x8, #0xa
   864b8:	5400006b 	b.lt	864c4 <sp_print_loop+0x1c>  // b.tstop
   864bc:	1100dd08 	add	w8, w8, #0x37
   864c0:	14000002 	b	864c8 <sp_print_loop+0x20>
   864c4:	1100c108 	add	w8, w8, #0x30
   864c8:	b90000a8 	str	w8, [x5]
   864cc:	d10010e7 	sub	x7, x7, #0x4
   864d0:	f10000ff 	cmp	x7, #0x0
   864d4:	54fffeaa 	b.ge	864a8 <sp_print_loop>  // b.tcont
   864d8:	528001a6 	mov	w6, #0xd                   	// #13
   864dc:	b90000a6 	str	w6, [x5]
   864e0:	52800146 	mov	w6, #0xa                   	// #10
   864e4:	b90000a6 	str	w6, [x5]
   864e8:	f9407c02 	ldr	x2, [x0, #248]
   864ec:	52800a06 	mov	w6, #0x50                  	// #80
   864f0:	b90000a6 	str	w6, [x5]
   864f4:	52800866 	mov	w6, #0x43                  	// #67
   864f8:	b90000a6 	str	w6, [x5]
   864fc:	528007a6 	mov	w6, #0x3d                  	// #61
   86500:	b90000a6 	str	w6, [x5]
   86504:	d2800787 	mov	x7, #0x3c                  	// #60

0000000000086508 <pc_print_loop>:
   86508:	aa0203e8 	mov	x8, x2
   8650c:	9ac72508 	lsr	x8, x8, x7
   86510:	92400d08 	and	x8, x8, #0xf
   86514:	f100291f 	cmp	x8, #0xa
   86518:	5400006b 	b.lt	86524 <pc_print_loop+0x1c>  // b.tstop
   8651c:	1100dd08 	add	w8, w8, #0x37
   86520:	14000002 	b	86528 <pc_print_loop+0x20>
   86524:	1100c108 	add	w8, w8, #0x30
   86528:	b90000a8 	str	w8, [x5]
   8652c:	d10010e7 	sub	x7, x7, #0x4
   86530:	f10000ff 	cmp	x7, #0x0
   86534:	54fffeaa 	b.ge	86508 <pc_print_loop>  // b.tcont
   86538:	528001a6 	mov	w6, #0xd                   	// #13
   8653c:	b90000a6 	str	w6, [x5]
   86540:	52800146 	mov	w6, #0xa                   	// #10
   86544:	b90000a6 	str	w6, [x5]
   86548:	f9408003 	ldr	x3, [x0, #256]
   8654c:	52800a66 	mov	w6, #0x53                  	// #83
   86550:	b90000a6 	str	w6, [x5]
   86554:	52800a06 	mov	w6, #0x50                  	// #80
   86558:	b90000a6 	str	w6, [x5]
   8655c:	52800a66 	mov	w6, #0x53                  	// #83
   86560:	b90000a6 	str	w6, [x5]
   86564:	52800a46 	mov	w6, #0x52                  	// #82
   86568:	b90000a6 	str	w6, [x5]
   8656c:	528007a6 	mov	w6, #0x3d                  	// #61
   86570:	b90000a6 	str	w6, [x5]
   86574:	d2800387 	mov	x7, #0x1c                  	// #28
   86578:	aa0303e8 	mov	x8, x3
   8657c:	9ac72508 	lsr	x8, x8, x7
   86580:	92400d08 	and	x8, x8, #0xf
   86584:	f100291f 	cmp	x8, #0xa
   86588:	5400006b 	b.lt	86594 <pc_print_loop+0x8c>  // b.tstop
   8658c:	1100dd08 	add	w8, w8, #0x37
   86590:	14000002 	b	86598 <pc_print_loop+0x90>
   86594:	1100c108 	add	w8, w8, #0x30
   86598:	b90000a8 	str	w8, [x5]
   8659c:	528001a6 	mov	w6, #0xd                   	// #13
   865a0:	b90000a6 	str	w6, [x5]
   865a4:	52800146 	mov	w6, #0xa                   	// #10
   865a8:	b90000a6 	str	w6, [x5]
   865ac:	f100003f 	cmp	x1, #0x0
   865b0:	54000101 	b.ne	865d0 <pc_print_loop+0xc8>  // b.any
   865b4:	52800a66 	mov	w6, #0x53                  	// #83
   865b8:	b90000a6 	str	w6, [x5]
   865bc:	528007a6 	mov	w6, #0x3d                  	// #61
   865c0:	b90000a6 	str	w6, [x5]
   865c4:	52800606 	mov	w6, #0x30                  	// #48
   865c8:	b90000a6 	str	w6, [x5]
   865cc:	14000054 	b	8671c <fatal_error>
   865d0:	aa0103e4 	mov	x4, x1
   865d4:	92400c84 	and	x4, x4, #0xf
   865d8:	f100009f 	cmp	x4, #0x0
   865dc:	540001c0 	b.eq	86614 <pc_print_loop+0x10c>  // b.none
   865e0:	52800826 	mov	w6, #0x41                  	// #65
   865e4:	b90000a6 	str	w6, [x5]
   865e8:	52800986 	mov	w6, #0x4c                  	// #76
   865ec:	b90000a6 	str	w6, [x5]
   865f0:	52800926 	mov	w6, #0x49                  	// #73
   865f4:	b90000a6 	str	w6, [x5]
   865f8:	528008e6 	mov	w6, #0x47                  	// #71
   865fc:	b90000a6 	str	w6, [x5]
   86600:	528009c6 	mov	w6, #0x4e                  	// #78
   86604:	b90000a6 	str	w6, [x5]
   86608:	52800426 	mov	w6, #0x21                  	// #33
   8660c:	b90000a6 	str	w6, [x5]
   86610:	14000043 	b	8671c <fatal_error>
   86614:	52800a66 	mov	w6, #0x53                  	// #83
   86618:	b90000a6 	str	w6, [x5]
   8661c:	52800a06 	mov	w6, #0x50                  	// #80
   86620:	b90000a6 	str	w6, [x5]
   86624:	52800be6 	mov	w6, #0x5f                  	// #95
   86628:	b90000a6 	str	w6, [x5]
   8662c:	52800a66 	mov	w6, #0x53                  	// #83
   86630:	b90000a6 	str	w6, [x5]
   86634:	528008a6 	mov	w6, #0x45                  	// #69
   86638:	b90000a6 	str	w6, [x5]
   8663c:	52800a86 	mov	w6, #0x54                  	// #84
   86640:	b90000a6 	str	w6, [x5]
   86644:	52800ac6 	mov	w6, #0x56                  	// #86
   86648:	b90000a6 	str	w6, [x5]
   8664c:	52800be6 	mov	w6, #0x5f                  	// #95
   86650:	b90000a6 	str	w6, [x5]
   86654:	52800a66 	mov	w6, #0x53                  	// #83
   86658:	b90000a6 	str	w6, [x5]
   8665c:	aa0303e8 	mov	x8, x3
   86660:	d348fd08 	lsr	x8, x8, #8
   86664:	92400d08 	and	x8, x8, #0xf
   86668:	f100291f 	cmp	x8, #0xa
   8666c:	5400006b 	b.lt	86678 <pc_print_loop+0x170>  // b.tstop
   86670:	1100dd08 	add	w8, w8, #0x37
   86674:	14000002 	b	8667c <pc_print_loop+0x174>
   86678:	1100c108 	add	w8, w8, #0x30
   8667c:	b90000a8 	str	w8, [x5]
   86680:	d2800620 	mov	x0, #0x31                  	// #49
   86684:	97ffef23 	bl	82310 <uart_putc>
   86688:	d5184003 	msr	spsr_el1, x3
   8668c:	d2800640 	mov	x0, #0x32                  	// #50
   86690:	97ffef20 	bl	82310 <uart_putc>
   86694:	d5184022 	msr	elr_el1, x2
   86698:	d2800660 	mov	x0, #0x33                  	// #51
   8669c:	97ffef1d 	bl	82310 <uart_putc>
   866a0:	9100003f 	mov	sp, x1
   866a4:	528001a6 	mov	w6, #0xd                   	// #13
   866a8:	b90000a6 	str	w6, [x5]
   866ac:	52800146 	mov	w6, #0xa                   	// #10
   866b0:	b90000a6 	str	w6, [x5]
   866b4:	528009a6 	mov	w6, #0x4d                  	// #77
   866b8:	b90000a6 	str	w6, [x5]
   866bc:	52800746 	mov	w6, #0x3a                  	// #58
   866c0:	b90000a6 	str	w6, [x5]
   866c4:	f94003e9 	ldr	x9, [sp]
   866c8:	aa0903e0 	mov	x0, x9
   866cc:	97ffef5d 	bl	82440 <uart_hex64>
   866d0:	528008a6 	mov	w6, #0x45                  	// #69
   866d4:	b90000a6 	str	w6, [x5]
   866d8:	52800a46 	mov	w6, #0x52                  	// #82
   866dc:	b90000a6 	str	w6, [x5]
   866e0:	528008a6 	mov	w6, #0x45                  	// #69
   866e4:	b90000a6 	str	w6, [x5]
   866e8:	52800a86 	mov	w6, #0x54                  	// #84
   866ec:	b90000a6 	str	w6, [x5]
   866f0:	52800746 	mov	w6, #0x3a                  	// #58
   866f4:	b90000a6 	str	w6, [x5]
   866f8:	aa1303e0 	mov	x0, x19
   866fc:	97ffef51 	bl	82440 <uart_hex64>
   86700:	910003e0 	mov	x0, sp
   86704:	97ffef4f 	bl	82440 <uart_hex64>
   86708:	d5384000 	mrs	x0, spsr_el1
   8670c:	97ffef4d 	bl	82440 <uart_hex64>
   86710:	d2800b40 	mov	x0, #0x5a                  	// #90
   86714:	97ffeeff 	bl	82310 <uart_putc>
   86718:	d69f03e0 	eret

000000000008671c <fatal_error>:
   8671c:	52800426 	mov	w6, #0x21                  	// #33
   86720:	b90000a6 	str	w6, [x5]
   86724:	52800426 	mov	w6, #0x21                  	// #33
   86728:	b90000a6 	str	w6, [x5]
   8672c:	52800426 	mov	w6, #0x21                  	// #33
   86730:	b90000a6 	str	w6, [x5]
   86734:	14000000 	b	86734 <fatal_error+0x18>
   86738:	d503201f 	nop
   8673c:	d503201f 	nop

0000000000086740 <dummy_asm>:
   86740:	d2800820 	mov	x0, #0x41                  	// #65
   86744:	97ffeef3 	bl	82310 <uart_putc>
   86748:	d65f03c0 	ret
   8674c:	d503201f 	nop

0000000000086750 <test_context_switch>:
   86750:	d2800a80 	mov	x0, #0x54                  	// #84
   86754:	97ffeeef 	bl	82310 <uart_putc>
   86758:	10ffff40 	adr	x0, 86740 <dummy_asm>
   8675c:	aa0003e9 	mov	x9, x0
   86760:	d2800a00 	mov	x0, #0x50                  	// #80
   86764:	97ffeeeb 	bl	82310 <uart_putc>
   86768:	aa0903e0 	mov	x0, x9
   8676c:	97ffef42 	bl	82474 <uart_putx>
   86770:	aa0903e0 	mov	x0, x9
   86774:	580002e1 	ldr	x1, 867d0 <known_branch_test+0x18>
   86778:	d2807802 	mov	x2, #0x3c0                 	// #960
   8677c:	d2800b40 	mov	x0, #0x5a                  	// #90
   86780:	97ffeee4 	bl	82310 <uart_putc>
   86784:	d5184029 	msr	elr_el1, x9
   86788:	d51c4101 	msr	sp_el1, x1
   8678c:	d5184002 	msr	spsr_el1, x2
   86790:	d28008a0 	mov	x0, #0x45                  	// #69
   86794:	97ffeedf 	bl	82310 <uart_putc>
   86798:	d69f03e0 	eret
   8679c:	d2800a40 	mov	x0, #0x52                  	// #82
   867a0:	97ffeedc 	bl	82310 <uart_putc>
   867a4:	d2806802 	mov	x2, #0x340                 	// #832
   867a8:	d5184002 	msr	spsr_el1, x2
   867ac:	d2800640 	mov	x0, #0x32                  	// #50
   867b0:	97ffeed8 	bl	82310 <uart_putc>
   867b4:	d69f03e0 	eret

00000000000867b8 <known_branch_test>:
   867b8:	d2800b00 	mov	x0, #0x58                  	// #88
   867bc:	97ffeed5 	bl	82310 <uart_putc>
   867c0:	d65f03c0 	ret
   867c4:	00000000 	udf	#0
   867c8:	09000000 	.word	0x09000000
   867cc:	00000000 	.word	0x00000000
   867d0:	40800000 	.word	0x40800000
   867d4:	00000000 	.word	0x00000000

00000000000867d8 <raw_uart_puts>:
   867d8:	39400001 	ldrb	w1, [x0]
   867dc:	34000181 	cbz	w1, 8680c <raw_uart_puts+0x34>
   867e0:	d2a12002 	mov	x2, #0x9000000             	// #150994944
   867e4:	528001a3 	mov	w3, #0xd                   	// #13
   867e8:	14000005 	b	867fc <raw_uart_puts+0x24>
   867ec:	38401401 	ldrb	w1, [x0], #1
   867f0:	b9000041 	str	w1, [x2]
   867f4:	39400001 	ldrb	w1, [x0]
   867f8:	340000a1 	cbz	w1, 8680c <raw_uart_puts+0x34>
   867fc:	7100283f 	cmp	w1, #0xa
   86800:	54ffff61 	b.ne	867ec <raw_uart_puts+0x14>  // b.any
   86804:	b9000043 	str	w3, [x2]
   86808:	17fffff9 	b	867ec <raw_uart_puts+0x14>
   8680c:	d65f03c0 	ret

0000000000086810 <timer_init>:
   86810:	a9bc7bfd 	stp	x29, x30, [sp, #-64]!
   86814:	910003fd 	mov	x29, sp
   86818:	a90153f3 	stp	x19, x20, [sp, #16]
   8681c:	a9025bf5 	stp	x21, x22, [sp, #32]
   86820:	f9001bf7 	str	x23, [sp, #48]
   86824:	90007be0 	adrp	x0, 1002000 <GLOBAL_UART+0x2000>
   86828:	91378000 	add	x0, x0, #0xde0
   8682c:	97ffea17 	bl	81088 <debug_print>
   86830:	90007be0 	adrp	x0, 1002000 <GLOBAL_UART+0x2000>
   86834:	91384000 	add	x0, x0, #0xe10
   86838:	97ffffe8 	bl	867d8 <raw_uart_puts>
   8683c:	90007be0 	adrp	x0, 1002000 <GLOBAL_UART+0x2000>
   86840:	9138e000 	add	x0, x0, #0xe38
   86844:	97ffffe5 	bl	867d8 <raw_uart_puts>
   86848:	90007be0 	adrp	x0, 1002000 <GLOBAL_UART+0x2000>
   8684c:	91396000 	add	x0, x0, #0xe58
   86850:	97ffea0e 	bl	81088 <debug_print>
   86854:	d2a10013 	mov	x19, #0x8000000             	// #134217728
   86858:	52800036 	mov	w22, #0x1                   	// #1
   8685c:	b9000276 	str	w22, [x19]
   86860:	90007be0 	adrp	x0, 1002000 <GLOBAL_UART+0x2000>
   86864:	913a4000 	add	x0, x0, #0xe90
   86868:	97ffea08 	bl	81088 <debug_print>
   8686c:	910a1274 	add	x20, x19, #0x284
   86870:	52a80017 	mov	w23, #0x40000000            	// #1073741824
   86874:	b9028677 	str	w23, [x19, #644]
   86878:	90007be0 	adrp	x0, 1002000 <GLOBAL_UART+0x2000>
   8687c:	913ac000 	add	x0, x0, #0xeb0
   86880:	97ffea02 	bl	81088 <debug_print>
   86884:	b9441e75 	ldr	w21, [x19, #1052]
   86888:	90007be0 	adrp	x0, 1002000 <GLOBAL_UART+0x2000>
   8688c:	913b6000 	add	x0, x0, #0xed8
   86890:	97ffe9fe 	bl	81088 <debug_print>
   86894:	2a1503e0 	mov	w0, w21
   86898:	97ffeed5 	bl	823ec <uart_print_hex>
   8689c:	d0007bd3 	adrp	x19, 1000000 <GLOBAL_UART>
   868a0:	9122a273 	add	x19, x19, #0x8a8
   868a4:	aa1303e0 	mov	x0, x19
   868a8:	97ffe9f8 	bl	81088 <debug_print>
   868ac:	12105eb5 	and	w21, w21, #0xffff00ff
   868b0:	52940000 	mov	w0, #0xa000                	// #40960
   868b4:	2a0002b5 	orr	w21, w21, w0
   868b8:	b9019a95 	str	w21, [x20, #408]
   868bc:	b9419a95 	ldr	w21, [x20, #408]
   868c0:	90007be0 	adrp	x0, 1002000 <GLOBAL_UART+0x2000>
   868c4:	913c0000 	add	x0, x0, #0xf00
   868c8:	97ffe9f0 	bl	81088 <debug_print>
   868cc:	2a1503e0 	mov	w0, w21
   868d0:	97ffeec7 	bl	823ec <uart_print_hex>
   868d4:	aa1303e0 	mov	x0, x19
   868d8:	97ffe9ec 	bl	81088 <debug_print>
   868dc:	d1060294 	sub	x20, x20, #0x180
   868e0:	b9400295 	ldr	w21, [x20]
   868e4:	90007be0 	adrp	x0, 1002000 <GLOBAL_UART+0x2000>
   868e8:	913ca000 	add	x0, x0, #0xf28
   868ec:	97ffe9e7 	bl	81088 <debug_print>
   868f0:	2a1503e0 	mov	w0, w21
   868f4:	97ffeebe 	bl	823ec <uart_print_hex>
   868f8:	aa1303e0 	mov	x0, x19
   868fc:	97ffe9e3 	bl	81088 <debug_print>
   86900:	b9000297 	str	w23, [x20]
   86904:	b9400294 	ldr	w20, [x20]
   86908:	90007be0 	adrp	x0, 1002000 <GLOBAL_UART+0x2000>
   8690c:	913d4000 	add	x0, x0, #0xf50
   86910:	97ffe9de 	bl	81088 <debug_print>
   86914:	2a1403e0 	mov	w0, w20
   86918:	97ffeeb5 	bl	823ec <uart_print_hex>
   8691c:	aa1303e0 	mov	x0, x19
   86920:	97ffe9da 	bl	81088 <debug_print>
   86924:	d2a10020 	mov	x0, #0x8010000             	// #134283264
   86928:	b9000016 	str	w22, [x0]
   8692c:	90007be0 	adrp	x0, 1002000 <GLOBAL_UART+0x2000>
   86930:	913de000 	add	x0, x0, #0xf78
   86934:	97ffe9d5 	bl	81088 <debug_print>
   86938:	d2800080 	mov	x0, #0x4                   	// #4
   8693c:	f2a10020 	movk	x0, #0x801, lsl #16
   86940:	52801fe1 	mov	w1, #0xff                  	// #255
   86944:	b9000001 	str	w1, [x0]
   86948:	90007be0 	adrp	x0, 1002000 <GLOBAL_UART+0x2000>
   8694c:	913e8000 	add	x0, x0, #0xfa0
   86950:	97ffe9ce 	bl	81088 <debug_print>
   86954:	90007be0 	adrp	x0, 1002000 <GLOBAL_UART+0x2000>
   86958:	913f6000 	add	x0, x0, #0xfd8
   8695c:	97ffff9f 	bl	867d8 <raw_uart_puts>
   86960:	d538e114 	mrs	x20, cntkctl_el1
   86964:	90007be0 	adrp	x0, 1002000 <GLOBAL_UART+0x2000>
   86968:	913fe000 	add	x0, x0, #0xff8
   8696c:	97ffe9c7 	bl	81088 <debug_print>
   86970:	aa1403e0 	mov	x0, x20
   86974:	97ffee9e 	bl	823ec <uart_print_hex>
   86978:	aa1303e0 	mov	x0, x19
   8697c:	97ffe9c3 	bl	81088 <debug_print>
   86980:	d2806060 	mov	x0, #0x303                 	// #771
   86984:	aa000294 	orr	x20, x20, x0
   86988:	d518e114 	msr	cntkctl_el1, x20
   8698c:	d538e114 	mrs	x20, cntkctl_el1
   86990:	b0007be0 	adrp	x0, 1003000 <GLOBAL_UART+0x3000>
   86994:	91004000 	add	x0, x0, #0x10
   86998:	97ffe9bc 	bl	81088 <debug_print>
   8699c:	aa1403e0 	mov	x0, x20
   869a0:	97ffee93 	bl	823ec <uart_print_hex>
   869a4:	aa1303e0 	mov	x0, x19
   869a8:	97ffe9b8 	bl	81088 <debug_print>
   869ac:	52800000 	mov	w0, #0x0                   	// #0
   869b0:	d51be220 	msr	cntp_ctl_el0, x0
   869b4:	b0007be0 	adrp	x0, 1003000 <GLOBAL_UART+0x3000>
   869b8:	9100c000 	add	x0, x0, #0x30
   869bc:	97ffe9b3 	bl	81088 <debug_print>
   869c0:	b0007be0 	adrp	x0, 1003000 <GLOBAL_UART+0x3000>
   869c4:	91018000 	add	x0, x0, #0x60
   869c8:	97ffe9b0 	bl	81088 <debug_print>
   869cc:	d290d414 	mov	x20, #0x86a0                	// #34464
   869d0:	f2a00034 	movk	x20, #0x1, lsl #16
   869d4:	aa1403e0 	mov	x0, x20
   869d8:	97ffee85 	bl	823ec <uart_print_hex>
   869dc:	aa1303e0 	mov	x0, x19
   869e0:	97ffe9aa 	bl	81088 <debug_print>
   869e4:	d51be214 	msr	cntp_tval_el0, x20
   869e8:	d53be214 	mrs	x20, cntp_tval_el0
   869ec:	b0007be0 	adrp	x0, 1003000 <GLOBAL_UART+0x3000>
   869f0:	91022000 	add	x0, x0, #0x88
   869f4:	97ffe9a5 	bl	81088 <debug_print>
   869f8:	aa1403e0 	mov	x0, x20
   869fc:	97ffee7c 	bl	823ec <uart_print_hex>
   86a00:	aa1303e0 	mov	x0, x19
   86a04:	97ffe9a1 	bl	81088 <debug_print>
   86a08:	b0007be0 	adrp	x0, 1003000 <GLOBAL_UART+0x3000>
   86a0c:	9102a000 	add	x0, x0, #0xa8
   86a10:	97ffe99e 	bl	81088 <debug_print>
   86a14:	d51be236 	msr	cntp_ctl_el0, x22
   86a18:	d53be234 	mrs	x20, cntp_ctl_el0
   86a1c:	b0007be0 	adrp	x0, 1003000 <GLOBAL_UART+0x3000>
   86a20:	91032000 	add	x0, x0, #0xc8
   86a24:	97ffe999 	bl	81088 <debug_print>
   86a28:	aa1403e0 	mov	x0, x20
   86a2c:	97ffee70 	bl	823ec <uart_print_hex>
   86a30:	aa1303e0 	mov	x0, x19
   86a34:	97ffe995 	bl	81088 <debug_print>
   86a38:	b0007be0 	adrp	x0, 1003000 <GLOBAL_UART+0x3000>
   86a3c:	9103a000 	add	x0, x0, #0xe8
   86a40:	97ffe992 	bl	81088 <debug_print>
   86a44:	b0007be0 	adrp	x0, 1003000 <GLOBAL_UART+0x3000>
   86a48:	91044000 	add	x0, x0, #0x110
   86a4c:	97ffff63 	bl	867d8 <raw_uart_puts>
   86a50:	a94153f3 	ldp	x19, x20, [sp, #16]
   86a54:	a9425bf5 	ldp	x21, x22, [sp, #32]
   86a58:	f9401bf7 	ldr	x23, [sp, #48]
   86a5c:	a8c47bfd 	ldp	x29, x30, [sp], #64
   86a60:	d65f03c0 	ret

0000000000086a64 <force_timer_interrupt>:
   86a64:	a9be7bfd 	stp	x29, x30, [sp, #-32]!
   86a68:	910003fd 	mov	x29, sp
   86a6c:	b0007be0 	adrp	x0, 1003000 <GLOBAL_UART+0x3000>
   86a70:	9104e000 	add	x0, x0, #0x138
   86a74:	97ffe985 	bl	81088 <debug_print>
   86a78:	b0007be0 	adrp	x0, 1003000 <GLOBAL_UART+0x3000>
   86a7c:	9105a000 	add	x0, x0, #0x168
   86a80:	97ffff56 	bl	867d8 <raw_uart_puts>
   86a84:	d2805080 	mov	x0, #0x284                 	// #644
   86a88:	f2a10000 	movk	x0, #0x800, lsl #16
   86a8c:	52a80001 	mov	w1, #0x40000000            	// #1073741824
   86a90:	b9000001 	str	w1, [x0]
   86a94:	b8180001 	stur	w1, [x0, #-128]
   86a98:	b0007be0 	adrp	x0, 1003000 <GLOBAL_UART+0x3000>
   86a9c:	91066000 	add	x0, x0, #0x198
   86aa0:	97ffff4e 	bl	867d8 <raw_uart_puts>
   86aa4:	b9001fff 	str	wzr, [sp, #28]
   86aa8:	b9401fe1 	ldr	w1, [sp, #28]
   86aac:	528847e0 	mov	w0, #0x423f                	// #16959
   86ab0:	72a001e0 	movk	w0, #0xf, lsl #16
   86ab4:	6b00003f 	cmp	w1, w0
   86ab8:	5400010c 	b.gt	86ad8 <force_timer_interrupt+0x74>
   86abc:	2a0003e1 	mov	w1, w0
   86ac0:	b9401fe0 	ldr	w0, [sp, #28]
   86ac4:	11000400 	add	w0, w0, #0x1
   86ac8:	b9001fe0 	str	w0, [sp, #28]
   86acc:	b9401fe0 	ldr	w0, [sp, #28]
   86ad0:	6b01001f 	cmp	w0, w1
   86ad4:	54ffff6d 	b.le	86ac0 <force_timer_interrupt+0x5c>
   86ad8:	b0007be0 	adrp	x0, 1003000 <GLOBAL_UART+0x3000>
   86adc:	91074000 	add	x0, x0, #0x1d0
   86ae0:	97ffff3e 	bl	867d8 <raw_uart_puts>
   86ae4:	a8c27bfd 	ldp	x29, x30, [sp], #32
   86ae8:	d65f03c0 	ret

0000000000086aec <test_irq_handler>:
   86aec:	a9bf7bfd 	stp	x29, x30, [sp, #-16]!
   86af0:	910003fd 	mov	x29, sp
   86af4:	b0007be0 	adrp	x0, 1003000 <GLOBAL_UART+0x3000>
   86af8:	91080000 	add	x0, x0, #0x200
   86afc:	97ffff37 	bl	867d8 <raw_uart_puts>
   86b00:	94000054 	bl	86c50 <irq_handler>
   86b04:	b0007be0 	adrp	x0, 1003000 <GLOBAL_UART+0x3000>
   86b08:	9108c000 	add	x0, x0, #0x230
   86b0c:	97ffff33 	bl	867d8 <raw_uart_puts>
   86b10:	a8c17bfd 	ldp	x29, x30, [sp], #16
   86b14:	d65f03c0 	ret

0000000000086b18 <timer_ack>:
   86b18:	d65f03c0 	ret

0000000000086b1c <init_timer_irq>:
   86b1c:	a9bf7bfd 	stp	x29, x30, [sp, #-16]!
   86b20:	910003fd 	mov	x29, sp
   86b24:	b0007be0 	adrp	x0, 1003000 <GLOBAL_UART+0x3000>
   86b28:	91098000 	add	x0, x0, #0x260
   86b2c:	97ffee01 	bl	82330 <uart_puts>
   86b30:	d2a10000 	mov	x0, #0x8000000             	// #134217728
   86b34:	52800021 	mov	w1, #0x1                   	// #1
   86b38:	b9000001 	str	w1, [x0]
   86b3c:	91041002 	add	x2, x0, #0x104
   86b40:	52a80003 	mov	w3, #0x40000000            	// #1073741824
   86b44:	b9010403 	str	w3, [x0, #260]
   86b48:	b9441c00 	ldr	w0, [x0, #1052]
   86b4c:	12105c00 	and	w0, w0, #0xffff00ff
   86b50:	52940003 	mov	w3, #0xa000                	// #40960
   86b54:	2a030000 	orr	w0, w0, w3
   86b58:	b9031840 	str	w0, [x2, #792]
   86b5c:	d2a10020 	mov	x0, #0x8010000             	// #134283264
   86b60:	b9000001 	str	w1, [x0]
   86b64:	91001000 	add	x0, x0, #0x4
   86b68:	52801fe1 	mov	w1, #0xff                  	// #255
   86b6c:	b9000001 	str	w1, [x0]
   86b70:	b0007be0 	adrp	x0, 1003000 <GLOBAL_UART+0x3000>
   86b74:	910a6000 	add	x0, x0, #0x298
   86b78:	97ffedee 	bl	82330 <uart_puts>
   86b7c:	a8c17bfd 	ldp	x29, x30, [sp], #16
   86b80:	d65f03c0 	ret

0000000000086b84 <init_timer>:
   86b84:	a9be7bfd 	stp	x29, x30, [sp, #-32]!
   86b88:	910003fd 	mov	x29, sp
   86b8c:	f9000bf3 	str	x19, [sp, #16]
   86b90:	2a0003f3 	mov	w19, w0
   86b94:	b0007be0 	adrp	x0, 1003000 <GLOBAL_UART+0x3000>
   86b98:	910b2000 	add	x0, x0, #0x2c8
   86b9c:	97ffede5 	bl	82330 <uart_puts>
   86ba0:	97ffff1c 	bl	86810 <timer_init>
   86ba4:	97ffffde 	bl	86b1c <init_timer_irq>
   86ba8:	b0007be0 	adrp	x0, 1003000 <GLOBAL_UART+0x3000>
   86bac:	910be000 	add	x0, x0, #0x2f8
   86bb0:	97ffede0 	bl	82330 <uart_puts>
   86bb4:	93407e60 	sxtw	x0, w19
   86bb8:	97ffedf4 	bl	82388 <uart_puthex>
   86bbc:	b0007be0 	adrp	x0, 1003000 <GLOBAL_UART+0x3000>
   86bc0:	910c6000 	add	x0, x0, #0x318
   86bc4:	97ffeddb 	bl	82330 <uart_puts>
   86bc8:	b0007be0 	adrp	x0, 1003000 <GLOBAL_UART+0x3000>
   86bcc:	910ca000 	add	x0, x0, #0x328
   86bd0:	97ffedd8 	bl	82330 <uart_puts>
   86bd4:	f9400bf3 	ldr	x19, [sp, #16]
   86bd8:	a8c27bfd 	ldp	x29, x30, [sp], #32
   86bdc:	d65f03c0 	ret

0000000000086be0 <raw_uart_putc>:
   86be0:	12001c00 	and	w0, w0, #0xff
   86be4:	d2800302 	mov	x2, #0x18                  	// #24
   86be8:	f2a12002 	movk	x2, #0x900, lsl #16
   86bec:	b9400041 	ldr	w1, [x2]
   86bf0:	372fffe1 	tbnz	w1, #5, 86bec <raw_uart_putc+0xc>
   86bf4:	d2a12001 	mov	x1, #0x9000000             	// #150994944
   86bf8:	b9000020 	str	w0, [x1]
   86bfc:	d65f03c0 	ret

0000000000086c00 <raw_uart_puts>:
   86c00:	a9be7bfd 	stp	x29, x30, [sp, #-32]!
   86c04:	910003fd 	mov	x29, sp
   86c08:	a90153f3 	stp	x19, x20, [sp, #16]
   86c0c:	aa0003f3 	mov	x19, x0
   86c10:	39400000 	ldrb	w0, [x0]
   86c14:	34000180 	cbz	w0, 86c44 <raw_uart_puts+0x44>
   86c18:	528001b4 	mov	w20, #0xd                   	// #13
   86c1c:	14000005 	b	86c30 <raw_uart_puts+0x30>
   86c20:	38401660 	ldrb	w0, [x19], #1
   86c24:	97ffffef 	bl	86be0 <raw_uart_putc>
   86c28:	39400260 	ldrb	w0, [x19]
   86c2c:	340000c0 	cbz	w0, 86c44 <raw_uart_puts+0x44>
   86c30:	7100281f 	cmp	w0, #0xa
   86c34:	54ffff61 	b.ne	86c20 <raw_uart_puts+0x20>  // b.any
   86c38:	2a1403e0 	mov	w0, w20
   86c3c:	97ffffe9 	bl	86be0 <raw_uart_putc>
   86c40:	17fffff8 	b	86c20 <raw_uart_puts+0x20>
   86c44:	a94153f3 	ldp	x19, x20, [sp, #16]
   86c48:	a8c27bfd 	ldp	x29, x30, [sp], #32
   86c4c:	d65f03c0 	ret

0000000000086c50 <irq_handler>:
   86c50:	a9be7bfd 	stp	x29, x30, [sp, #-32]!
   86c54:	910003fd 	mov	x29, sp
   86c58:	a90153f3 	stp	x19, x20, [sp, #16]
   86c5c:	d0007bf3 	adrp	x19, 1004000 <page_bitmap>
   86c60:	b9405260 	ldr	w0, [x19, #80]
   86c64:	11000400 	add	w0, w0, #0x1
   86c68:	b9005260 	str	w0, [x19, #80]
   86c6c:	52800920 	mov	w0, #0x49                  	// #73
   86c70:	97ffeda8 	bl	82310 <uart_putc>
   86c74:	d2a12001 	mov	x1, #0x9000000             	// #150994944
   86c78:	52800920 	mov	w0, #0x49                  	// #73
   86c7c:	b9000020 	str	w0, [x1]
   86c80:	52800a40 	mov	w0, #0x52                  	// #82
   86c84:	b9000020 	str	w0, [x1]
   86c88:	52800a20 	mov	w0, #0x51                  	// #81
   86c8c:	b9000020 	str	w0, [x1]
   86c90:	52800460 	mov	w0, #0x23                  	// #35
   86c94:	b9000020 	str	w0, [x1]
   86c98:	b9405262 	ldr	w2, [x19, #80]
   86c9c:	528ccce0 	mov	w0, #0x6667                	// #26215
   86ca0:	72acccc0 	movk	w0, #0x6666, lsl #16
   86ca4:	9b207c40 	smull	x0, w2, w0
   86ca8:	9362fc00 	asr	x0, x0, #34
   86cac:	4b827c00 	sub	w0, w0, w2, asr #31
   86cb0:	52800143 	mov	w3, #0xa                   	// #10
   86cb4:	1b038800 	msub	w0, w0, w3, w2
   86cb8:	1100c000 	add	w0, w0, #0x30
   86cbc:	12001c00 	and	w0, w0, #0xff
   86cc0:	b9000020 	str	w0, [x1]
   86cc4:	52800420 	mov	w0, #0x21                  	// #33
   86cc8:	b9000020 	str	w0, [x1]
   86ccc:	528001a0 	mov	w0, #0xd                   	// #13
   86cd0:	b9000020 	str	w0, [x1]
   86cd4:	b9000023 	str	w3, [x1]
   86cd8:	b0007be0 	adrp	x0, 1003000 <GLOBAL_UART+0x3000>
   86cdc:	910da000 	add	x0, x0, #0x368
   86ce0:	97ffffc8 	bl	86c00 <raw_uart_puts>
   86ce4:	d2800180 	mov	x0, #0xc                   	// #12
   86ce8:	f2a10020 	movk	x0, #0x801, lsl #16
   86cec:	b9400014 	ldr	w20, [x0]
   86cf0:	12002693 	and	w19, w20, #0x3ff
   86cf4:	7100267f 	cmp	w19, #0x9
   86cf8:	540002a8 	b.hi	86d4c <irq_handler+0xfc>  // b.pmore
   86cfc:	b0007be0 	adrp	x0, 1003000 <GLOBAL_UART+0x3000>
   86d00:	910e4000 	add	x0, x0, #0x390
   86d04:	97ffffbf 	bl	86c00 <raw_uart_puts>
   86d08:	1100c260 	add	w0, w19, #0x30
   86d0c:	97ffffb5 	bl	86be0 <raw_uart_putc>
   86d10:	d0007bc0 	adrp	x0, 1000000 <GLOBAL_UART>
   86d14:	9122a000 	add	x0, x0, #0x8a8
   86d18:	97ffffba 	bl	86c00 <raw_uart_puts>
   86d1c:	b0007be0 	adrp	x0, 1003000 <GLOBAL_UART+0x3000>
   86d20:	910f2000 	add	x0, x0, #0x3c8
   86d24:	97ffffb7 	bl	86c00 <raw_uart_puts>
   86d28:	d2800200 	mov	x0, #0x10                  	// #16
   86d2c:	f2a10020 	movk	x0, #0x801, lsl #16
   86d30:	b9000014 	str	w20, [x0]
   86d34:	b0007be0 	adrp	x0, 1003000 <GLOBAL_UART+0x3000>
   86d38:	910fa000 	add	x0, x0, #0x3e8
   86d3c:	97ffffb1 	bl	86c00 <raw_uart_puts>
   86d40:	a94153f3 	ldp	x19, x20, [sp, #16]
   86d44:	a8c27bfd 	ldp	x29, x30, [sp], #32
   86d48:	d65f03c0 	ret
   86d4c:	b0007be0 	adrp	x0, 1003000 <GLOBAL_UART+0x3000>
   86d50:	910e4000 	add	x0, x0, #0x390
   86d54:	97ffffab 	bl	86c00 <raw_uart_puts>
   86d58:	1100de60 	add	w0, w19, #0x37
   86d5c:	97ffffa1 	bl	86be0 <raw_uart_putc>
   86d60:	d0007bc0 	adrp	x0, 1000000 <GLOBAL_UART>
   86d64:	9122a000 	add	x0, x0, #0x8a8
   86d68:	97ffffa6 	bl	86c00 <raw_uart_puts>
   86d6c:	71007a7f 	cmp	w19, #0x1e
   86d70:	54fffd61 	b.ne	86d1c <irq_handler+0xcc>  // b.any
   86d74:	b0007be0 	adrp	x0, 1003000 <GLOBAL_UART+0x3000>
   86d78:	910e8000 	add	x0, x0, #0x3a0
   86d7c:	97ffffa1 	bl	86c00 <raw_uart_puts>
   86d80:	9400058c 	bl	883b0 <schedule>
   86d84:	5290d400 	mov	w0, #0x86a0                	// #34464
   86d88:	72a00020 	movk	w0, #0x1, lsl #16
   86d8c:	d51be200 	msr	cntp_tval_el0, x0
   86d90:	d2800000 	mov	x0, #0x0                   	// #0
   86d94:	d51be220 	msr	cntp_ctl_el0, x0
   86d98:	d2800020 	mov	x0, #0x1                   	// #1
   86d9c:	d51be220 	msr	cntp_ctl_el0, x0
   86da0:	17ffffe2 	b	86d28 <irq_handler+0xd8>

0000000000086da4 <enable_interrupts>:
   86da4:	a9be7bfd 	stp	x29, x30, [sp, #-32]!
   86da8:	910003fd 	mov	x29, sp
   86dac:	a90153f3 	stp	x19, x20, [sp, #16]
   86db0:	b0007be0 	adrp	x0, 1003000 <GLOBAL_UART+0x3000>
   86db4:	91100000 	add	x0, x0, #0x400
   86db8:	97ffe8b4 	bl	81088 <debug_print>
   86dbc:	d2a12000 	mov	x0, #0x9000000             	// #150994944
   86dc0:	52800921 	mov	w1, #0x49                  	// #73
   86dc4:	b9000001 	str	w1, [x0]
   86dc8:	528009c1 	mov	w1, #0x4e                  	// #78
   86dcc:	b9000001 	str	w1, [x0]
   86dd0:	52800a82 	mov	w2, #0x54                  	// #84
   86dd4:	b9000002 	str	w2, [x0]
   86dd8:	52800be2 	mov	w2, #0x5f                  	// #95
   86ddc:	b9000002 	str	w2, [x0]
   86de0:	528008a2 	mov	w2, #0x45                  	// #69
   86de4:	b9000002 	str	w2, [x0]
   86de8:	b9000001 	str	w1, [x0]
   86dec:	528001a1 	mov	w1, #0xd                   	// #13
   86df0:	b9000001 	str	w1, [x0]
   86df4:	52800141 	mov	w1, #0xa                   	// #10
   86df8:	b9000001 	str	w1, [x0]
   86dfc:	d53b4234 	mrs	x20, daif
   86e00:	b0007be0 	adrp	x0, 1003000 <GLOBAL_UART+0x3000>
   86e04:	91108000 	add	x0, x0, #0x420
   86e08:	97ffff7e 	bl	86c00 <raw_uart_puts>
   86e0c:	52800393 	mov	w19, #0x1c                  	// #28
   86e10:	9ad32681 	lsr	x1, x20, x19
   86e14:	12000c21 	and	w1, w1, #0xf
   86e18:	1100c020 	add	w0, w1, #0x30
   86e1c:	1100dc22 	add	w2, w1, #0x37
   86e20:	7100243f 	cmp	w1, #0x9
   86e24:	1a808040 	csel	w0, w2, w0, hi	// hi = pmore
   86e28:	97ffff6e 	bl	86be0 <raw_uart_putc>
   86e2c:	51001273 	sub	w19, w19, #0x4
   86e30:	3100127f 	cmn	w19, #0x4
   86e34:	54fffee1 	b.ne	86e10 <enable_interrupts+0x6c>  // b.any
   86e38:	d0007bc0 	adrp	x0, 1000000 <GLOBAL_UART>
   86e3c:	9122a000 	add	x0, x0, #0x8a8
   86e40:	97ffff70 	bl	86c00 <raw_uart_puts>
   86e44:	d5034fff 	msr	daifclr, #0xf
   86e48:	d5033fdf 	isb
   86e4c:	d53b4234 	mrs	x20, daif
   86e50:	b0007be0 	adrp	x0, 1003000 <GLOBAL_UART+0x3000>
   86e54:	9110e000 	add	x0, x0, #0x438
   86e58:	97ffff6a 	bl	86c00 <raw_uart_puts>
   86e5c:	52800393 	mov	w19, #0x1c                  	// #28
   86e60:	9ad32681 	lsr	x1, x20, x19
   86e64:	12000c21 	and	w1, w1, #0xf
   86e68:	1100c020 	add	w0, w1, #0x30
   86e6c:	1100dc22 	add	w2, w1, #0x37
   86e70:	7100243f 	cmp	w1, #0x9
   86e74:	1a808040 	csel	w0, w2, w0, hi	// hi = pmore
   86e78:	97ffff5a 	bl	86be0 <raw_uart_putc>
   86e7c:	51001273 	sub	w19, w19, #0x4
   86e80:	3100127f 	cmn	w19, #0x4
   86e84:	54fffee1 	b.ne	86e60 <enable_interrupts+0xbc>  // b.any
   86e88:	d0007bc0 	adrp	x0, 1000000 <GLOBAL_UART>
   86e8c:	9122a000 	add	x0, x0, #0x8a8
   86e90:	97ffff5c 	bl	86c00 <raw_uart_puts>
   86e94:	b0007be0 	adrp	x0, 1003000 <GLOBAL_UART+0x3000>
   86e98:	91114000 	add	x0, x0, #0x450
   86e9c:	97ffe87b 	bl	81088 <debug_print>
   86ea0:	363801d4 	tbz	w20, #7, 86ed8 <enable_interrupts+0x134>
   86ea4:	b0007be0 	adrp	x0, 1003000 <GLOBAL_UART+0x3000>
   86ea8:	9111a000 	add	x0, x0, #0x468
   86eac:	97ffe877 	bl	81088 <debug_print>
   86eb0:	363001d4 	tbz	w20, #6, 86ee8 <enable_interrupts+0x144>
   86eb4:	b0007be0 	adrp	x0, 1003000 <GLOBAL_UART+0x3000>
   86eb8:	91122000 	add	x0, x0, #0x488
   86ebc:	97ffe873 	bl	81088 <debug_print>
   86ec0:	b0007be0 	adrp	x0, 1003000 <GLOBAL_UART+0x3000>
   86ec4:	9112e000 	add	x0, x0, #0x4b8
   86ec8:	97ffe870 	bl	81088 <debug_print>
   86ecc:	a94153f3 	ldp	x19, x20, [sp, #16]
   86ed0:	a8c27bfd 	ldp	x29, x30, [sp], #32
   86ed4:	d65f03c0 	ret
   86ed8:	b0007be0 	adrp	x0, 1003000 <GLOBAL_UART+0x3000>
   86edc:	9111e000 	add	x0, x0, #0x478
   86ee0:	97ffe86a 	bl	81088 <debug_print>
   86ee4:	17fffff3 	b	86eb0 <enable_interrupts+0x10c>
   86ee8:	b0007be0 	adrp	x0, 1003000 <GLOBAL_UART+0x3000>
   86eec:	91128000 	add	x0, x0, #0x4a0
   86ef0:	97ffe866 	bl	81088 <debug_print>
   86ef4:	17fffff3 	b	86ec0 <enable_interrupts+0x11c>

0000000000086ef8 <enable_irq>:
   86ef8:	a9bf7bfd 	stp	x29, x30, [sp, #-16]!
   86efc:	910003fd 	mov	x29, sp
   86f00:	d50342ff 	msr	daifclr, #0x2
   86f04:	d5033fdf 	isb
   86f08:	b0007be0 	adrp	x0, 1003000 <GLOBAL_UART+0x3000>
   86f0c:	91136000 	add	x0, x0, #0x4d8
   86f10:	97ffe85e 	bl	81088 <debug_print>
   86f14:	a8c17bfd 	ldp	x29, x30, [sp], #16
   86f18:	d65f03c0 	ret

0000000000086f1c <disable_irq>:
   86f1c:	a9bf7bfd 	stp	x29, x30, [sp, #-16]!
   86f20:	910003fd 	mov	x29, sp
   86f24:	d50342df 	msr	daifset, #0x2
   86f28:	d5033fdf 	isb
   86f2c:	b0007be0 	adrp	x0, 1003000 <GLOBAL_UART+0x3000>
   86f30:	9113c000 	add	x0, x0, #0x4f0
   86f34:	97ffe855 	bl	81088 <debug_print>
   86f38:	a8c17bfd 	ldp	x29, x30, [sp], #16
   86f3c:	d65f03c0 	ret

0000000000086f40 <irqs_enabled>:
   86f40:	d53b4220 	mrs	x0, daif
   86f44:	d3471c00 	ubfx	x0, x0, #7, #1
   86f48:	52000000 	eor	w0, w0, #0x1
   86f4c:	d65f03c0 	ret

0000000000086f50 <early_trap_init>:
   86f50:	f81f0ffe 	str	x30, [sp, #-16]!
   86f54:	d28008a0 	mov	x0, #0x45                  	// #69
   86f58:	97ffecee 	bl	82310 <uart_putc>
   86f5c:	d2800a80 	mov	x0, #0x54                  	// #84
   86f60:	97ffecec 	bl	82310 <uart_putc>
   86f64:	f84107fe 	ldr	x30, [sp], #16
   86f68:	d65f03c0 	ret

0000000000086f6c <trap_sync_handler>:
   86f6c:	d2800420 	mov	x0, #0x21                  	// #33
   86f70:	97ffece8 	bl	82310 <uart_putc>
   86f74:	d2800a60 	mov	x0, #0x53                  	// #83
   86f78:	97ffece6 	bl	82310 <uart_putc>
   86f7c:	14000000 	b	86f7c <trap_sync_handler+0x10>

0000000000086f80 <trap_irq_handler>:
   86f80:	d2800420 	mov	x0, #0x21                  	// #33
   86f84:	97ffece3 	bl	82310 <uart_putc>
   86f88:	d2800920 	mov	x0, #0x49                  	// #73
   86f8c:	97ffece1 	bl	82310 <uart_putc>
   86f90:	14000000 	b	86f90 <trap_irq_handler+0x10>

0000000000086f94 <trap_fiq_handler>:
   86f94:	d2800420 	mov	x0, #0x21                  	// #33
   86f98:	97ffecde 	bl	82310 <uart_putc>
   86f9c:	d28008c0 	mov	x0, #0x46                  	// #70
   86fa0:	97ffecdc 	bl	82310 <uart_putc>
   86fa4:	14000000 	b	86fa4 <trap_fiq_handler+0x10>

0000000000086fa8 <trap_serror_handler>:
   86fa8:	d2800420 	mov	x0, #0x21                  	// #33
   86fac:	97ffecd9 	bl	82310 <uart_putc>
   86fb0:	d28008a0 	mov	x0, #0x45                  	// #69
   86fb4:	97ffecd7 	bl	82310 <uart_putc>
   86fb8:	14000000 	b	86fb8 <trap_serror_handler+0x10>
   86fbc:	00000000 	udf	#0

0000000000086fc0 <output_hex_value>:
   86fc0:	d2800784 	mov	x4, #0x3c                  	// #60

0000000000086fc4 <hex_print_loop>:
   86fc4:	aa0003e3 	mov	x3, x0
   86fc8:	9ac42463 	lsr	x3, x3, x4
   86fcc:	92400c63 	and	x3, x3, #0xf
   86fd0:	f100287f 	cmp	x3, #0xa
   86fd4:	5400006b 	b.lt	86fe0 <hex_print_loop+0x1c>  // b.tstop
   86fd8:	9100dc63 	add	x3, x3, #0x37
   86fdc:	14000002 	b	86fe4 <hex_print_loop+0x20>
   86fe0:	9100c063 	add	x3, x3, #0x30
   86fe4:	b90000a3 	str	w3, [x5]
   86fe8:	d1001084 	sub	x4, x4, #0x4
   86fec:	f100009f 	cmp	x4, #0x0
   86ff0:	54fffeaa 	b.ge	86fc4 <hex_print_loop>  // b.tcont
   86ff4:	92400c03 	and	x3, x0, #0xf
   86ff8:	f100287f 	cmp	x3, #0xa
   86ffc:	5400006b 	b.lt	87008 <hex_print_loop+0x44>  // b.tstop
   87000:	9100dc63 	add	x3, x3, #0x37
   87004:	14000002 	b	8700c <hex_print_loop+0x48>
   87008:	9100c063 	add	x3, x3, #0x30
   8700c:	b90000a3 	str	w3, [x5]
   87010:	d65f03c0 	ret

0000000000087014 <serror_debug_handler>:
   87014:	d10203ff 	sub	sp, sp, #0x80
   87018:	a90007e0 	stp	x0, x1, [sp]
   8701c:	a9010fe2 	stp	x2, x3, [sp, #16]
   87020:	a90217e4 	stp	x4, x5, [sp, #32]
   87024:	a9031fe6 	stp	x6, x7, [sp, #48]
   87028:	a90427e8 	stp	x8, x9, [sp, #64]
   8702c:	a9057bfd 	stp	x29, x30, [sp, #80]
   87030:	58001b85 	ldr	x5, 873a0 <serror_debug_handler+0x38c>
   87034:	52800420 	mov	w0, #0x21                  	// #33
   87038:	b90000a0 	str	w0, [x5]
   8703c:	52800420 	mov	w0, #0x21                  	// #33
   87040:	b90000a0 	str	w0, [x5]
   87044:	52800a60 	mov	w0, #0x53                  	// #83
   87048:	b90000a0 	str	w0, [x5]
   8704c:	528008a0 	mov	w0, #0x45                  	// #69
   87050:	b90000a0 	str	w0, [x5]
   87054:	52800e40 	mov	w0, #0x72                  	// #114
   87058:	b90000a0 	str	w0, [x5]
   8705c:	52800e40 	mov	w0, #0x72                  	// #114
   87060:	b90000a0 	str	w0, [x5]
   87064:	52800de0 	mov	w0, #0x6f                  	// #111
   87068:	b90000a0 	str	w0, [x5]
   8706c:	52800e40 	mov	w0, #0x72                  	// #114
   87070:	b90000a0 	str	w0, [x5]
   87074:	52800400 	mov	w0, #0x20                  	// #32
   87078:	b90000a0 	str	w0, [x5]
   8707c:	528008a0 	mov	w0, #0x45                  	// #69
   87080:	b90000a0 	str	w0, [x5]
   87084:	52800f00 	mov	w0, #0x78                  	// #120
   87088:	b90000a0 	str	w0, [x5]
   8708c:	52800c60 	mov	w0, #0x63                  	// #99
   87090:	b90000a0 	str	w0, [x5]
   87094:	52800ca0 	mov	w0, #0x65                  	// #101
   87098:	b90000a0 	str	w0, [x5]
   8709c:	52800e00 	mov	w0, #0x70                  	// #112
   870a0:	b90000a0 	str	w0, [x5]
   870a4:	52800e80 	mov	w0, #0x74                  	// #116
   870a8:	b90000a0 	str	w0, [x5]
   870ac:	52800d20 	mov	w0, #0x69                  	// #105
   870b0:	b90000a0 	str	w0, [x5]
   870b4:	52800de0 	mov	w0, #0x6f                  	// #111
   870b8:	b90000a0 	str	w0, [x5]
   870bc:	52800dc0 	mov	w0, #0x6e                  	// #110
   870c0:	b90000a0 	str	w0, [x5]
   870c4:	52800420 	mov	w0, #0x21                  	// #33
   870c8:	b90000a0 	str	w0, [x5]
   870cc:	52800420 	mov	w0, #0x21                  	// #33
   870d0:	b90000a0 	str	w0, [x5]
   870d4:	528001a0 	mov	w0, #0xd                   	// #13
   870d8:	b90000a0 	str	w0, [x5]
   870dc:	52800140 	mov	w0, #0xa                   	// #10
   870e0:	b90000a0 	str	w0, [x5]
   870e4:	d5384240 	mrs	x0, currentel
   870e8:	d342fc00 	lsr	x0, x0, #2
   870ec:	92400400 	and	x0, x0, #0x3
   870f0:	528008a1 	mov	w1, #0x45                  	// #69
   870f4:	b90000a1 	str	w1, [x5]
   870f8:	52800981 	mov	w1, #0x4c                  	// #76
   870fc:	b90000a1 	str	w1, [x5]
   87100:	52800741 	mov	w1, #0x3a                  	// #58
   87104:	b90000a1 	str	w1, [x5]
   87108:	1100c000 	add	w0, w0, #0x30
   8710c:	b90000a0 	str	w0, [x5]
   87110:	528001a0 	mov	w0, #0xd                   	// #13
   87114:	b90000a0 	str	w0, [x5]
   87118:	52800140 	mov	w0, #0xa                   	// #10
   8711c:	b90000a0 	str	w0, [x5]
   87120:	528008a0 	mov	w0, #0x45                  	// #69
   87124:	b90000a0 	str	w0, [x5]
   87128:	52800980 	mov	w0, #0x4c                  	// #76
   8712c:	b90000a0 	str	w0, [x5]
   87130:	52800a40 	mov	w0, #0x52                  	// #82
   87134:	b90000a0 	str	w0, [x5]
   87138:	52800be0 	mov	w0, #0x5f                  	// #95
   8713c:	b90000a0 	str	w0, [x5]
   87140:	528008a0 	mov	w0, #0x45                  	// #69
   87144:	b90000a0 	str	w0, [x5]
   87148:	52800980 	mov	w0, #0x4c                  	// #76
   8714c:	b90000a0 	str	w0, [x5]
   87150:	52800620 	mov	w0, #0x31                  	// #49
   87154:	b90000a0 	str	w0, [x5]
   87158:	52800740 	mov	w0, #0x3a                  	// #58
   8715c:	b90000a0 	str	w0, [x5]
   87160:	52800400 	mov	w0, #0x20                  	// #32
   87164:	b90000a0 	str	w0, [x5]
   87168:	d5384020 	mrs	x0, elr_el1
   8716c:	97ffff95 	bl	86fc0 <output_hex_value>
   87170:	528001a0 	mov	w0, #0xd                   	// #13
   87174:	b90000a0 	str	w0, [x5]
   87178:	52800140 	mov	w0, #0xa                   	// #10
   8717c:	b90000a0 	str	w0, [x5]
   87180:	528008a0 	mov	w0, #0x45                  	// #69
   87184:	b90000a0 	str	w0, [x5]
   87188:	52800a60 	mov	w0, #0x53                  	// #83
   8718c:	b90000a0 	str	w0, [x5]
   87190:	52800a40 	mov	w0, #0x52                  	// #82
   87194:	b90000a0 	str	w0, [x5]
   87198:	52800be0 	mov	w0, #0x5f                  	// #95
   8719c:	b90000a0 	str	w0, [x5]
   871a0:	528008a0 	mov	w0, #0x45                  	// #69
   871a4:	b90000a0 	str	w0, [x5]
   871a8:	52800980 	mov	w0, #0x4c                  	// #76
   871ac:	b90000a0 	str	w0, [x5]
   871b0:	52800620 	mov	w0, #0x31                  	// #49
   871b4:	b90000a0 	str	w0, [x5]
   871b8:	52800740 	mov	w0, #0x3a                  	// #58
   871bc:	b90000a0 	str	w0, [x5]
   871c0:	52800400 	mov	w0, #0x20                  	// #32
   871c4:	b90000a0 	str	w0, [x5]
   871c8:	d5385200 	mrs	x0, esr_el1
   871cc:	97ffff7d 	bl	86fc0 <output_hex_value>
   871d0:	528001a0 	mov	w0, #0xd                   	// #13
   871d4:	b90000a0 	str	w0, [x5]
   871d8:	52800140 	mov	w0, #0xa                   	// #10
   871dc:	b90000a0 	str	w0, [x5]
   871e0:	528008c0 	mov	w0, #0x46                  	// #70
   871e4:	b90000a0 	str	w0, [x5]
   871e8:	52800820 	mov	w0, #0x41                  	// #65
   871ec:	b90000a0 	str	w0, [x5]
   871f0:	52800a40 	mov	w0, #0x52                  	// #82
   871f4:	b90000a0 	str	w0, [x5]
   871f8:	52800be0 	mov	w0, #0x5f                  	// #95
   871fc:	b90000a0 	str	w0, [x5]
   87200:	528008a0 	mov	w0, #0x45                  	// #69
   87204:	b90000a0 	str	w0, [x5]
   87208:	52800980 	mov	w0, #0x4c                  	// #76
   8720c:	b90000a0 	str	w0, [x5]
   87210:	52800620 	mov	w0, #0x31                  	// #49
   87214:	b90000a0 	str	w0, [x5]
   87218:	52800740 	mov	w0, #0x3a                  	// #58
   8721c:	b90000a0 	str	w0, [x5]
   87220:	52800400 	mov	w0, #0x20                  	// #32
   87224:	b90000a0 	str	w0, [x5]
   87228:	d5386000 	mrs	x0, far_el1
   8722c:	97ffff65 	bl	86fc0 <output_hex_value>
   87230:	528001a0 	mov	w0, #0xd                   	// #13
   87234:	b90000a0 	str	w0, [x5]
   87238:	52800140 	mov	w0, #0xa                   	// #10
   8723c:	b90000a0 	str	w0, [x5]
   87240:	52800a60 	mov	w0, #0x53                  	// #83
   87244:	b90000a0 	str	w0, [x5]
   87248:	52800a00 	mov	w0, #0x50                  	// #80
   8724c:	b90000a0 	str	w0, [x5]
   87250:	52800a60 	mov	w0, #0x53                  	// #83
   87254:	b90000a0 	str	w0, [x5]
   87258:	52800a40 	mov	w0, #0x52                  	// #82
   8725c:	b90000a0 	str	w0, [x5]
   87260:	52800be0 	mov	w0, #0x5f                  	// #95
   87264:	b90000a0 	str	w0, [x5]
   87268:	528008a0 	mov	w0, #0x45                  	// #69
   8726c:	b90000a0 	str	w0, [x5]
   87270:	52800980 	mov	w0, #0x4c                  	// #76
   87274:	b90000a0 	str	w0, [x5]
   87278:	52800620 	mov	w0, #0x31                  	// #49
   8727c:	b90000a0 	str	w0, [x5]
   87280:	52800740 	mov	w0, #0x3a                  	// #58
   87284:	b90000a0 	str	w0, [x5]
   87288:	52800400 	mov	w0, #0x20                  	// #32
   8728c:	b90000a0 	str	w0, [x5]
   87290:	d5384000 	mrs	x0, spsr_el1
   87294:	97ffff4b 	bl	86fc0 <output_hex_value>
   87298:	528001a0 	mov	w0, #0xd                   	// #13
   8729c:	b90000a0 	str	w0, [x5]
   872a0:	52800140 	mov	w0, #0xa                   	// #10
   872a4:	b90000a0 	str	w0, [x5]
   872a8:	52800a60 	mov	w0, #0x53                  	// #83
   872ac:	b90000a0 	str	w0, [x5]
   872b0:	52800a00 	mov	w0, #0x50                  	// #80
   872b4:	b90000a0 	str	w0, [x5]
   872b8:	52800be0 	mov	w0, #0x5f                  	// #95
   872bc:	b90000a0 	str	w0, [x5]
   872c0:	528008a0 	mov	w0, #0x45                  	// #69
   872c4:	b90000a0 	str	w0, [x5]
   872c8:	52800980 	mov	w0, #0x4c                  	// #76
   872cc:	b90000a0 	str	w0, [x5]
   872d0:	52800600 	mov	w0, #0x30                  	// #48
   872d4:	b90000a0 	str	w0, [x5]
   872d8:	52800740 	mov	w0, #0x3a                  	// #58
   872dc:	b90000a0 	str	w0, [x5]
   872e0:	52800400 	mov	w0, #0x20                  	// #32
   872e4:	b90000a0 	str	w0, [x5]
   872e8:	d5384100 	mrs	x0, sp_el0
   872ec:	97ffff35 	bl	86fc0 <output_hex_value>
   872f0:	528001a0 	mov	w0, #0xd                   	// #13
   872f4:	b90000a0 	str	w0, [x5]
   872f8:	52800140 	mov	w0, #0xa                   	// #10
   872fc:	b90000a0 	str	w0, [x5]
   87300:	52800a60 	mov	w0, #0x53                  	// #83
   87304:	b90000a0 	str	w0, [x5]
   87308:	52800a00 	mov	w0, #0x50                  	// #80
   8730c:	b90000a0 	str	w0, [x5]
   87310:	52800be0 	mov	w0, #0x5f                  	// #95
   87314:	b90000a0 	str	w0, [x5]
   87318:	528008a0 	mov	w0, #0x45                  	// #69
   8731c:	b90000a0 	str	w0, [x5]
   87320:	52800980 	mov	w0, #0x4c                  	// #76
   87324:	b90000a0 	str	w0, [x5]
   87328:	52800620 	mov	w0, #0x31                  	// #49
   8732c:	b90000a0 	str	w0, [x5]
   87330:	52800740 	mov	w0, #0x3a                  	// #58
   87334:	b90000a0 	str	w0, [x5]
   87338:	52800400 	mov	w0, #0x20                  	// #32
   8733c:	b90000a0 	str	w0, [x5]
   87340:	910203e0 	add	x0, sp, #0x80
   87344:	97ffff1f 	bl	86fc0 <output_hex_value>
   87348:	528001a0 	mov	w0, #0xd                   	// #13
   8734c:	b90000a0 	str	w0, [x5]
   87350:	52800140 	mov	w0, #0xa                   	// #10
   87354:	b90000a0 	str	w0, [x5]
   87358:	d5385200 	mrs	x0, esr_el1
   8735c:	528008a1 	mov	w1, #0x45                  	// #69
   87360:	b90000a1 	str	w1, [x5]
   87364:	52800861 	mov	w1, #0x43                  	// #67
   87368:	b90000a1 	str	w1, [x5]
   8736c:	52800741 	mov	w1, #0x3a                  	// #58
   87370:	b90000a1 	str	w1, [x5]
   87374:	52800401 	mov	w1, #0x20                  	// #32
   87378:	b90000a1 	str	w1, [x5]
   8737c:	d35afc01 	lsr	x1, x0, #26
   87380:	92401421 	and	x1, x1, #0x3f
   87384:	aa0103e0 	mov	x0, x1
   87388:	97ffff0e 	bl	86fc0 <output_hex_value>
   8738c:	528001a0 	mov	w0, #0xd                   	// #13
   87390:	b90000a0 	str	w0, [x5]
   87394:	52800140 	mov	w0, #0xa                   	// #10
   87398:	b90000a0 	str	w0, [x5]
   8739c:	17ffff1e 	b	87014 <serror_debug_handler>
   873a0:	09000000 	.word	0x09000000
   873a4:	00000000 	.word	0x00000000

00000000000873a8 <snprintf>:
   873a8:	d101c3ff 	sub	sp, sp, #0x70
   873ac:	aa0003e8 	mov	x8, x0
   873b0:	a90493e3 	stp	x3, x4, [sp, #72]
   873b4:	a9059be5 	stp	x5, x6, [sp, #88]
   873b8:	f90037e7 	str	x7, [sp, #104]
   873bc:	9101c3e0 	add	x0, sp, #0x70
   873c0:	a90203e0 	stp	x0, x0, [sp, #32]
   873c4:	910103e0 	add	x0, sp, #0x40
   873c8:	f9001be0 	str	x0, [sp, #48]
   873cc:	128004e0 	mov	w0, #0xffffffd8            	// #-40
   873d0:	29077fe0 	stp	w0, wzr, [sp, #56]
   873d4:	39400044 	ldrb	w4, [x2]
   873d8:	34000164 	cbz	w4, 87404 <snprintf+0x5c>
   873dc:	d2800003 	mov	x3, #0x0                   	// #0
   873e0:	52800000 	mov	w0, #0x0                   	// #0
   873e4:	d1000426 	sub	x6, x1, #0x1
   873e8:	d1000509 	sub	x9, x8, #0x1
   873ec:	90007bec 	adrp	x12, 1003000 <GLOBAL_UART+0x3000>
   873f0:	9114218c 	add	x12, x12, #0x508
   873f4:	910023e7 	add	x7, sp, #0x8
   873f8:	5280000b 	mov	w11, #0x0                   	// #0
   873fc:	5280002a 	mov	w10, #0x1                   	// #1
   87400:	14000008 	b	87420 <snprintf+0x78>
   87404:	52800000 	mov	w0, #0x0                   	// #0
   87408:	140000ce 	b	87740 <snprintf+0x398>
   8740c:	11000400 	add	w0, w0, #0x1
   87410:	38256904 	strb	w4, [x8, x5]
   87414:	91000463 	add	x3, x3, #0x1
   87418:	38636844 	ldrb	w4, [x2, x3]
   8741c:	34001924 	cbz	w4, 87740 <snprintf+0x398>
   87420:	93407c05 	sxtw	x5, w0
   87424:	eb0600bf 	cmp	x5, x6
   87428:	540018c2 	b.cs	87740 <snprintf+0x398>  // b.hs, b.nlast
   8742c:	7100949f 	cmp	w4, #0x25
   87430:	54fffee1 	b.ne	8740c <snprintf+0x64>  // b.any
   87434:	9100046d 	add	x13, x3, #0x1
   87438:	386d6844 	ldrb	w4, [x2, x13]
   8743c:	7101cc9f 	cmp	w4, #0x73
   87440:	540013a0 	b.eq	876b4 <snprintf+0x30c>  // b.none
   87444:	54000268 	b.hi	87490 <snprintf+0xe8>  // b.pmore
   87448:	7101909f 	cmp	w4, #0x64
   8744c:	54000be0 	b.eq	875c8 <snprintf+0x220>  // b.none
   87450:	7101b09f 	cmp	w4, #0x6c
   87454:	540017c1 	b.ne	8774c <snprintf+0x3a4>  // b.any
   87458:	91000863 	add	x3, x3, #0x2
   8745c:	38636844 	ldrb	w4, [x2, x3]
   87460:	7101e09f 	cmp	w4, #0x78
   87464:	54000560 	b.eq	87510 <snprintf+0x168>  // b.none
   87468:	528004a4 	mov	w4, #0x25                  	// #37
   8746c:	3820c904 	strb	w4, [x8, w0, sxtw]
   87470:	11000804 	add	w4, w0, #0x2
   87474:	11000405 	add	w5, w0, #0x1
   87478:	52800d8d 	mov	w13, #0x6c                  	// #108
   8747c:	3825c90d 	strb	w13, [x8, w5, sxtw]
   87480:	38636845 	ldrb	w5, [x2, x3]
   87484:	3824c905 	strb	w5, [x8, w4, sxtw]
   87488:	11000c00 	add	w0, w0, #0x3
   8748c:	1400001e 	b	87504 <snprintf+0x15c>
   87490:	7101e09f 	cmp	w4, #0x78
   87494:	540015c1 	b.ne	8774c <snprintf+0x3a4>  // b.any
   87498:	b9403be4 	ldr	w4, [sp, #56]
   8749c:	f94013e3 	ldr	x3, [sp, #32]
   874a0:	37f80184 	tbnz	w4, #31, 874d0 <snprintf+0x128>
   874a4:	91003c64 	add	x4, x3, #0xf
   874a8:	927df084 	and	x4, x4, #0xfffffffffffffff8
   874ac:	f90013e4 	str	x4, [sp, #32]
   874b0:	f940006f 	ldr	x15, [x3]
   874b4:	a9401584 	ldp	x4, x5, [x12]
   874b8:	39404183 	ldrb	w3, [x12, #16]
   874bc:	a90014e4 	stp	x4, x5, [x7]
   874c0:	390040e3 	strb	w3, [x7, #16]
   874c4:	52800783 	mov	w3, #0x3c                  	// #60
   874c8:	2a0b03ee 	mov	w14, w11
   874cc:	140000bc 	b	877bc <snprintf+0x414>
   874d0:	11002085 	add	w5, w4, #0x8
   874d4:	b9003be5 	str	w5, [sp, #56]
   874d8:	710000bf 	cmp	w5, #0x0
   874dc:	540000ad 	b.le	874f0 <snprintf+0x148>
   874e0:	91003c64 	add	x4, x3, #0xf
   874e4:	927df084 	and	x4, x4, #0xfffffffffffffff8
   874e8:	f90013e4 	str	x4, [sp, #32]
   874ec:	17fffff1 	b	874b0 <snprintf+0x108>
   874f0:	f94017e3 	ldr	x3, [sp, #40]
   874f4:	8b24c063 	add	x3, x3, w4, sxtw
   874f8:	17ffffee 	b	874b0 <snprintf+0x108>
   874fc:	aa0d03e3 	mov	x3, x13
   87500:	2a0503e0 	mov	w0, w5
   87504:	eb20c0df 	cmp	x6, w0, sxtw
   87508:	54fff868 	b.hi	87414 <snprintf+0x6c>  // b.pmore
   8750c:	1400008d 	b	87740 <snprintf+0x398>
   87510:	b9403bed 	ldr	w13, [sp, #56]
   87514:	f94013e4 	ldr	x4, [sp, #32]
   87518:	37f8036d 	tbnz	w13, #31, 87584 <snprintf+0x1dc>
   8751c:	91003c8d 	add	x13, x4, #0xf
   87520:	927df1ad 	and	x13, x13, #0xfffffffffffffff8
   87524:	f90013ed 	str	x13, [sp, #32]
   87528:	f9400090 	ldr	x16, [x4]
   8752c:	90007be4 	adrp	x4, 1003000 <GLOBAL_UART+0x3000>
   87530:	91142084 	add	x4, x4, #0x508
   87534:	a9403c8e 	ldp	x14, x15, [x4]
   87538:	39404084 	ldrb	w4, [x4, #16]
   8753c:	a900bfee 	stp	x14, x15, [sp, #8]
   87540:	390063e4 	strb	w4, [sp, #24]
   87544:	11000404 	add	w4, w0, #0x1
   87548:	5280060d 	mov	w13, #0x30                  	// #48
   8754c:	3825690d 	strb	w13, [x8, x5]
   87550:	eb24c0df 	cmp	x6, w4, sxtw
   87554:	540002e9 	b.ls	875b0 <snprintf+0x208>  // b.plast
   87558:	11000800 	add	w0, w0, #0x2
   8755c:	52800f05 	mov	w5, #0x78                  	// #120
   87560:	3824c905 	strb	w5, [x8, w4, sxtw]
   87564:	eb20c0df 	cmp	x6, w0, sxtw
   87568:	54fffce9 	b.ls	87504 <snprintf+0x15c>  // b.plast
   8756c:	52800784 	mov	w4, #0x3c                  	// #60
   87570:	5280000e 	mov	w14, #0x0                   	// #0
   87574:	52800012 	mov	w18, #0x0                   	// #0
   87578:	910023ef 	add	x15, sp, #0x8
   8757c:	52800031 	mov	w17, #0x1                   	// #1
   87580:	1400007b 	b	8776c <snprintf+0x3c4>
   87584:	110021ae 	add	w14, w13, #0x8
   87588:	b9003bee 	str	w14, [sp, #56]
   8758c:	710001df 	cmp	w14, #0x0
   87590:	540000ad 	b.le	875a4 <snprintf+0x1fc>
   87594:	91003c8d 	add	x13, x4, #0xf
   87598:	927df1ad 	and	x13, x13, #0xfffffffffffffff8
   8759c:	f90013ed 	str	x13, [sp, #32]
   875a0:	17ffffe2 	b	87528 <snprintf+0x180>
   875a4:	f94017e4 	ldr	x4, [sp, #40]
   875a8:	8b2dc084 	add	x4, x4, w13, sxtw
   875ac:	17ffffdf 	b	87528 <snprintf+0x180>
   875b0:	2a0403e0 	mov	w0, w4
   875b4:	17ffffd4 	b	87504 <snprintf+0x15c>
   875b8:	2a0d03e0 	mov	w0, w13
   875bc:	17ffffd2 	b	87504 <snprintf+0x15c>
   875c0:	2a0d03e0 	mov	w0, w13
   875c4:	17ffffd0 	b	87504 <snprintf+0x15c>
   875c8:	b9403be4 	ldr	w4, [sp, #56]
   875cc:	f94013e3 	ldr	x3, [sp, #32]
   875d0:	37f801a4 	tbnz	w4, #31, 87604 <snprintf+0x25c>
   875d4:	91002c64 	add	x4, x3, #0xb
   875d8:	927df084 	and	x4, x4, #0xfffffffffffffff8
   875dc:	f90013e4 	str	x4, [sp, #32]
   875e0:	b9400064 	ldr	w4, [x3]
   875e4:	36f80284 	tbz	w4, #31, 87634 <snprintf+0x28c>
   875e8:	11000400 	add	w0, w0, #0x1
   875ec:	528005a3 	mov	w3, #0x2d                  	// #45
   875f0:	38256903 	strb	w3, [x8, x5]
   875f4:	eb20c0df 	cmp	x6, w0, sxtw
   875f8:	540001c8 	b.hi	87630 <snprintf+0x288>  // b.pmore
   875fc:	aa0d03e3 	mov	x3, x13
   87600:	17ffffc1 	b	87504 <snprintf+0x15c>
   87604:	1100208e 	add	w14, w4, #0x8
   87608:	b9003bee 	str	w14, [sp, #56]
   8760c:	710001df 	cmp	w14, #0x0
   87610:	540000ad 	b.le	87624 <snprintf+0x27c>
   87614:	91002c64 	add	x4, x3, #0xb
   87618:	927df084 	and	x4, x4, #0xfffffffffffffff8
   8761c:	f90013e4 	str	x4, [sp, #32]
   87620:	17fffff0 	b	875e0 <snprintf+0x238>
   87624:	f94017e3 	ldr	x3, [sp, #40]
   87628:	8b24c063 	add	x3, x3, w4, sxtw
   8762c:	17ffffed 	b	875e0 <snprintf+0x238>
   87630:	4b0403e4 	neg	w4, w4
   87634:	910023f0 	add	x16, sp, #0x8
   87638:	52800005 	mov	w5, #0x0                   	// #0
   8763c:	528cccf2 	mov	w18, #0x6667                	// #26215
   87640:	72acccd2 	movk	w18, #0x6666, lsl #16
   87644:	52800151 	mov	w17, #0xa                   	// #10
   87648:	2a0503ef 	mov	w15, w5
   8764c:	110004a5 	add	w5, w5, #0x1
   87650:	9b327c83 	smull	x3, w4, w18
   87654:	9362fc63 	asr	x3, x3, #34
   87658:	4b847c63 	sub	w3, w3, w4, asr #31
   8765c:	1b11906e 	msub	w14, w3, w17, w4
   87660:	1100c1ce 	add	w14, w14, #0x30
   87664:	3800160e 	strb	w14, [x16], #1
   87668:	2a0403ee 	mov	w14, w4
   8766c:	2a0303e4 	mov	w4, w3
   87670:	710025df 	cmp	w14, #0x9
   87674:	7a52c8a0 	ccmp	w5, #0x12, #0x0, gt
   87678:	54fffe8d 	b.le	87648 <snprintf+0x2a0>
   8767c:	93407c03 	sxtw	x3, w0
   87680:	910023e4 	add	x4, sp, #0x8
   87684:	8b2fc084 	add	x4, x4, w15, sxtw
   87688:	0b0f000f 	add	w15, w0, w15
   8768c:	2a0303e0 	mov	w0, w3
   87690:	eb0300df 	cmp	x6, x3
   87694:	54fffb49 	b.ls	875fc <snprintf+0x254>  // b.plast
   87698:	385ff485 	ldrb	w5, [x4], #-1
   8769c:	38236905 	strb	w5, [x8, x3]
   876a0:	91000463 	add	x3, x3, #0x1
   876a4:	6b0301ff 	cmp	w15, w3
   876a8:	54ffff25 	b.pl	8768c <snprintf+0x2e4>  // b.nfrst
   876ac:	11000400 	add	w0, w0, #0x1
   876b0:	17ffffd3 	b	875fc <snprintf+0x254>
   876b4:	b9403be4 	ldr	w4, [sp, #56]
   876b8:	f94013e3 	ldr	x3, [sp, #32]
   876bc:	37f80264 	tbnz	w4, #31, 87708 <snprintf+0x360>
   876c0:	91003c64 	add	x4, x3, #0xf
   876c4:	927df084 	and	x4, x4, #0xfffffffffffffff8
   876c8:	f90013e4 	str	x4, [sp, #32]
   876cc:	f9400064 	ldr	x4, [x3]
   876d0:	39400083 	ldrb	w3, [x4]
   876d4:	34000443 	cbz	w3, 8775c <snprintf+0x3b4>
   876d8:	11000400 	add	w0, w0, #0x1
   876dc:	93407c00 	sxtw	x0, w0
   876e0:	aa2503e5 	mvn	x5, x5
   876e4:	8b050085 	add	x5, x4, x5
   876e8:	eb00003f 	cmp	x1, x0
   876ec:	54000280 	b.eq	8773c <snprintf+0x394>  // b.none
   876f0:	38206923 	strb	w3, [x9, x0]
   876f4:	91000404 	add	x4, x0, #0x1
   876f8:	386468a3 	ldrb	w3, [x5, x4]
   876fc:	340001c3 	cbz	w3, 87734 <snprintf+0x38c>
   87700:	aa0403e0 	mov	x0, x4
   87704:	17fffff9 	b	876e8 <snprintf+0x340>
   87708:	1100208e 	add	w14, w4, #0x8
   8770c:	b9003bee 	str	w14, [sp, #56]
   87710:	710001df 	cmp	w14, #0x0
   87714:	540000ad 	b.le	87728 <snprintf+0x380>
   87718:	91003c64 	add	x4, x3, #0xf
   8771c:	927df084 	and	x4, x4, #0xfffffffffffffff8
   87720:	f90013e4 	str	x4, [sp, #32]
   87724:	17ffffea 	b	876cc <snprintf+0x324>
   87728:	f94017e3 	ldr	x3, [sp, #40]
   8772c:	8b24c063 	add	x3, x3, w4, sxtw
   87730:	17ffffe7 	b	876cc <snprintf+0x324>
   87734:	aa0d03e3 	mov	x3, x13
   87738:	17ffff73 	b	87504 <snprintf+0x15c>
   8773c:	51000400 	sub	w0, w0, #0x1
   87740:	3820c91f 	strb	wzr, [x8, w0, sxtw]
   87744:	9101c3ff 	add	sp, sp, #0x70
   87748:	d65f03c0 	ret
   8774c:	11000400 	add	w0, w0, #0x1
   87750:	38256904 	strb	w4, [x8, x5]
   87754:	aa0d03e3 	mov	x3, x13
   87758:	17ffff6b 	b	87504 <snprintf+0x15c>
   8775c:	aa0d03e3 	mov	x3, x13
   87760:	17ffff2d 	b	87414 <snprintf+0x6c>
   87764:	51001084 	sub	w4, w4, #0x4
   87768:	2a1203ee 	mov	w14, w18
   8776c:	9ac42605 	lsr	x5, x16, x4
   87770:	12000cad 	and	w13, w5, #0xf
   87774:	2a0e01ad 	orr	w13, w13, w14
   87778:	710001bf 	cmp	w13, #0x0
   8777c:	7a400884 	ccmp	w4, #0x0, #0x4, eq	// eq = none
   87780:	54ffff21 	b.ne	87764 <snprintf+0x3bc>  // b.any
   87784:	1100040d 	add	w13, w0, #0x1
   87788:	12000ca5 	and	w5, w5, #0xf
   8778c:	386569e5 	ldrb	w5, [x15, x5]
   87790:	3820c905 	strb	w5, [x8, w0, sxtw]
   87794:	eb2dc0df 	cmp	x6, w13, sxtw
   87798:	54fff109 	b.ls	875b8 <snprintf+0x210>  // b.plast
   8779c:	51001084 	sub	w4, w4, #0x4
   877a0:	3100109f 	cmn	w4, #0x4
   877a4:	54fff0e0 	b.eq	875c0 <snprintf+0x218>  // b.none
   877a8:	2a0d03e0 	mov	w0, w13
   877ac:	2a1103ee 	mov	w14, w17
   877b0:	17ffffef 	b	8776c <snprintf+0x3c4>
   877b4:	51001063 	sub	w3, w3, #0x4
   877b8:	2a0b03ee 	mov	w14, w11
   877bc:	9ac325e4 	lsr	x4, x15, x3
   877c0:	12000c85 	and	w5, w4, #0xf
   877c4:	2a0e00a5 	orr	w5, w5, w14
   877c8:	710000bf 	cmp	w5, #0x0
   877cc:	7a400864 	ccmp	w3, #0x0, #0x4, eq	// eq = none
   877d0:	54ffff21 	b.ne	877b4 <snprintf+0x40c>  // b.any
   877d4:	11000405 	add	w5, w0, #0x1
   877d8:	12000c84 	and	w4, w4, #0xf
   877dc:	386468e4 	ldrb	w4, [x7, x4]
   877e0:	3820c904 	strb	w4, [x8, w0, sxtw]
   877e4:	eb25c0df 	cmp	x6, w5, sxtw
   877e8:	54ffe8a9 	b.ls	874fc <snprintf+0x154>  // b.plast
   877ec:	51001063 	sub	w3, w3, #0x4
   877f0:	3100107f 	cmn	w3, #0x4
   877f4:	54ffe840 	b.eq	874fc <snprintf+0x154>  // b.none
   877f8:	2a0503e0 	mov	w0, w5
   877fc:	2a0a03ee 	mov	w14, w10
   87800:	17ffffef 	b	877bc <snprintf+0x414>

0000000000087804 <known_alive_function>:
   87804:	d10043ff 	sub	sp, sp, #0x10
   87808:	d2a12000 	mov	x0, #0x9000000             	// #150994944
   8780c:	52800961 	mov	w1, #0x4b                  	// #75
   87810:	b9000001 	str	w1, [x0]
   87814:	528008c1 	mov	w1, #0x46                  	// #70
   87818:	b9000001 	str	w1, [x0]
   8781c:	aa0003e3 	mov	x3, x0
   87820:	528005c2 	mov	w2, #0x2e                  	// #46
   87824:	528847e1 	mov	w1, #0x423f                	// #16959
   87828:	72a001e1 	movk	w1, #0xf, lsl #16
   8782c:	b9000062 	str	w2, [x3]
   87830:	b9000fff 	str	wzr, [sp, #12]
   87834:	b9400fe0 	ldr	w0, [sp, #12]
   87838:	6b01001f 	cmp	w0, w1
   8783c:	54ffff8c 	b.gt	8782c <known_alive_function+0x28>
   87840:	b9400fe0 	ldr	w0, [sp, #12]
   87844:	11000400 	add	w0, w0, #0x1
   87848:	b9000fe0 	str	w0, [sp, #12]
   8784c:	b9400fe0 	ldr	w0, [sp, #12]
   87850:	6b01001f 	cmp	w0, w1
   87854:	54ffff6d 	b.le	87840 <known_alive_function+0x3c>
   87858:	17fffff5 	b	8782c <known_alive_function+0x28>

000000000008785c <debug_print_raw>:
   8785c:	d10203ff 	sub	sp, sp, #0x80
   87860:	a9048be1 	stp	x1, x2, [sp, #72]
   87864:	a90593e3 	stp	x3, x4, [sp, #88]
   87868:	a9069be5 	stp	x5, x6, [sp, #104]
   8786c:	f9003fe7 	str	x7, [sp, #120]
   87870:	910203e1 	add	x1, sp, #0x80
   87874:	a90207e1 	stp	x1, x1, [sp, #32]
   87878:	910103e1 	add	x1, sp, #0x40
   8787c:	f9001be1 	str	x1, [sp, #48]
   87880:	128006e1 	mov	w1, #0xffffffc8            	// #-56
   87884:	29077fe1 	stp	w1, wzr, [sp, #56]
   87888:	39400001 	ldrb	w1, [x0]
   8788c:	340006e1 	cbz	w1, 87968 <debug_print_raw+0x10c>
   87890:	d2a12002 	mov	x2, #0x9000000             	// #150994944
   87894:	528004a4 	mov	w4, #0x25                  	// #37
   87898:	14000029 	b	8793c <debug_print_raw+0xe0>
   8789c:	b9403be3 	ldr	w3, [sp, #56]
   878a0:	f94013e0 	ldr	x0, [sp, #32]
   878a4:	37f802c3 	tbnz	w3, #31, 878fc <debug_print_raw+0xa0>
   878a8:	91002c03 	add	x3, x0, #0xb
   878ac:	927df063 	and	x3, x3, #0xfffffffffffffff8
   878b0:	f90013e3 	str	x3, [sp, #32]
   878b4:	b9400007 	ldr	w7, [x0]
   878b8:	90007be0 	adrp	x0, 1003000 <GLOBAL_UART+0x3000>
   878bc:	91142000 	add	x0, x0, #0x508
   878c0:	a9402408 	ldp	x8, x9, [x0]
   878c4:	39404000 	ldrb	w0, [x0, #16]
   878c8:	a900a7e8 	stp	x8, x9, [sp, #8]
   878cc:	390063e0 	strb	w0, [sp, #24]
   878d0:	52800380 	mov	w0, #0x1c                  	// #28
   878d4:	910023e6 	add	x6, sp, #0x8
   878d8:	d2a12005 	mov	x5, #0x9000000             	// #150994944
   878dc:	1ac024e3 	lsr	w3, w7, w0
   878e0:	12000c63 	and	w3, w3, #0xf
   878e4:	386348c3 	ldrb	w3, [x6, w3, uxtw]
   878e8:	b90000a3 	str	w3, [x5]
   878ec:	51001000 	sub	w0, w0, #0x4
   878f0:	3100101f 	cmn	w0, #0x4
   878f4:	54ffff41 	b.ne	878dc <debug_print_raw+0x80>  // b.any
   878f8:	1400000e 	b	87930 <debug_print_raw+0xd4>
   878fc:	11002065 	add	w5, w3, #0x8
   87900:	b9003be5 	str	w5, [sp, #56]
   87904:	710000bf 	cmp	w5, #0x0
   87908:	540000ad 	b.le	8791c <debug_print_raw+0xc0>
   8790c:	91002c03 	add	x3, x0, #0xb
   87910:	927df063 	and	x3, x3, #0xfffffffffffffff8
   87914:	f90013e3 	str	x3, [sp, #32]
   87918:	17ffffe7 	b	878b4 <debug_print_raw+0x58>
   8791c:	f94017e0 	ldr	x0, [sp, #40]
   87920:	8b23c000 	add	x0, x0, w3, sxtw
   87924:	17ffffe4 	b	878b4 <debug_print_raw+0x58>
   87928:	b9000041 	str	w1, [x2]
   8792c:	aa0003e1 	mov	x1, x0
   87930:	91000420 	add	x0, x1, #0x1
   87934:	39400421 	ldrb	w1, [x1, #1]
   87938:	34000181 	cbz	w1, 87968 <debug_print_raw+0x10c>
   8793c:	7100943f 	cmp	w1, #0x25
   87940:	54ffff41 	b.ne	87928 <debug_print_raw+0xcc>  // b.any
   87944:	39400403 	ldrb	w3, [x0, #1]
   87948:	34ffff03 	cbz	w3, 87928 <debug_print_raw+0xcc>
   8794c:	91000401 	add	x1, x0, #0x1
   87950:	7101e07f 	cmp	w3, #0x78
   87954:	54fffa40 	b.eq	8789c <debug_print_raw+0x40>  // b.none
   87958:	b9000044 	str	w4, [x2]
   8795c:	39400400 	ldrb	w0, [x0, #1]
   87960:	b9000040 	str	w0, [x2]
   87964:	17fffff3 	b	87930 <debug_print_raw+0xd4>
   87968:	910203ff 	add	sp, sp, #0x80
   8796c:	d65f03c0 	ret

0000000000087970 <dummy_task_a>:
   87970:	d2a12000 	mov	x0, #0x9000000             	// #150994944
   87974:	52800881 	mov	w1, #0x44                  	// #68
   87978:	b9000001 	str	w1, [x0]
   8797c:	52800821 	mov	w1, #0x41                  	// #65
   87980:	b9000001 	str	w1, [x0]
   87984:	528001a2 	mov	w2, #0xd                   	// #13
   87988:	b9000002 	str	w2, [x0]
   8798c:	52800142 	mov	w2, #0xa                   	// #10
   87990:	b9000002 	str	w2, [x0]
   87994:	b9000001 	str	w1, [x0]
   87998:	b9000001 	str	w1, [x0]
   8799c:	b9000001 	str	w1, [x0]
   879a0:	b0007be0 	adrp	x0, 1004000 <page_bitmap>
   879a4:	f9402c00 	ldr	x0, [x0, #88]
   879a8:	b4000140 	cbz	x0, 879d0 <dummy_task_a+0x60>
   879ac:	b9411000 	ldr	w0, [x0, #272]
   879b0:	35000100 	cbnz	w0, 879d0 <dummy_task_a+0x60>
   879b4:	a9be7bfd 	stp	x29, x30, [sp, #-32]!
   879b8:	910003fd 	mov	x29, sp
   879bc:	f9000bf3 	str	x19, [sp, #16]
   879c0:	52800833 	mov	w19, #0x41                  	// #65
   879c4:	2a1303e0 	mov	w0, w19
   879c8:	97ffea52 	bl	82310 <uart_putc>
   879cc:	17fffffe 	b	879c4 <dummy_task_a+0x54>
   879d0:	d65f03c0 	ret

00000000000879d4 <dummy_task_b>:
   879d4:	a9be7bfd 	stp	x29, x30, [sp, #-32]!
   879d8:	910003fd 	mov	x29, sp
   879dc:	f9000bf3 	str	x19, [sp, #16]
   879e0:	d2a12000 	mov	x0, #0x9000000             	// #150994944
   879e4:	52800881 	mov	w1, #0x44                  	// #68
   879e8:	b9000001 	str	w1, [x0]
   879ec:	52800841 	mov	w1, #0x42                  	// #66
   879f0:	b9000001 	str	w1, [x0]
   879f4:	528001a1 	mov	w1, #0xd                   	// #13
   879f8:	b9000001 	str	w1, [x0]
   879fc:	52800141 	mov	w1, #0xa                   	// #10
   87a00:	b9000001 	str	w1, [x0]
   87a04:	52800853 	mov	w19, #0x42                  	// #66
   87a08:	2a1303e0 	mov	w0, w19
   87a0c:	97ffea41 	bl	82310 <uart_putc>
   87a10:	17fffffe 	b	87a08 <dummy_task_b+0x34>

0000000000087a14 <create_task>:
   87a14:	a9b57bfd 	stp	x29, x30, [sp, #-176]!
   87a18:	910003fd 	mov	x29, sp
   87a1c:	f90027e0 	str	x0, [sp, #72]
   87a20:	d2a12000 	mov	x0, #0x9000000             	// #150994944
   87a24:	52800a81 	mov	w1, #0x54                  	// #84
   87a28:	b9000001 	str	w1, [x0]
   87a2c:	52800861 	mov	w1, #0x43                  	// #67
   87a30:	b9000001 	str	w1, [x0]
   87a34:	52800741 	mov	w1, #0x3a                  	// #58
   87a38:	b9000001 	str	w1, [x0]
   87a3c:	f94027e0 	ldr	x0, [sp, #72]
   87a40:	b4000120 	cbz	x0, 87a64 <create_task+0x50>
   87a44:	a90153f3 	stp	x19, x20, [sp, #16]
   87a48:	d2a12000 	mov	x0, #0x9000000             	// #150994944
   87a4c:	52800801 	mov	w1, #0x40                  	// #64
   87a50:	b9000001 	str	w1, [x0]
   87a54:	910123e7 	add	x7, sp, #0x48
   87a58:	91013fe4 	add	x4, sp, #0x4f
   87a5c:	aa0003e5 	mov	x5, x0
   87a60:	1400000e 	b	87a98 <create_task+0x84>
   87a64:	d2a12000 	mov	x0, #0x9000000             	// #150994944
   87a68:	52800601 	mov	w1, #0x30                  	// #48
   87a6c:	b9000001 	str	w1, [x0]
   87a70:	52800421 	mov	w1, #0x21                  	// #33
   87a74:	b9000001 	str	w1, [x0]
   87a78:	90007be0 	adrp	x0, 1003000 <GLOBAL_UART+0x3000>
   87a7c:	91148000 	add	x0, x0, #0x520
   87a80:	97ffe582 	bl	81088 <debug_print>
   87a84:	d2a12001 	mov	x1, #0x9000000             	// #150994944
   87a88:	52800dc0 	mov	w0, #0x6e                  	// #110
   87a8c:	b9000020 	str	w0, [x1]
   87a90:	17ffffff 	b	87a8c <create_task+0x78>
   87a94:	aa0303e4 	mov	x4, x3
   87a98:	aa0403e3 	mov	x3, x4
   87a9c:	385ff460 	ldrb	w0, [x3], #-1
   87aa0:	53047c02 	lsr	w2, w0, #4
   87aa4:	12000c00 	and	w0, w0, #0xf
   87aa8:	1100c046 	add	w6, w2, #0x30
   87aac:	1100dc41 	add	w1, w2, #0x37
   87ab0:	7100245f 	cmp	w2, #0x9
   87ab4:	1a868021 	csel	w1, w1, w6, hi	// hi = pmore
   87ab8:	b90000a1 	str	w1, [x5]
   87abc:	1100c002 	add	w2, w0, #0x30
   87ac0:	1100dc01 	add	w1, w0, #0x37
   87ac4:	7100241f 	cmp	w0, #0x9
   87ac8:	1a828020 	csel	w0, w1, w2, hi	// hi = pmore
   87acc:	b90000a0 	str	w0, [x5]
   87ad0:	eb07009f 	cmp	x4, x7
   87ad4:	54fffe01 	b.ne	87a94 <create_task+0x80>  // b.any
   87ad8:	d2a12000 	mov	x0, #0x9000000             	// #150994944
   87adc:	528001a1 	mov	w1, #0xd                   	// #13
   87ae0:	b9000001 	str	w1, [x0]
   87ae4:	52800141 	mov	w1, #0xa                   	// #10
   87ae8:	b9000001 	str	w1, [x0]
   87aec:	f94027f3 	ldr	x19, [sp, #72]
   87af0:	910243f4 	add	x20, sp, #0x90
   87af4:	aa1303e3 	mov	x3, x19
   87af8:	90007be2 	adrp	x2, 1003000 <GLOBAL_UART+0x3000>
   87afc:	91154042 	add	x2, x2, #0x550
   87b00:	d2800401 	mov	x1, #0x20                  	// #32
   87b04:	aa1403e0 	mov	x0, x20
   87b08:	97fffe28 	bl	873a8 <snprintf>
   87b0c:	aa1403e0 	mov	x0, x20
   87b10:	97ffe55e 	bl	81088 <debug_print>
   87b14:	d0ffffc3 	adrp	x3, 81000 <task_a>
   87b18:	91000063 	add	x3, x3, #0x0
   87b1c:	90007be2 	adrp	x2, 1003000 <GLOBAL_UART+0x3000>
   87b20:	91158042 	add	x2, x2, #0x560
   87b24:	d2800401 	mov	x1, #0x20                  	// #32
   87b28:	aa1403e0 	mov	x0, x20
   87b2c:	97fffe1f 	bl	873a8 <snprintf>
   87b30:	aa1403e0 	mov	x0, x20
   87b34:	97ffe555 	bl	81088 <debug_print>
   87b38:	b0ffffe3 	adrp	x3, 84000 <mmu_continuation_point>
   87b3c:	911ba063 	add	x3, x3, #0x6e8
   87b40:	90007be2 	adrp	x2, 1003000 <GLOBAL_UART+0x3000>
   87b44:	9115e042 	add	x2, x2, #0x578
   87b48:	d2800401 	mov	x1, #0x20                  	// #32
   87b4c:	aa1403e0 	mov	x0, x20
   87b50:	97fffe16 	bl	873a8 <snprintf>
   87b54:	aa1403e0 	mov	x0, x20
   87b58:	97ffe54c 	bl	81088 <debug_print>
   87b5c:	531c7e73 	lsr	w19, w19, #28
   87b60:	f100267f 	cmp	x19, #0x9
   87b64:	540001c8 	b.hi	87b9c <create_task+0x188>  // b.pmore
   87b68:	1100c273 	add	w19, w19, #0x30
   87b6c:	d2a12000 	mov	x0, #0x9000000             	// #150994944
   87b70:	b9000013 	str	w19, [x0]
   87b74:	b0007be0 	adrp	x0, 1004000 <page_bitmap>
   87b78:	b9406000 	ldr	w0, [x0, #96]
   87b7c:	71001c1f 	cmp	w0, #0x7
   87b80:	5400016d 	b.le	87bac <create_task+0x198>
   87b84:	d2a12000 	mov	x0, #0x9000000             	// #150994944
   87b88:	528009a1 	mov	w1, #0x4d                  	// #77
   87b8c:	b9000001 	str	w1, [x0]
   87b90:	a94153f3 	ldp	x19, x20, [sp, #16]
   87b94:	a8cb7bfd 	ldp	x29, x30, [sp], #176
   87b98:	d65f03c0 	ret
   87b9c:	1100de73 	add	w19, w19, #0x37
   87ba0:	d2a12000 	mov	x0, #0x9000000             	// #150994944
   87ba4:	b9000013 	str	w19, [x0]
   87ba8:	17fffff3 	b	87b74 <create_task+0x160>
   87bac:	97ffeb73 	bl	82978 <alloc_page>
   87bb0:	aa0003f4 	mov	x20, x0
   87bb4:	b4000c80 	cbz	x0, 87d44 <create_task+0x330>
   87bb8:	a9025bf5 	stp	x21, x22, [sp, #32]
   87bbc:	aa0003f3 	mov	x19, x0
   87bc0:	53186c00 	ubfx	w0, w0, #24, #4
   87bc4:	1100c000 	add	w0, w0, #0x30
   87bc8:	d2a12001 	mov	x1, #0x9000000             	// #150994944
   87bcc:	b9000020 	str	w0, [x1]
   87bd0:	97ffeb6a 	bl	82978 <alloc_page>
   87bd4:	aa0003f5 	mov	x21, x0
   87bd8:	b4000be0 	cbz	x0, 87d54 <create_task+0x340>
   87bdc:	d2802702 	mov	x2, #0x138                 	// #312
   87be0:	52800001 	mov	w1, #0x0                   	// #0
   87be4:	97ffea39 	bl	824c8 <memset>
   87be8:	f94027e0 	ldr	x0, [sp, #72]
   87bec:	b4000c20 	cbz	x0, 87d70 <create_task+0x35c>
   87bf0:	a90363f7 	stp	x23, x24, [sp, #48]
   87bf4:	53186c00 	ubfx	w0, w0, #24, #4
   87bf8:	1100c000 	add	w0, w0, #0x30
   87bfc:	d2a12001 	mov	x1, #0x9000000             	// #150994944
   87c00:	b9000020 	str	w0, [x1]
   87c04:	91400696 	add	x22, x20, #0x1, lsl #12
   87c08:	927ceed6 	and	x22, x22, #0xfffffffffffffff0
   87c0c:	910143f8 	add	x24, sp, #0x50
   87c10:	aa1603e4 	mov	x4, x22
   87c14:	aa1403e3 	mov	x3, x20
   87c18:	90007be2 	adrp	x2, 1003000 <GLOBAL_UART+0x3000>
   87c1c:	91166042 	add	x2, x2, #0x598
   87c20:	d2800801 	mov	x1, #0x40                  	// #64
   87c24:	aa1803e0 	mov	x0, x24
   87c28:	97fffde0 	bl	873a8 <snprintf>
   87c2c:	aa1803e0 	mov	x0, x24
   87c30:	97ffe516 	bl	81088 <debug_print>
   87c34:	90007be0 	adrp	x0, 1003000 <GLOBAL_UART+0x3000>
   87c38:	91170000 	add	x0, x0, #0x5c0
   87c3c:	97ffe9bd 	bl	82330 <uart_puts>
   87c40:	aa1403e0 	mov	x0, x20
   87c44:	97ffe9d1 	bl	82388 <uart_puthex>
   87c48:	b0007bc0 	adrp	x0, 1000000 <GLOBAL_UART>
   87c4c:	9122a000 	add	x0, x0, #0x8a8
   87c50:	97ffe9b8 	bl	82330 <uart_puts>
   87c54:	d10202d7 	sub	x23, x22, #0x80
   87c58:	90007be4 	adrp	x4, 1003000 <GLOBAL_UART+0x3000>
   87c5c:	91176084 	add	x4, x4, #0x5d8
   87c60:	aa1703e3 	mov	x3, x23
   87c64:	90007be2 	adrp	x2, 1003000 <GLOBAL_UART+0x3000>
   87c68:	91178042 	add	x2, x2, #0x5e0
   87c6c:	d2800801 	mov	x1, #0x40                  	// #64
   87c70:	aa1803e0 	mov	x0, x24
   87c74:	97fffdcd 	bl	873a8 <snprintf>
   87c78:	aa1803e0 	mov	x0, x24
   87c7c:	97ffe503 	bl	81088 <debug_print>
   87c80:	d297dde3 	mov	x3, #0xbeef                	// #48879
   87c84:	f2bbd5a3 	movk	x3, #0xdead, lsl #16
   87c88:	f81802c3 	stur	x3, [x22, #-128]
   87c8c:	90007be2 	adrp	x2, 1003000 <GLOBAL_UART+0x3000>
   87c90:	91182042 	add	x2, x2, #0x608
   87c94:	d2800801 	mov	x1, #0x40                  	// #64
   87c98:	aa1803e0 	mov	x0, x24
   87c9c:	97fffdc3 	bl	873a8 <snprintf>
   87ca0:	aa1803e0 	mov	x0, x24
   87ca4:	97ffe4f9 	bl	81088 <debug_print>
   87ca8:	91010282 	add	x2, x20, #0x40
   87cac:	12800aa1 	mov	w1, #0xffffffaa            	// #-86
   87cb0:	38001661 	strb	w1, [x19], #1
   87cb4:	eb02027f 	cmp	x19, x2
   87cb8:	54ffffc1 	b.ne	87cb0 <create_task+0x29c>  // b.any
   87cbc:	90007be0 	adrp	x0, 1003000 <GLOBAL_UART+0x3000>
   87cc0:	9118e000 	add	x0, x0, #0x638
   87cc4:	97ffe99b 	bl	82330 <uart_puts>
   87cc8:	d2800001 	mov	x1, #0x0                   	// #0
   87ccc:	d2d7dde0 	mov	x0, #0xbeef00000000        	// #209933706461184
   87cd0:	f2fbd5a0 	movk	x0, #0xdead, lsl #48
   87cd4:	aa000022 	orr	x2, x1, x0
   87cd8:	f8217a82 	str	x2, [x20, x1, lsl #3]
   87cdc:	91000421 	add	x1, x1, #0x1
   87ce0:	f100203f 	cmp	x1, #0x8
   87ce4:	54ffff81 	b.ne	87cd4 <create_task+0x2c0>  // b.any
   87ce8:	90007be0 	adrp	x0, 1003000 <GLOBAL_UART+0x3000>
   87cec:	9119c000 	add	x0, x0, #0x670
   87cf0:	97ffe990 	bl	82330 <uart_puts>
   87cf4:	d2801002 	mov	x2, #0x80                  	// #128
   87cf8:	52800001 	mov	w1, #0x0                   	// #0
   87cfc:	aa1703e0 	mov	x0, x23
   87d00:	97ffe9f2 	bl	824c8 <memset>
   87d04:	f90002b6 	str	x22, [x21]
   87d08:	90007be0 	adrp	x0, 1003000 <GLOBAL_UART+0x3000>
   87d0c:	911a8000 	add	x0, x0, #0x6a0
   87d10:	97ffe4de 	bl	81088 <debug_print>
   87d14:	d2a12000 	mov	x0, #0x9000000             	// #150994944
   87d18:	52800a01 	mov	w1, #0x50                  	// #80
   87d1c:	b9000001 	str	w1, [x0]
   87d20:	52800421 	mov	w1, #0x21                  	// #33
   87d24:	b9000001 	str	w1, [x0]
   87d28:	aa1403e0 	mov	x0, x20
   87d2c:	97ffeb51 	bl	82a70 <free_page>
   87d30:	aa1503e0 	mov	x0, x21
   87d34:	97ffeb4f 	bl	82a70 <free_page>
   87d38:	a9425bf5 	ldp	x21, x22, [sp, #32]
   87d3c:	a94363f7 	ldp	x23, x24, [sp, #48]
   87d40:	17ffff94 	b	87b90 <create_task+0x17c>
   87d44:	d2a12000 	mov	x0, #0x9000000             	// #150994944
   87d48:	52800a61 	mov	w1, #0x53                  	// #83
   87d4c:	b9000001 	str	w1, [x0]
   87d50:	17ffff90 	b	87b90 <create_task+0x17c>
   87d54:	d2a12000 	mov	x0, #0x9000000             	// #150994944
   87d58:	52800a81 	mov	w1, #0x54                  	// #84
   87d5c:	b9000001 	str	w1, [x0]
   87d60:	aa1403e0 	mov	x0, x20
   87d64:	97ffeb43 	bl	82a70 <free_page>
   87d68:	a9425bf5 	ldp	x21, x22, [sp, #32]
   87d6c:	17ffff89 	b	87b90 <create_task+0x17c>
   87d70:	d2a12000 	mov	x0, #0x9000000             	// #150994944
   87d74:	528008a1 	mov	w1, #0x45                  	// #69
   87d78:	b9000001 	str	w1, [x0]
   87d7c:	aa1403e0 	mov	x0, x20
   87d80:	97ffeb3c 	bl	82a70 <free_page>
   87d84:	aa1503e0 	mov	x0, x21
   87d88:	97ffeb3a 	bl	82a70 <free_page>
   87d8c:	a9425bf5 	ldp	x21, x22, [sp, #32]
   87d90:	17ffff80 	b	87b90 <create_task+0x17c>

0000000000087d94 <init_tasks>:
   87d94:	a9b87bfd 	stp	x29, x30, [sp, #-128]!
   87d98:	910003fd 	mov	x29, sp
   87d9c:	a90153f3 	stp	x19, x20, [sp, #16]
   87da0:	a9025bf5 	stp	x21, x22, [sp, #32]
   87da4:	a90363f7 	stp	x23, x24, [sp, #48]
   87da8:	b0007bf6 	adrp	x22, 1004000 <page_bitmap>
   87dac:	910162d5 	add	x21, x22, #0x58
   87db0:	b9000abf 	str	wzr, [x21, #8]
   87db4:	f9002edf 	str	xzr, [x22, #88]
   87db8:	910042a0 	add	x0, x21, #0x10
   87dbc:	a9017ebf 	stp	xzr, xzr, [x21, #16]
   87dc0:	a9017c1f 	stp	xzr, xzr, [x0, #16]
   87dc4:	a9027c1f 	stp	xzr, xzr, [x0, #32]
   87dc8:	a9037c1f 	stp	xzr, xzr, [x0, #48]
   87dcc:	d2a12013 	mov	x19, #0x9000000             	// #150994944
   87dd0:	52800b60 	mov	w0, #0x5b                  	// #91
   87dd4:	b9000260 	str	w0, [x19]
   87dd8:	52800920 	mov	w0, #0x49                  	// #73
   87ddc:	b9000260 	str	w0, [x19]
   87de0:	528009c1 	mov	w1, #0x4e                  	// #78
   87de4:	b9000261 	str	w1, [x19]
   87de8:	b9000260 	str	w0, [x19]
   87dec:	52800a97 	mov	w23, #0x54                  	// #84
   87df0:	b9000277 	str	w23, [x19]
   87df4:	52800be0 	mov	w0, #0x5f                  	// #95
   87df8:	b9000260 	str	w0, [x19]
   87dfc:	b9000277 	str	w23, [x19]
   87e00:	52800ba0 	mov	w0, #0x5d                  	// #93
   87e04:	b9000260 	str	w0, [x19]
   87e08:	528001a0 	mov	w0, #0xd                   	// #13
   87e0c:	b9000260 	str	w0, [x19]
   87e10:	52800140 	mov	w0, #0xa                   	// #10
   87e14:	b9000260 	str	w0, [x19]
   87e18:	aa1e03e3 	mov	x3, x30
   87e1c:	910103f4 	add	x20, sp, #0x40
   87e20:	90007be2 	adrp	x2, 1003000 <GLOBAL_UART+0x3000>
   87e24:	911b6042 	add	x2, x2, #0x6d8
   87e28:	d2800801 	mov	x1, #0x40                  	// #64
   87e2c:	aa1403e0 	mov	x0, x20
   87e30:	97fffd5e 	bl	873a8 <snprintf>
   87e34:	aa1403e0 	mov	x0, x20
   87e38:	97ffe494 	bl	81088 <debug_print>
   87e3c:	52800878 	mov	w24, #0x43                  	// #67
   87e40:	b9000278 	str	w24, [x19]
   87e44:	b9000277 	str	w23, [x19]
   87e48:	52800820 	mov	w0, #0x41                  	// #65
   87e4c:	b9000260 	str	w0, [x19]
   87e50:	b0000000 	adrp	x0, 88000 <create_el0_task+0x110>
   87e54:	91104000 	add	x0, x0, #0x410
   87e58:	97fffeef 	bl	87a14 <create_task>
   87e5c:	52800840 	mov	w0, #0x42                  	// #66
   87e60:	b9000260 	str	w0, [x19]
   87e64:	b0000000 	adrp	x0, 88000 <create_el0_task+0x110>
   87e68:	9112d000 	add	x0, x0, #0x4b4
   87e6c:	97fffeea 	bl	87a14 <create_task>
   87e70:	b9000278 	str	w24, [x19]
   87e74:	b0000000 	adrp	x0, 88000 <create_el0_task+0x110>
   87e78:	91156000 	add	x0, x0, #0x558
   87e7c:	97fffee6 	bl	87a14 <create_task>
   87e80:	52800880 	mov	w0, #0x44                  	// #68
   87e84:	b9000260 	str	w0, [x19]
   87e88:	b0000000 	adrp	x0, 88000 <create_el0_task+0x110>
   87e8c:	9117f000 	add	x0, x0, #0x5fc
   87e90:	97fffee1 	bl	87a14 <create_task>
   87e94:	52800a60 	mov	w0, #0x53                  	// #83
   87e98:	b9000260 	str	w0, [x19]
   87e9c:	f9400aa0 	ldr	x0, [x21, #16]
   87ea0:	f9002ec0 	str	x0, [x22, #88]
   87ea4:	52800041 	mov	w1, #0x2                   	// #2
   87ea8:	b9011401 	str	w1, [x0, #276]
   87eac:	f9409404 	ldr	x4, [x0, #296]
   87eb0:	f9408003 	ldr	x3, [x0, #256]
   87eb4:	90007be2 	adrp	x2, 1003000 <GLOBAL_UART+0x3000>
   87eb8:	911bc042 	add	x2, x2, #0x6f0
   87ebc:	d2800801 	mov	x1, #0x40                  	// #64
   87ec0:	aa1403e0 	mov	x0, x20
   87ec4:	97fffd39 	bl	873a8 <snprintf>
   87ec8:	aa1403e0 	mov	x0, x20
   87ecc:	97ffe46f 	bl	81088 <debug_print>
   87ed0:	90007be0 	adrp	x0, 1003000 <GLOBAL_UART+0x3000>
   87ed4:	911c4000 	add	x0, x0, #0x710
   87ed8:	97ffe916 	bl	82330 <uart_puts>
   87edc:	a94153f3 	ldp	x19, x20, [sp, #16]
   87ee0:	a9425bf5 	ldp	x21, x22, [sp, #32]
   87ee4:	a94363f7 	ldp	x23, x24, [sp, #48]
   87ee8:	a8c87bfd 	ldp	x29, x30, [sp], #128
   87eec:	d65f03c0 	ret

0000000000087ef0 <create_el0_task>:
   87ef0:	a9bd7bfd 	stp	x29, x30, [sp, #-48]!
   87ef4:	910003fd 	mov	x29, sp
   87ef8:	f90013f5 	str	x21, [sp, #32]
   87efc:	aa0003f5 	mov	x21, x0
   87f00:	90007be0 	adrp	x0, 1003000 <GLOBAL_UART+0x3000>
   87f04:	911ce000 	add	x0, x0, #0x738
   87f08:	97ffe90a 	bl	82330 <uart_puts>
   87f0c:	aa1503e0 	mov	x0, x21
   87f10:	97ffe94c 	bl	82440 <uart_hex64>
   87f14:	b0007bc0 	adrp	x0, 1000000 <GLOBAL_UART>
   87f18:	9122a000 	add	x0, x0, #0x8a8
   87f1c:	97ffe905 	bl	82330 <uart_puts>
   87f20:	b0007be0 	adrp	x0, 1004000 <page_bitmap>
   87f24:	b9406000 	ldr	w0, [x0, #96]
   87f28:	71001c1f 	cmp	w0, #0x7
   87f2c:	540009cc 	b.gt	88064 <create_el0_task+0x174>
   87f30:	a90153f3 	stp	x19, x20, [sp, #16]
   87f34:	97ffea91 	bl	82978 <alloc_page>
   87f38:	aa0003f4 	mov	x20, x0
   87f3c:	b40009c0 	cbz	x0, 88074 <create_el0_task+0x184>
   87f40:	97ffea8e 	bl	82978 <alloc_page>
   87f44:	aa0003f3 	mov	x19, x0
   87f48:	b4000a00 	cbz	x0, 88088 <create_el0_task+0x198>
   87f4c:	d2802702 	mov	x2, #0x138                 	// #312
   87f50:	52800001 	mov	w1, #0x0                   	// #0
   87f54:	97ffe95d 	bl	824c8 <memset>
   87f58:	91400685 	add	x5, x20, #0x1, lsl #12
   87f5c:	927ceca5 	and	x5, x5, #0xfffffffffffffff0
   87f60:	d10200a5 	sub	x5, x5, #0x80
   87f64:	d2800001 	mov	x1, #0x0                   	// #0
   87f68:	91002263 	add	x3, x19, #0x8
   87f6c:	d2fdc004 	mov	x4, #0xee00000000000000    	// #-1297036692682702848
   87f70:	aa040022 	orr	x2, x1, x4
   87f74:	f8217862 	str	x2, [x3, x1, lsl #3]
   87f78:	91000421 	add	x1, x1, #0x1
   87f7c:	f100403f 	cmp	x1, #0x10
   87f80:	54ffff81 	b.ne	87f70 <create_el0_task+0x80>  // b.any
   87f84:	b2481c22 	orr	x2, x1, #0xff00000000000000
   87f88:	f8217862 	str	x2, [x3, x1, lsl #3]
   87f8c:	91000421 	add	x1, x1, #0x1
   87f90:	f1007c3f 	cmp	x1, #0x1f
   87f94:	54ffff81 	b.ne	87f84 <create_el0_task+0x94>  // b.any
   87f98:	f9000265 	str	x5, [x19]
   87f9c:	d2800800 	mov	x0, #0x40                  	// #64
   87fa0:	a9100275 	stp	x21, x0, [x19, #256]
   87fa4:	90007be0 	adrp	x0, 1003000 <GLOBAL_UART+0x3000>
   87fa8:	91202000 	add	x0, x0, #0x808
   87fac:	97ffe8e1 	bl	82330 <uart_puts>
   87fb0:	f9408260 	ldr	x0, [x19, #256]
   87fb4:	97ffe923 	bl	82440 <uart_hex64>
   87fb8:	90007be0 	adrp	x0, 1003000 <GLOBAL_UART+0x3000>
   87fbc:	9120c000 	add	x0, x0, #0x830
   87fc0:	97ffe8dc 	bl	82330 <uart_puts>
   87fc4:	f9408660 	ldr	x0, [x19, #264]
   87fc8:	97ffe91e 	bl	82440 <uart_hex64>
   87fcc:	b0007bc0 	adrp	x0, 1000000 <GLOBAL_UART>
   87fd0:	9122a000 	add	x0, x0, #0x8a8
   87fd4:	97ffe8d7 	bl	82330 <uart_puts>
   87fd8:	b0007bf4 	adrp	x20, 1004000 <page_bitmap>
   87fdc:	91016294 	add	x20, x20, #0x58
   87fe0:	b9400a83 	ldr	w3, [x20, #8]
   87fe4:	b9011263 	str	w3, [x19, #272]
   87fe8:	b901167f 	str	wzr, [x19, #276]
   87fec:	90007be2 	adrp	x2, 1003000 <GLOBAL_UART+0x3000>
   87ff0:	91210042 	add	x2, x2, #0x840
   87ff4:	d2800201 	mov	x1, #0x10                  	// #16
   87ff8:	91046260 	add	x0, x19, #0x118
   87ffc:	97fffceb 	bl	873a8 <snprintf>
   88000:	f9009675 	str	x21, [x19, #296]
   88004:	b9400a80 	ldr	w0, [x20, #8]
   88008:	7100001f 	cmp	w0, #0x0
   8800c:	540004cd 	b.le	880a4 <create_el0_task+0x1b4>
   88010:	91004282 	add	x2, x20, #0x10
   88014:	51000403 	sub	w3, w0, #0x1
   88018:	f863d843 	ldr	x3, [x2, w3, sxtw #3]
   8801c:	f9009873 	str	x19, [x3, #304]
   88020:	f9400a83 	ldr	x3, [x20, #16]
   88024:	f9009a63 	str	x3, [x19, #304]
   88028:	f820d853 	str	x19, [x2, w0, sxtw #3]
   8802c:	11000400 	add	w0, w0, #0x1
   88030:	b9000a80 	str	w0, [x20, #8]
   88034:	f0007bc0 	adrp	x0, 1003000 <GLOBAL_UART+0x3000>
   88038:	91214000 	add	x0, x0, #0x850
   8803c:	97ffe8bd 	bl	82330 <uart_puts>
   88040:	aa1503e0 	mov	x0, x21
   88044:	97ffe8ff 	bl	82440 <uart_hex64>
   88048:	90007bc0 	adrp	x0, 1000000 <GLOBAL_UART>
   8804c:	9122a000 	add	x0, x0, #0x8a8
   88050:	97ffe8b8 	bl	82330 <uart_puts>
   88054:	a94153f3 	ldp	x19, x20, [sp, #16]
   88058:	f94013f5 	ldr	x21, [sp, #32]
   8805c:	a8c37bfd 	ldp	x29, x30, [sp], #48
   88060:	d65f03c0 	ret
   88064:	f0007bc0 	adrp	x0, 1003000 <GLOBAL_UART+0x3000>
   88068:	911da000 	add	x0, x0, #0x768
   8806c:	97ffe8b1 	bl	82330 <uart_puts>
   88070:	17fffffa 	b	88058 <create_el0_task+0x168>
   88074:	f0007bc0 	adrp	x0, 1003000 <GLOBAL_UART+0x3000>
   88078:	911e6000 	add	x0, x0, #0x798
   8807c:	97ffe8ad 	bl	82330 <uart_puts>
   88080:	a94153f3 	ldp	x19, x20, [sp, #16]
   88084:	17fffff5 	b	88058 <create_el0_task+0x168>
   88088:	f0007bc0 	adrp	x0, 1003000 <GLOBAL_UART+0x3000>
   8808c:	911f4000 	add	x0, x0, #0x7d0
   88090:	97ffe8a8 	bl	82330 <uart_puts>
   88094:	aa1403e0 	mov	x0, x20
   88098:	97ffea76 	bl	82a70 <free_page>
   8809c:	a94153f3 	ldp	x19, x20, [sp, #16]
   880a0:	17ffffee 	b	88058 <create_el0_task+0x168>
   880a4:	90007be1 	adrp	x1, 1004000 <page_bitmap>
   880a8:	91016021 	add	x1, x1, #0x58
   880ac:	91004022 	add	x2, x1, #0x10
   880b0:	f9400823 	ldr	x3, [x1, #16]
   880b4:	f9009a63 	str	x3, [x19, #304]
   880b8:	f820d853 	str	x19, [x2, w0, sxtw #3]
   880bc:	11000400 	add	w0, w0, #0x1
   880c0:	b9000820 	str	w0, [x1, #8]
   880c4:	7100041f 	cmp	w0, #0x1
   880c8:	54fffb61 	b.ne	88034 <create_el0_task+0x144>  // b.any
   880cc:	90007be0 	adrp	x0, 1004000 <page_bitmap>
   880d0:	f9002c13 	str	x19, [x0, #88]
   880d4:	17ffffd8 	b	88034 <create_el0_task+0x144>

00000000000880d8 <start_user_task>:
   880d8:	a9bd7bfd 	stp	x29, x30, [sp, #-48]!
   880dc:	910003fd 	mov	x29, sp
   880e0:	a90153f3 	stp	x19, x20, [sp, #16]
   880e4:	aa0003f4 	mov	x20, x0
   880e8:	f0007bc0 	adrp	x0, 1003000 <GLOBAL_UART+0x3000>
   880ec:	9121c000 	add	x0, x0, #0x870
   880f0:	97ffe890 	bl	82330 <uart_puts>
   880f4:	aa1403e0 	mov	x0, x20
   880f8:	97ffe8d2 	bl	82440 <uart_hex64>
   880fc:	90007bc0 	adrp	x0, 1000000 <GLOBAL_UART>
   88100:	9122a000 	add	x0, x0, #0x8a8
   88104:	97ffe88b 	bl	82330 <uart_puts>
   88108:	97ffea1c 	bl	82978 <alloc_page>
   8810c:	b40006c0 	cbz	x0, 881e4 <start_user_task+0x10c>
   88110:	f90013f5 	str	x21, [sp, #32]
   88114:	aa0003f3 	mov	x19, x0
   88118:	97ffea18 	bl	82978 <alloc_page>
   8811c:	aa0003f5 	mov	x21, x0
   88120:	b40006e0 	cbz	x0, 881fc <start_user_task+0x124>
   88124:	d2802702 	mov	x2, #0x138                 	// #312
   88128:	52800001 	mov	w1, #0x0                   	// #0
   8812c:	97ffe8e7 	bl	824c8 <memset>
   88130:	91400665 	add	x5, x19, #0x1, lsl #12
   88134:	927ceca5 	and	x5, x5, #0xfffffffffffffff0
   88138:	d10200a5 	sub	x5, x5, #0x80
   8813c:	d2800001 	mov	x1, #0x0                   	// #0
   88140:	910022a3 	add	x3, x21, #0x8
   88144:	d2fdc004 	mov	x4, #0xee00000000000000    	// #-1297036692682702848
   88148:	aa040022 	orr	x2, x1, x4
   8814c:	f8217862 	str	x2, [x3, x1, lsl #3]
   88150:	91000421 	add	x1, x1, #0x1
   88154:	f100403f 	cmp	x1, #0x10
   88158:	54ffff81 	b.ne	88148 <start_user_task+0x70>  // b.any
   8815c:	b2481c22 	orr	x2, x1, #0xff00000000000000
   88160:	f8217862 	str	x2, [x3, x1, lsl #3]
   88164:	91000421 	add	x1, x1, #0x1
   88168:	f1007c3f 	cmp	x1, #0x1f
   8816c:	54ffff81 	b.ne	8815c <start_user_task+0x84>  // b.any
   88170:	f90002a5 	str	x5, [x21]
   88174:	a9107eb4 	stp	x20, xzr, [x21, #256]
   88178:	f0007bc0 	adrp	x0, 1003000 <GLOBAL_UART+0x3000>
   8817c:	91228000 	add	x0, x0, #0x8a0
   88180:	97ffe86c 	bl	82330 <uart_puts>
   88184:	f94082a0 	ldr	x0, [x21, #256]
   88188:	97ffe8ae 	bl	82440 <uart_hex64>
   8818c:	f0007bc0 	adrp	x0, 1003000 <GLOBAL_UART+0x3000>
   88190:	9120c000 	add	x0, x0, #0x830
   88194:	97ffe867 	bl	82330 <uart_puts>
   88198:	f94086a0 	ldr	x0, [x21, #264]
   8819c:	97ffe8a9 	bl	82440 <uart_hex64>
   881a0:	90007bc0 	adrp	x0, 1000000 <GLOBAL_UART>
   881a4:	9122a000 	add	x0, x0, #0x8a8
   881a8:	97ffe862 	bl	82330 <uart_puts>
   881ac:	f0007bc0 	adrp	x0, 1003000 <GLOBAL_UART+0x3000>
   881b0:	91234000 	add	x0, x0, #0x8d0
   881b4:	97ffe85f 	bl	82330 <uart_puts>
   881b8:	d538c001 	mrs	x1, vbar_el1
   881bc:	b0000000 	adrp	x0, 89000 <vector_table>
   881c0:	91000000 	add	x0, x0, #0x0
   881c4:	eb00003f 	cmp	x1, x0
   881c8:	54000281 	b.ne	88218 <start_user_task+0x140>  // b.any
   881cc:	aa1503e0 	mov	x0, x21
   881d0:	97fff8aa 	bl	86478 <full_restore_context>
   881d4:	f0007bc0 	adrp	x0, 1003000 <GLOBAL_UART+0x3000>
   881d8:	9124c000 	add	x0, x0, #0x930
   881dc:	97ffe855 	bl	82330 <uart_puts>
   881e0:	14000000 	b	881e0 <start_user_task+0x108>
   881e4:	f0007bc0 	adrp	x0, 1003000 <GLOBAL_UART+0x3000>
   881e8:	911e6000 	add	x0, x0, #0x798
   881ec:	97ffe851 	bl	82330 <uart_puts>
   881f0:	a94153f3 	ldp	x19, x20, [sp, #16]
   881f4:	a8c37bfd 	ldp	x29, x30, [sp], #48
   881f8:	d65f03c0 	ret
   881fc:	f0007bc0 	adrp	x0, 1003000 <GLOBAL_UART+0x3000>
   88200:	911f4000 	add	x0, x0, #0x7d0
   88204:	97ffe84b 	bl	82330 <uart_puts>
   88208:	aa1303e0 	mov	x0, x19
   8820c:	97ffea19 	bl	82a70 <free_page>
   88210:	f94013f5 	ldr	x21, [sp, #32]
   88214:	17fffff7 	b	881f0 <start_user_task+0x118>
   88218:	f0007bc0 	adrp	x0, 1003000 <GLOBAL_UART+0x3000>
   8821c:	9123c000 	add	x0, x0, #0x8f0
   88220:	97ffe844 	bl	82330 <uart_puts>
   88224:	b0000000 	adrp	x0, 89000 <vector_table>
   88228:	91000000 	add	x0, x0, #0x0
   8822c:	d518c000 	msr	vbar_el1, x0
   88230:	d5033fdf 	isb
   88234:	17ffffe6 	b	881cc <start_user_task+0xf4>

0000000000088238 <print_task_info>:
   88238:	d2a12001 	mov	x1, #0x9000000             	// #150994944
   8823c:	52800462 	mov	w2, #0x23                  	// #35
   88240:	b9000022 	str	w2, [x1]
   88244:	b9411002 	ldr	w2, [x0, #272]
   88248:	1100c042 	add	w2, w2, #0x30
   8824c:	b9000022 	str	w2, [x1]
   88250:	52800742 	mov	w2, #0x3a                  	// #58
   88254:	b9000022 	str	w2, [x1]
   88258:	f9408001 	ldr	x1, [x0, #256]
   8825c:	531c7c21 	lsr	w1, w1, #28
   88260:	f100243f 	cmp	x1, #0x9
   88264:	540002a8 	b.hi	882b8 <print_task_info+0x80>  // b.pmore
   88268:	1100c021 	add	w1, w1, #0x30
   8826c:	d2a12002 	mov	x2, #0x9000000             	// #150994944
   88270:	b9000041 	str	w1, [x2]
   88274:	f9400001 	ldr	x1, [x0]
   88278:	b4000281 	cbz	x1, 882c8 <print_task_info+0x90>
   8827c:	92400c21 	and	x1, x1, #0xf
   88280:	b50002c1 	cbnz	x1, 882d8 <print_task_info+0xa0>
   88284:	d2a12001 	mov	x1, #0x9000000             	// #150994944
   88288:	52800822 	mov	w2, #0x41                  	// #65
   8828c:	b9000022 	str	w2, [x1]
   88290:	b9411400 	ldr	w0, [x0, #276]
   88294:	7100001f 	cmp	w0, #0x0
   88298:	52800b00 	mov	w0, #0x58                  	// #88
   8829c:	52800a41 	mov	w1, #0x52                  	// #82
   882a0:	1a811000 	csel	w0, w0, w1, ne	// ne = any
   882a4:	d2a12001 	mov	x1, #0x9000000             	// #150994944
   882a8:	b9000020 	str	w0, [x1]
   882ac:	52800400 	mov	w0, #0x20                  	// #32
   882b0:	b9000020 	str	w0, [x1]
   882b4:	d65f03c0 	ret
   882b8:	1100dc21 	add	w1, w1, #0x37
   882bc:	d2a12002 	mov	x2, #0x9000000             	// #150994944
   882c0:	b9000041 	str	w1, [x2]
   882c4:	17ffffec 	b	88274 <print_task_info+0x3c>
   882c8:	d2a12001 	mov	x1, #0x9000000             	// #150994944
   882cc:	528009c2 	mov	w2, #0x4e                  	// #78
   882d0:	b9000022 	str	w2, [x1]
   882d4:	17ffffef 	b	88290 <print_task_info+0x58>
   882d8:	d2a12001 	mov	x1, #0x9000000             	// #150994944
   882dc:	52800aa2 	mov	w2, #0x55                  	// #85
   882e0:	b9000022 	str	w2, [x1]
   882e4:	17ffffeb 	b	88290 <print_task_info+0x58>

00000000000882e8 <task_alloc_page>:
   882e8:	a9be7bfd 	stp	x29, x30, [sp, #-32]!
   882ec:	910003fd 	mov	x29, sp
   882f0:	f9000bf3 	str	x19, [sp, #16]
   882f4:	97ffe9a1 	bl	82978 <alloc_page>
   882f8:	aa0003f3 	mov	x19, x0
   882fc:	f0007bc0 	adrp	x0, 1003000 <GLOBAL_UART+0x3000>
   88300:	9125a000 	add	x0, x0, #0x968
   88304:	97ffe80b 	bl	82330 <uart_puts>
   88308:	aa1303e1 	mov	x1, x19
   8830c:	f0007bc0 	adrp	x0, 1003000 <GLOBAL_UART+0x3000>
   88310:	910e2000 	add	x0, x0, #0x388
   88314:	97ffe372 	bl	810dc <debug_hex64>
   88318:	90007bc0 	adrp	x0, 1000000 <GLOBAL_UART>
   8831c:	9122a000 	add	x0, x0, #0x8a8
   88320:	97ffe804 	bl	82330 <uart_puts>
   88324:	aa1303e0 	mov	x0, x19
   88328:	f9400bf3 	ldr	x19, [sp, #16]
   8832c:	a8c27bfd 	ldp	x29, x30, [sp], #32
   88330:	d65f03c0 	ret

0000000000088334 <init_task_scheduler>:
   88334:	a9bf7bfd 	stp	x29, x30, [sp, #-16]!
   88338:	910003fd 	mov	x29, sp
   8833c:	97fffe96 	bl	87d94 <init_tasks>
   88340:	a8c17bfd 	ldp	x29, x30, [sp], #16
   88344:	d65f03c0 	ret

0000000000088348 <pick_next_task>:
   88348:	90007be0 	adrp	x0, 1004000 <page_bitmap>
   8834c:	b9406005 	ldr	w5, [x0, #96]
   88350:	710000bf 	cmp	w5, #0x0
   88354:	540002ad 	b.le	883a8 <pick_next_task+0x60>
   88358:	90007be0 	adrp	x0, 1004000 <page_bitmap>
   8835c:	f9402c03 	ldr	x3, [x0, #88]
   88360:	93407ca4 	sxtw	x4, w5
   88364:	d2800000 	mov	x0, #0x0                   	// #0
   88368:	90007be2 	adrp	x2, 1004000 <page_bitmap>
   8836c:	9101a042 	add	x2, x2, #0x68
   88370:	f8607841 	ldr	x1, [x2, x0, lsl #3]
   88374:	eb03003f 	cmp	x1, x3
   88378:	540000a0 	b.eq	8838c <pick_next_task+0x44>  // b.none
   8837c:	91000400 	add	x0, x0, #0x1
   88380:	eb04001f 	cmp	x0, x4
   88384:	54ffff61 	b.ne	88370 <pick_next_task+0x28>  // b.any
   88388:	52800000 	mov	w0, #0x0                   	// #0
   8838c:	11000400 	add	w0, w0, #0x1
   88390:	1ac50c01 	sdiv	w1, w0, w5
   88394:	1b058021 	msub	w1, w1, w5, w0
   88398:	90007be0 	adrp	x0, 1004000 <page_bitmap>
   8839c:	9101a000 	add	x0, x0, #0x68
   883a0:	f861d800 	ldr	x0, [x0, w1, sxtw #3]
   883a4:	d65f03c0 	ret
   883a8:	d2800000 	mov	x0, #0x0                   	// #0
   883ac:	17fffffe 	b	883a4 <pick_next_task+0x5c>

00000000000883b0 <schedule>:
   883b0:	a9bf7bfd 	stp	x29, x30, [sp, #-16]!
   883b4:	910003fd 	mov	x29, sp
   883b8:	97ffffe4 	bl	88348 <pick_next_task>
   883bc:	b4000160 	cbz	x0, 883e8 <schedule+0x38>
   883c0:	90007be1 	adrp	x1, 1004000 <page_bitmap>
   883c4:	f9402c21 	ldr	x1, [x1, #88]
   883c8:	b4000061 	cbz	x1, 883d4 <schedule+0x24>
   883cc:	52800022 	mov	w2, #0x1                   	// #1
   883d0:	b9011422 	str	w2, [x1, #276]
   883d4:	52800041 	mov	w1, #0x2                   	// #2
   883d8:	b9011401 	str	w1, [x0, #276]
   883dc:	90007be1 	adrp	x1, 1004000 <page_bitmap>
   883e0:	f9002c20 	str	x0, [x1, #88]
   883e4:	97fff825 	bl	86478 <full_restore_context>
   883e8:	a8c17bfd 	ldp	x29, x30, [sp], #16
   883ec:	d65f03c0 	ret

00000000000883f0 <yield>:
   883f0:	a9bf7bfd 	stp	x29, x30, [sp, #-16]!
   883f4:	910003fd 	mov	x29, sp
   883f8:	f0007bc0 	adrp	x0, 1003000 <GLOBAL_UART+0x3000>
   883fc:	91262000 	add	x0, x0, #0x988
   88400:	97ffe322 	bl	81088 <debug_print>
   88404:	97ffffeb 	bl	883b0 <schedule>
   88408:	a8c17bfd 	ldp	x29, x30, [sp], #16
   8840c:	d65f03c0 	ret

0000000000088410 <task_a_test>:
   88410:	a9bb7bfd 	stp	x29, x30, [sp, #-80]!
   88414:	910003fd 	mov	x29, sp
   88418:	a90153f3 	stp	x19, x20, [sp, #16]
   8841c:	a9025bf5 	stp	x21, x22, [sp, #32]
   88420:	f9001bf7 	str	x23, [sp, #48]
   88424:	90007bf4 	adrp	x20, 1004000 <page_bitmap>
   88428:	9102d294 	add	x20, x20, #0xb4
   8842c:	5290d3f3 	mov	w19, #0x869f                	// #34463
   88430:	72a00033 	movk	w19, #0x1, lsl #16
   88434:	52800837 	mov	w23, #0x41                  	// #65
   88438:	528cccf6 	mov	w22, #0x6667                	// #26215
   8843c:	72acccd6 	movk	w22, #0x6666, lsl #16
   88440:	52800155 	mov	w21, #0xa                   	// #10
   88444:	b9400280 	ldr	w0, [x20]
   88448:	11000400 	add	w0, w0, #0x1
   8844c:	b9000280 	str	w0, [x20]
   88450:	2a1703e0 	mov	w0, w23
   88454:	97ffe7af 	bl	82310 <uart_putc>
   88458:	b9004fff 	str	wzr, [sp, #76]
   8845c:	b9404fe0 	ldr	w0, [sp, #76]
   88460:	6b13001f 	cmp	w0, w19
   88464:	540000ec 	b.gt	88480 <task_a_test+0x70>
   88468:	b9404fe0 	ldr	w0, [sp, #76]
   8846c:	11000400 	add	w0, w0, #0x1
   88470:	b9004fe0 	str	w0, [sp, #76]
   88474:	b9404fe0 	ldr	w0, [sp, #76]
   88478:	6b13001f 	cmp	w0, w19
   8847c:	54ffff6d 	b.le	88468 <task_a_test+0x58>
   88480:	b9400281 	ldr	w1, [x20]
   88484:	9b367c20 	smull	x0, w1, w22
   88488:	9362fc00 	asr	x0, x0, #34
   8848c:	4b817c00 	sub	w0, w0, w1, asr #31
   88490:	1b158400 	msub	w0, w0, w21, w1
   88494:	35fffd80 	cbnz	w0, 88444 <task_a_test+0x34>
   88498:	f0007bc0 	adrp	x0, 1003000 <GLOBAL_UART+0x3000>
   8849c:	91266000 	add	x0, x0, #0x998
   884a0:	97ffe7a4 	bl	82330 <uart_puts>
   884a4:	b9400280 	ldr	w0, [x20]
   884a8:	93407c00 	sxtw	x0, w0
   884ac:	97ffe7b7 	bl	82388 <uart_puthex>
   884b0:	17ffffe1 	b	88434 <task_a_test+0x24>

00000000000884b4 <task_b_test>:
   884b4:	a9bb7bfd 	stp	x29, x30, [sp, #-80]!
   884b8:	910003fd 	mov	x29, sp
   884bc:	a90153f3 	stp	x19, x20, [sp, #16]
   884c0:	a9025bf5 	stp	x21, x22, [sp, #32]
   884c4:	f9001bf7 	str	x23, [sp, #48]
   884c8:	90007bf4 	adrp	x20, 1004000 <page_bitmap>
   884cc:	9102d294 	add	x20, x20, #0xb4
   884d0:	5290d3f3 	mov	w19, #0x869f                	// #34463
   884d4:	72a00033 	movk	w19, #0x1, lsl #16
   884d8:	52800857 	mov	w23, #0x42                  	// #66
   884dc:	528cccf6 	mov	w22, #0x6667                	// #26215
   884e0:	72acccd6 	movk	w22, #0x6666, lsl #16
   884e4:	52800155 	mov	w21, #0xa                   	// #10
   884e8:	b9400680 	ldr	w0, [x20, #4]
   884ec:	11000400 	add	w0, w0, #0x1
   884f0:	b9000680 	str	w0, [x20, #4]
   884f4:	2a1703e0 	mov	w0, w23
   884f8:	97ffe786 	bl	82310 <uart_putc>
   884fc:	b9004fff 	str	wzr, [sp, #76]
   88500:	b9404fe0 	ldr	w0, [sp, #76]
   88504:	6b13001f 	cmp	w0, w19
   88508:	540000ec 	b.gt	88524 <task_b_test+0x70>
   8850c:	b9404fe0 	ldr	w0, [sp, #76]
   88510:	11000400 	add	w0, w0, #0x1
   88514:	b9004fe0 	str	w0, [sp, #76]
   88518:	b9404fe0 	ldr	w0, [sp, #76]
   8851c:	6b13001f 	cmp	w0, w19
   88520:	54ffff6d 	b.le	8850c <task_b_test+0x58>
   88524:	b9400681 	ldr	w1, [x20, #4]
   88528:	9b367c20 	smull	x0, w1, w22
   8852c:	9362fc00 	asr	x0, x0, #34
   88530:	4b817c00 	sub	w0, w0, w1, asr #31
   88534:	1b158400 	msub	w0, w0, w21, w1
   88538:	35fffd80 	cbnz	w0, 884e8 <task_b_test+0x34>
   8853c:	f0007bc0 	adrp	x0, 1003000 <GLOBAL_UART+0x3000>
   88540:	91268000 	add	x0, x0, #0x9a0
   88544:	97ffe77b 	bl	82330 <uart_puts>
   88548:	b9400680 	ldr	w0, [x20, #4]
   8854c:	93407c00 	sxtw	x0, w0
   88550:	97ffe78e 	bl	82388 <uart_puthex>
   88554:	17ffffe1 	b	884d8 <task_b_test+0x24>

0000000000088558 <task_c_test>:
   88558:	a9bb7bfd 	stp	x29, x30, [sp, #-80]!
   8855c:	910003fd 	mov	x29, sp
   88560:	a90153f3 	stp	x19, x20, [sp, #16]
   88564:	a9025bf5 	stp	x21, x22, [sp, #32]
   88568:	f9001bf7 	str	x23, [sp, #48]
   8856c:	90007bf4 	adrp	x20, 1004000 <page_bitmap>
   88570:	9102d294 	add	x20, x20, #0xb4
   88574:	5290d3f3 	mov	w19, #0x869f                	// #34463
   88578:	72a00033 	movk	w19, #0x1, lsl #16
   8857c:	52800877 	mov	w23, #0x43                  	// #67
   88580:	528cccf6 	mov	w22, #0x6667                	// #26215
   88584:	72acccd6 	movk	w22, #0x6666, lsl #16
   88588:	52800155 	mov	w21, #0xa                   	// #10
   8858c:	b9400a80 	ldr	w0, [x20, #8]
   88590:	11000400 	add	w0, w0, #0x1
   88594:	b9000a80 	str	w0, [x20, #8]
   88598:	2a1703e0 	mov	w0, w23
   8859c:	97ffe75d 	bl	82310 <uart_putc>
   885a0:	b9004fff 	str	wzr, [sp, #76]
   885a4:	b9404fe0 	ldr	w0, [sp, #76]
   885a8:	6b13001f 	cmp	w0, w19
   885ac:	540000ec 	b.gt	885c8 <task_c_test+0x70>
   885b0:	b9404fe0 	ldr	w0, [sp, #76]
   885b4:	11000400 	add	w0, w0, #0x1
   885b8:	b9004fe0 	str	w0, [sp, #76]
   885bc:	b9404fe0 	ldr	w0, [sp, #76]
   885c0:	6b13001f 	cmp	w0, w19
   885c4:	54ffff6d 	b.le	885b0 <task_c_test+0x58>
   885c8:	b9400a81 	ldr	w1, [x20, #8]
   885cc:	9b367c20 	smull	x0, w1, w22
   885d0:	9362fc00 	asr	x0, x0, #34
   885d4:	4b817c00 	sub	w0, w0, w1, asr #31
   885d8:	1b158400 	msub	w0, w0, w21, w1
   885dc:	35fffd80 	cbnz	w0, 8858c <task_c_test+0x34>
   885e0:	f0007bc0 	adrp	x0, 1003000 <GLOBAL_UART+0x3000>
   885e4:	9126a000 	add	x0, x0, #0x9a8
   885e8:	97ffe752 	bl	82330 <uart_puts>
   885ec:	b9400a80 	ldr	w0, [x20, #8]
   885f0:	93407c00 	sxtw	x0, w0
   885f4:	97ffe765 	bl	82388 <uart_puthex>
   885f8:	17ffffe1 	b	8857c <task_c_test+0x24>

00000000000885fc <task_d_test>:
   885fc:	a9bb7bfd 	stp	x29, x30, [sp, #-80]!
   88600:	910003fd 	mov	x29, sp
   88604:	a90153f3 	stp	x19, x20, [sp, #16]
   88608:	a9025bf5 	stp	x21, x22, [sp, #32]
   8860c:	f9001bf7 	str	x23, [sp, #48]
   88610:	90007bf4 	adrp	x20, 1004000 <page_bitmap>
   88614:	9102d294 	add	x20, x20, #0xb4
   88618:	5290d3f3 	mov	w19, #0x869f                	// #34463
   8861c:	72a00033 	movk	w19, #0x1, lsl #16
   88620:	52800897 	mov	w23, #0x44                  	// #68
   88624:	528cccf6 	mov	w22, #0x6667                	// #26215
   88628:	72acccd6 	movk	w22, #0x6666, lsl #16
   8862c:	52800155 	mov	w21, #0xa                   	// #10
   88630:	b9400e80 	ldr	w0, [x20, #12]
   88634:	11000400 	add	w0, w0, #0x1
   88638:	b9000e80 	str	w0, [x20, #12]
   8863c:	2a1703e0 	mov	w0, w23
   88640:	97ffe734 	bl	82310 <uart_putc>
   88644:	b9004fff 	str	wzr, [sp, #76]
   88648:	b9404fe0 	ldr	w0, [sp, #76]
   8864c:	6b13001f 	cmp	w0, w19
   88650:	540000ec 	b.gt	8866c <task_d_test+0x70>
   88654:	b9404fe0 	ldr	w0, [sp, #76]
   88658:	11000400 	add	w0, w0, #0x1
   8865c:	b9004fe0 	str	w0, [sp, #76]
   88660:	b9404fe0 	ldr	w0, [sp, #76]
   88664:	6b13001f 	cmp	w0, w19
   88668:	54ffff6d 	b.le	88654 <task_d_test+0x58>
   8866c:	b9400e81 	ldr	w1, [x20, #12]
   88670:	9b367c20 	smull	x0, w1, w22
   88674:	9362fc00 	asr	x0, x0, #34
   88678:	4b817c00 	sub	w0, w0, w1, asr #31
   8867c:	1b158400 	msub	w0, w0, w21, w1
   88680:	35fffd80 	cbnz	w0, 88630 <task_d_test+0x34>
   88684:	f0007bc0 	adrp	x0, 1003000 <GLOBAL_UART+0x3000>
   88688:	9126c000 	add	x0, x0, #0x9b0
   8868c:	97ffe729 	bl	82330 <uart_puts>
   88690:	b9400e80 	ldr	w0, [x20, #12]
   88694:	93407c00 	sxtw	x0, w0
   88698:	97ffe73c 	bl	82388 <uart_puthex>
   8869c:	17ffffe1 	b	88620 <task_d_test+0x24>

00000000000886a0 <timer_handler>:
   886a0:	a9bf7bfd 	stp	x29, x30, [sp, #-16]!
   886a4:	910003fd 	mov	x29, sp
   886a8:	528005c0 	mov	w0, #0x2e                  	// #46
   886ac:	97ffe719 	bl	82310 <uart_putc>
   886b0:	90007be0 	adrp	x0, 1004000 <page_bitmap>
   886b4:	f9402c00 	ldr	x0, [x0, #88]
   886b8:	b4000040 	cbz	x0, 886c0 <timer_handler+0x20>
   886bc:	97fff735 	bl	86390 <save_context>
   886c0:	97ffff3c 	bl	883b0 <schedule>
   886c4:	a8c17bfd 	ldp	x29, x30, [sp], #16
   886c8:	d65f03c0 	ret

00000000000886cc <print_current_el>:
   886cc:	a9be7bfd 	stp	x29, x30, [sp, #-32]!
   886d0:	910003fd 	mov	x29, sp
   886d4:	f9000bf3 	str	x19, [sp, #16]
   886d8:	d5384253 	mrs	x19, currentel
   886dc:	d342fe73 	lsr	x19, x19, #2
   886e0:	f0007bc0 	adrp	x0, 1003000 <GLOBAL_UART+0x3000>
   886e4:	9126e000 	add	x0, x0, #0x9b8
   886e8:	97ffe712 	bl	82330 <uart_puts>
   886ec:	92400660 	and	x0, x19, #0x3
   886f0:	97ffe726 	bl	82388 <uart_puthex>
   886f4:	90007bc0 	adrp	x0, 1000000 <GLOBAL_UART>
   886f8:	9122a000 	add	x0, x0, #0x8a8
   886fc:	97ffe70d 	bl	82330 <uart_puts>
   88700:	f9400bf3 	ldr	x19, [sp, #16]
   88704:	a8c27bfd 	ldp	x29, x30, [sp], #32
   88708:	d65f03c0 	ret

000000000008870c <sync_el0_handler>:
   8870c:	a9bc7bfd 	stp	x29, x30, [sp, #-64]!
   88710:	910003fd 	mov	x29, sp
   88714:	a90153f3 	stp	x19, x20, [sp, #16]
   88718:	a9025bf5 	stp	x21, x22, [sp, #32]
   8871c:	f0007bc0 	adrp	x0, 1003000 <GLOBAL_UART+0x3000>
   88720:	91274000 	add	x0, x0, #0x9d0
   88724:	97ffe703 	bl	82330 <uart_puts>
   88728:	d5384253 	mrs	x19, currentel
   8872c:	d342fe73 	lsr	x19, x19, #2
   88730:	f0007bc0 	adrp	x0, 1003000 <GLOBAL_UART+0x3000>
   88734:	91282000 	add	x0, x0, #0xa08
   88738:	97ffe6fe 	bl	82330 <uart_puts>
   8873c:	92400660 	and	x0, x19, #0x3
   88740:	97ffe712 	bl	82388 <uart_puthex>
   88744:	90007bd3 	adrp	x19, 1000000 <GLOBAL_UART>
   88748:	9122a273 	add	x19, x19, #0x8a8
   8874c:	aa1303e0 	mov	x0, x19
   88750:	97ffe6f8 	bl	82330 <uart_puts>
   88754:	97ffffde 	bl	886cc <print_current_el>
   88758:	d5385214 	mrs	x20, esr_el1
   8875c:	531a7e95 	lsr	w21, w20, #26
   88760:	f0007bc0 	adrp	x0, 1003000 <GLOBAL_UART+0x3000>
   88764:	91288000 	add	x0, x0, #0xa20
   88768:	97ffe6f2 	bl	82330 <uart_puts>
   8876c:	2a1503f6 	mov	w22, w21
   88770:	aa1603e0 	mov	x0, x22
   88774:	97ffe705 	bl	82388 <uart_puthex>
   88778:	aa1303e0 	mov	x0, x19
   8877c:	97ffe6ed 	bl	82330 <uart_puts>
   88780:	710056bf 	cmp	w21, #0x15
   88784:	540001a0 	b.eq	887b8 <sync_el0_handler+0xac>  // b.none
   88788:	f0007bc0 	adrp	x0, 1003000 <GLOBAL_UART+0x3000>
   8878c:	912c8000 	add	x0, x0, #0xb20
   88790:	97ffe6e8 	bl	82330 <uart_puts>
   88794:	aa1603e0 	mov	x0, x22
   88798:	97ffe6fc 	bl	82388 <uart_puthex>
   8879c:	90007bc0 	adrp	x0, 1000000 <GLOBAL_UART>
   887a0:	9122a000 	add	x0, x0, #0x8a8
   887a4:	97ffe6e3 	bl	82330 <uart_puts>
   887a8:	f0007bc0 	adrp	x0, 1003000 <GLOBAL_UART+0x3000>
   887ac:	912d2000 	add	x0, x0, #0xb48
   887b0:	97ffe6e0 	bl	82330 <uart_puts>
   887b4:	14000000 	b	887b4 <sync_el0_handler+0xa8>
   887b8:	f0007bc0 	adrp	x0, 1003000 <GLOBAL_UART+0x3000>
   887bc:	91290000 	add	x0, x0, #0xa40
   887c0:	97ffe6dc 	bl	82330 <uart_puts>
   887c4:	92403e94 	and	x20, x20, #0xffff
   887c8:	aa1403e0 	mov	x0, x20
   887cc:	97ffe6ef 	bl	82388 <uart_puthex>
   887d0:	f0007bc0 	adrp	x0, 1003000 <GLOBAL_UART+0x3000>
   887d4:	91294000 	add	x0, x0, #0xa50
   887d8:	97ffe6d6 	bl	82330 <uart_puts>
   887dc:	d5384020 	mrs	x0, elr_el1
   887e0:	91001000 	add	x0, x0, #0x4
   887e4:	d5184020 	msr	elr_el1, x0
   887e8:	d5384115 	mrs	x21, sp_el0
   887ec:	f0007bc0 	adrp	x0, 1003000 <GLOBAL_UART+0x3000>
   887f0:	9129a000 	add	x0, x0, #0xa68
   887f4:	97ffe6cf 	bl	82330 <uart_puts>
   887f8:	aa1503e0 	mov	x0, x21
   887fc:	97ffe6e3 	bl	82388 <uart_puthex>
   88800:	90007bd3 	adrp	x19, 1000000 <GLOBAL_UART>
   88804:	9122a273 	add	x19, x19, #0x8a8
   88808:	aa1303e0 	mov	x0, x19
   8880c:	97ffe6c9 	bl	82330 <uart_puts>
   88810:	f9001ff5 	str	x21, [sp, #56]
   88814:	f0007bc0 	adrp	x0, 1003000 <GLOBAL_UART+0x3000>
   88818:	912a2000 	add	x0, x0, #0xa88
   8881c:	97ffe6c5 	bl	82330 <uart_puts>
   88820:	aa1403e0 	mov	x0, x20
   88824:	97ffe6d9 	bl	82388 <uart_puthex>
   88828:	aa1303e0 	mov	x0, x19
   8882c:	97ffe6c1 	bl	82330 <uart_puts>
   88830:	9100e3e1 	add	x1, sp, #0x38
   88834:	aa1403e0 	mov	x0, x20
   88838:	94000123 	bl	88cc4 <syscall_dispatch>
   8883c:	f0007bc0 	adrp	x0, 1003000 <GLOBAL_UART+0x3000>
   88840:	912ae000 	add	x0, x0, #0xab8
   88844:	97ffe6bb 	bl	82330 <uart_puts>
   88848:	f0007bc0 	adrp	x0, 1003000 <GLOBAL_UART+0x3000>
   8884c:	912b6000 	add	x0, x0, #0xad8
   88850:	97ffe6b8 	bl	82330 <uart_puts>
   88854:	17ffffd5 	b	887a8 <sync_el0_handler+0x9c>

0000000000088858 <sync_el1_handler>:
   88858:	a9bc7bfd 	stp	x29, x30, [sp, #-64]!
   8885c:	910003fd 	mov	x29, sp
   88860:	a90153f3 	stp	x19, x20, [sp, #16]
   88864:	f90013f5 	str	x21, [sp, #32]
   88868:	f0007bc0 	adrp	x0, 1003000 <GLOBAL_UART+0x3000>
   8886c:	912dc000 	add	x0, x0, #0xb70
   88870:	97ffe6b0 	bl	82330 <uart_puts>
   88874:	97ffff96 	bl	886cc <print_current_el>
   88878:	d5385213 	mrs	x19, esr_el1
   8887c:	531a7e74 	lsr	w20, w19, #26
   88880:	f0007bc0 	adrp	x0, 1003000 <GLOBAL_UART+0x3000>
   88884:	91288000 	add	x0, x0, #0xa20
   88888:	97ffe6aa 	bl	82330 <uart_puts>
   8888c:	2a1403f5 	mov	w21, w20
   88890:	aa1503e0 	mov	x0, x21
   88894:	97ffe6bd 	bl	82388 <uart_puthex>
   88898:	90007bc0 	adrp	x0, 1000000 <GLOBAL_UART>
   8889c:	9122a000 	add	x0, x0, #0x8a8
   888a0:	97ffe6a4 	bl	82330 <uart_puts>
   888a4:	7100569f 	cmp	w20, #0x15
   888a8:	540001a0 	b.eq	888dc <sync_el1_handler+0x84>  // b.none
   888ac:	f0007bc0 	adrp	x0, 1003000 <GLOBAL_UART+0x3000>
   888b0:	912fc000 	add	x0, x0, #0xbf0
   888b4:	97ffe69f 	bl	82330 <uart_puts>
   888b8:	aa1503e0 	mov	x0, x21
   888bc:	97ffe6b3 	bl	82388 <uart_puthex>
   888c0:	90007bc0 	adrp	x0, 1000000 <GLOBAL_UART>
   888c4:	9122a000 	add	x0, x0, #0x8a8
   888c8:	97ffe69a 	bl	82330 <uart_puts>
   888cc:	f0007bc0 	adrp	x0, 1003000 <GLOBAL_UART+0x3000>
   888d0:	912d2000 	add	x0, x0, #0xb48
   888d4:	97ffe697 	bl	82330 <uart_puts>
   888d8:	14000000 	b	888d8 <sync_el1_handler+0x80>
   888dc:	f0007bc0 	adrp	x0, 1003000 <GLOBAL_UART+0x3000>
   888e0:	91290000 	add	x0, x0, #0xa40
   888e4:	97ffe693 	bl	82330 <uart_puts>
   888e8:	92403e73 	and	x19, x19, #0xffff
   888ec:	aa1303e0 	mov	x0, x19
   888f0:	97ffe6a6 	bl	82388 <uart_puthex>
   888f4:	f0007bc0 	adrp	x0, 1003000 <GLOBAL_UART+0x3000>
   888f8:	912ea000 	add	x0, x0, #0xba8
   888fc:	97ffe68d 	bl	82330 <uart_puts>
   88900:	d5384034 	mrs	x20, elr_el1
   88904:	f0007bc0 	adrp	x0, 1003000 <GLOBAL_UART+0x3000>
   88908:	912f0000 	add	x0, x0, #0xbc0
   8890c:	97ffe689 	bl	82330 <uart_puts>
   88910:	aa1403e0 	mov	x0, x20
   88914:	97ffe6cb 	bl	82440 <uart_hex64>
   88918:	90007bd4 	adrp	x20, 1000000 <GLOBAL_UART>
   8891c:	9122a294 	add	x20, x20, #0x8a8
   88920:	aa1403e0 	mov	x0, x20
   88924:	97ffe683 	bl	82330 <uart_puts>
   88928:	aa0003f5 	mov	x21, x0
   8892c:	f0007bc0 	adrp	x0, 1003000 <GLOBAL_UART+0x3000>
   88930:	912f6000 	add	x0, x0, #0xbd8
   88934:	97ffe67f 	bl	82330 <uart_puts>
   88938:	aa1503e0 	mov	x0, x21
   8893c:	97ffe6c1 	bl	82440 <uart_hex64>
   88940:	aa1403e0 	mov	x0, x20
   88944:	97ffe67b 	bl	82330 <uart_puts>
   88948:	f9001ff5 	str	x21, [sp, #56]
   8894c:	9100e3e1 	add	x1, sp, #0x38
   88950:	aa1303e0 	mov	x0, x19
   88954:	940000dc 	bl	88cc4 <syscall_dispatch>
   88958:	d5384020 	mrs	x0, elr_el1
   8895c:	91001000 	add	x0, x0, #0x4
   88960:	d5184020 	msr	elr_el1, x0
   88964:	d69f03e0 	eret
   88968:	a94153f3 	ldp	x19, x20, [sp, #16]
   8896c:	f94013f5 	ldr	x21, [sp, #32]
   88970:	a8c47bfd 	ldp	x29, x30, [sp], #64
   88974:	d65f03c0 	ret

0000000000088978 <irq_el0_handler>:
   88978:	a9bf7bfd 	stp	x29, x30, [sp, #-16]!
   8897c:	910003fd 	mov	x29, sp
   88980:	f0007bc0 	adrp	x0, 1003000 <GLOBAL_UART+0x3000>
   88984:	9130a000 	add	x0, x0, #0xc28
   88988:	97ffe66a 	bl	82330 <uart_puts>
   8898c:	14000000 	b	8898c <irq_el0_handler+0x14>

0000000000088990 <fiq_el0_handler>:
   88990:	a9bf7bfd 	stp	x29, x30, [sp, #-16]!
   88994:	910003fd 	mov	x29, sp
   88998:	f0007bc0 	adrp	x0, 1003000 <GLOBAL_UART+0x3000>
   8899c:	91310000 	add	x0, x0, #0xc40
   889a0:	97ffe664 	bl	82330 <uart_puts>
   889a4:	14000000 	b	889a4 <fiq_el0_handler+0x14>

00000000000889a8 <serror_el0_handler>:
   889a8:	a9bf7bfd 	stp	x29, x30, [sp, #-16]!
   889ac:	910003fd 	mov	x29, sp
   889b0:	f0007bc0 	adrp	x0, 1003000 <GLOBAL_UART+0x3000>
   889b4:	91316000 	add	x0, x0, #0xc58
   889b8:	97ffe65e 	bl	82330 <uart_puts>
   889bc:	14000000 	b	889bc <serror_el0_handler+0x14>

00000000000889c0 <irq_el1_handler>:
   889c0:	a9bf7bfd 	stp	x29, x30, [sp, #-16]!
   889c4:	910003fd 	mov	x29, sp
   889c8:	f0007bc0 	adrp	x0, 1003000 <GLOBAL_UART+0x3000>
   889cc:	9131c000 	add	x0, x0, #0xc70
   889d0:	97ffe658 	bl	82330 <uart_puts>
   889d4:	14000000 	b	889d4 <irq_el1_handler+0x14>

00000000000889d8 <fiq_el1_handler>:
   889d8:	a9bf7bfd 	stp	x29, x30, [sp, #-16]!
   889dc:	910003fd 	mov	x29, sp
   889e0:	f0007bc0 	adrp	x0, 1003000 <GLOBAL_UART+0x3000>
   889e4:	91322000 	add	x0, x0, #0xc88
   889e8:	97ffe652 	bl	82330 <uart_puts>
   889ec:	14000000 	b	889ec <fiq_el1_handler+0x14>

00000000000889f0 <serror_el1_handler>:
   889f0:	a9bf7bfd 	stp	x29, x30, [sp, #-16]!
   889f4:	910003fd 	mov	x29, sp
   889f8:	f0007bc0 	adrp	x0, 1003000 <GLOBAL_UART+0x3000>
   889fc:	91328000 	add	x0, x0, #0xca0
   88a00:	97ffe64c 	bl	82330 <uart_puts>
   88a04:	14000000 	b	88a04 <serror_el1_handler+0x14>
	...

0000000000088a10 <user_test_svc>:
   88a10:	58000dc2 	ldr	x2, 88bc8 <hang_message+0x35>
   88a14:	52800aa3 	mov	w3, #0x55                  	// #85
   88a18:	b9000043 	str	w3, [x2]
   88a1c:	52800823 	mov	w3, #0x41                  	// #65
   88a20:	b9000043 	str	w3, [x2]
   88a24:	52800a43 	mov	w3, #0x52                  	// #82
   88a28:	b9000043 	str	w3, [x2]
   88a2c:	52800a83 	mov	w3, #0x54                  	// #84
   88a30:	b9000043 	str	w3, [x2]
   88a34:	52800743 	mov	w3, #0x3a                  	// #58
   88a38:	b9000043 	str	w3, [x2]
   88a3c:	52800143 	mov	w3, #0xa                   	// #10
   88a40:	b9000043 	str	w3, [x2]
   88a44:	10000361 	adr	x1, 88ab0 <banner_message>
   88a48:	94000012 	bl	88a90 <print_string_user>
   88a4c:	500004c1 	adr	x1, 88ae6 <hello_message>
   88a50:	94000010 	bl	88a90 <print_string_user>
   88a54:	d4000001 	svc	#0x0
   88a58:	30000581 	adr	x1, 88b09 <write_message>
   88a5c:	9400000d 	bl	88a90 <print_string_user>
   88a60:	d2824680 	mov	x0, #0x1234                	// #4660
   88a64:	d4000021 	svc	#0x1
   88a68:	100006a1 	adr	x1, 88b3c <yield_message>
   88a6c:	94000009 	bl	88a90 <print_string_user>
   88a70:	d4000061 	svc	#0x3
   88a74:	70000741 	adr	x1, 88b5f <exit_message>
   88a78:	94000006 	bl	88a90 <print_string_user>
   88a7c:	d2800540 	mov	x0, #0x2a                  	// #42
   88a80:	d4000041 	svc	#0x2
   88a84:	70000861 	adr	x1, 88b93 <hang_message>
   88a88:	94000002 	bl	88a90 <print_string_user>

0000000000088a8c <hang>:
   88a8c:	14000000 	b	88a8c <hang>

0000000000088a90 <print_string_user>:
   88a90:	580009c2 	ldr	x2, 88bc8 <hang_message+0x35>
   88a94:	38401423 	ldrb	w3, [x1], #1
   88a98:	34000063 	cbz	w3, 88aa4 <print_string_user+0x14>
   88a9c:	b9000043 	str	w3, [x2]
   88aa0:	17fffffd 	b	88a94 <print_string_user+0x4>
   88aa4:	d65f03c0 	ret
   88aa8:	d503201f 	nop
   88aac:	d503201f 	nop

0000000000088ab0 <banner_message>:
   88ab0:	53555b0a 	.word	0x53555b0a
   88ab4:	205d5245 	.word	0x205d5245
   88ab8:	20304c45 	.word	0x20304c45
   88abc:	74736574 	.word	0x74736574
   88ac0:	6f727020 	.word	0x6f727020
   88ac4:	6d617267 	.word	0x6d617267
   88ac8:	61747320 	.word	0x61747320
   88acc:	6e697472 	.word	0x6e697472
   88ad0:	202d2067 	.word	0x202d2067
   88ad4:	74736554 	.word	0x74736554
   88ad8:	20676e69 	.word	0x20676e69
   88adc:	63737973 	.word	0x63737973
   88ae0:	736c6c61 	.word	0x736c6c61
   88ae4:	000a      	.short	0x000a

0000000000088ae6 <hello_message>:
   88ae6:	555b      	.short	0x555b
   88ae8:	5d524553 	.word	0x5d524553
   88aec:	6c614320 	.word	0x6c614320
   88af0:	676e696c 	.word	0x676e696c
   88af4:	73797320 	.word	0x73797320
   88af8:	6c65685f 	.word	0x6c65685f
   88afc:	28206f6c 	.word	0x28206f6c
   88b00:	20435653 	.word	0x20435653
   88b04:	0a293023 	.word	0x0a293023
	...

0000000000088b09 <write_message>:
   88b09:	5b          	.byte	0x5b
   88b0a:	5355      	.short	0x5355
   88b0c:	205d5245 	.word	0x205d5245
   88b10:	6c6c6143 	.word	0x6c6c6143
   88b14:	20676e69 	.word	0x20676e69
   88b18:	5f737973 	.word	0x5f737973
   88b1c:	74697277 	.word	0x74697277
   88b20:	53282065 	.word	0x53282065
   88b24:	23204356 	.word	0x23204356
   88b28:	77202931 	.word	0x77202931
   88b2c:	20687469 	.word	0x20687469
   88b30:	3d677261 	.word	0x3d677261
   88b34:	32317830 	.word	0x32317830
   88b38:	000a3433 	.word	0x000a3433

0000000000088b3c <yield_message>:
   88b3c:	4553555b 	.word	0x4553555b
   88b40:	43205d52 	.word	0x43205d52
   88b44:	696c6c61 	.word	0x696c6c61
   88b48:	7320676e 	.word	0x7320676e
   88b4c:	795f7379 	.word	0x795f7379
   88b50:	646c6569 	.word	0x646c6569
   88b54:	56532820 	.word	0x56532820
   88b58:	33232043 	.word	0x33232043
   88b5c:	0a29      	.short	0x0a29
	...

0000000000088b5f <exit_message>:
   88b5f:	5b          	.byte	0x5b
   88b60:	52455355 	.word	0x52455355
   88b64:	6143205d 	.word	0x6143205d
   88b68:	6e696c6c 	.word	0x6e696c6c
   88b6c:	79732067 	.word	0x79732067
   88b70:	78655f73 	.word	0x78655f73
   88b74:	28207469 	.word	0x28207469
   88b78:	20435653 	.word	0x20435653
   88b7c:	20293223 	.word	0x20293223
   88b80:	68746977 	.word	0x68746977
   88b84:	69786520 	.word	0x69786520
   88b88:	6f635f74 	.word	0x6f635f74
   88b8c:	343d6564 	.word	0x343d6564
   88b90:	0a32      	.short	0x0a32
	...

0000000000088b93 <hang_message>:
   88b93:	5b          	.byte	0x5b
   88b94:	52455355 	.word	0x52455355
   88b98:	6552205d 	.word	0x6552205d
   88b9c:	6e727574 	.word	0x6e727574
   88ba0:	66206465 	.word	0x66206465
   88ba4:	206d6f72 	.word	0x206d6f72
   88ba8:	63737973 	.word	0x63737973
   88bac:	736c6c61 	.word	0x736c6c61
   88bb0:	68732820 	.word	0x68732820
   88bb4:	646c756f 	.word	0x646c756f
   88bb8:	2074276e 	.word	0x2074276e
   88bbc:	70706168 	.word	0x70706168
   88bc0:	21296e65 	.word	0x21296e65
   88bc4:	000a      	.short	0x000a
   88bc6:	00000000 	udf	#0
   88bca:	0900      	.short	0x0900
   88bcc:	00000000 	.word	0x00000000

0000000000088bd0 <syscall_debug_marker>:
   88bd0:	a9bf7bfd 	stp	x29, x30, [sp, #-16]!
   88bd4:	910003fd 	mov	x29, sp
   88bd8:	f0007bc0 	adrp	x0, 1003000 <GLOBAL_UART+0x3000>
   88bdc:	9132e000 	add	x0, x0, #0xcb8
   88be0:	97ffe5d4 	bl	82330 <uart_puts>
   88be4:	f0007bc0 	adrp	x0, 1003000 <GLOBAL_UART+0x3000>
   88be8:	91334000 	add	x0, x0, #0xcd0
   88bec:	97ffe5d1 	bl	82330 <uart_puts>
   88bf0:	f0007bc0 	adrp	x0, 1003000 <GLOBAL_UART+0x3000>
   88bf4:	9133a000 	add	x0, x0, #0xce8
   88bf8:	97ffe5ce 	bl	82330 <uart_puts>
   88bfc:	a8c17bfd 	ldp	x29, x30, [sp], #16
   88c00:	d65f03c0 	ret

0000000000088c04 <sys_hello>:
   88c04:	a9bf7bfd 	stp	x29, x30, [sp, #-16]!
   88c08:	910003fd 	mov	x29, sp
   88c0c:	97fffff1 	bl	88bd0 <syscall_debug_marker>
   88c10:	f0007bc0 	adrp	x0, 1003000 <GLOBAL_UART+0x3000>
   88c14:	91340000 	add	x0, x0, #0xd00
   88c18:	97ffe5c6 	bl	82330 <uart_puts>
   88c1c:	a8c17bfd 	ldp	x29, x30, [sp], #16
   88c20:	d65f03c0 	ret

0000000000088c24 <sys_write>:
   88c24:	a9be7bfd 	stp	x29, x30, [sp, #-32]!
   88c28:	910003fd 	mov	x29, sp
   88c2c:	f9000bf3 	str	x19, [sp, #16]
   88c30:	aa0003f3 	mov	x19, x0
   88c34:	97ffffe7 	bl	88bd0 <syscall_debug_marker>
   88c38:	f0007bc0 	adrp	x0, 1003000 <GLOBAL_UART+0x3000>
   88c3c:	9134a000 	add	x0, x0, #0xd28
   88c40:	97ffe5bc 	bl	82330 <uart_puts>
   88c44:	aa1303e0 	mov	x0, x19
   88c48:	97ffe5fe 	bl	82440 <uart_hex64>
   88c4c:	90007bc0 	adrp	x0, 1000000 <GLOBAL_UART>
   88c50:	9122a000 	add	x0, x0, #0x8a8
   88c54:	97ffe5b7 	bl	82330 <uart_puts>
   88c58:	f9400bf3 	ldr	x19, [sp, #16]
   88c5c:	a8c27bfd 	ldp	x29, x30, [sp], #32
   88c60:	d65f03c0 	ret

0000000000088c64 <sys_exit>:
   88c64:	a9be7bfd 	stp	x29, x30, [sp, #-32]!
   88c68:	910003fd 	mov	x29, sp
   88c6c:	f9000bf3 	str	x19, [sp, #16]
   88c70:	aa0003f3 	mov	x19, x0
   88c74:	97ffffd7 	bl	88bd0 <syscall_debug_marker>
   88c78:	f0007bc0 	adrp	x0, 1003000 <GLOBAL_UART+0x3000>
   88c7c:	91354000 	add	x0, x0, #0xd50
   88c80:	97ffe5ac 	bl	82330 <uart_puts>
   88c84:	aa1303e0 	mov	x0, x19
   88c88:	97ffe5ee 	bl	82440 <uart_hex64>
   88c8c:	90007bc0 	adrp	x0, 1000000 <GLOBAL_UART>
   88c90:	9122a000 	add	x0, x0, #0x8a8
   88c94:	97ffe5a7 	bl	82330 <uart_puts>
   88c98:	f9400bf3 	ldr	x19, [sp, #16]
   88c9c:	a8c27bfd 	ldp	x29, x30, [sp], #32
   88ca0:	d65f03c0 	ret

0000000000088ca4 <sys_yield>:
   88ca4:	a9bf7bfd 	stp	x29, x30, [sp, #-16]!
   88ca8:	910003fd 	mov	x29, sp
   88cac:	97ffffc9 	bl	88bd0 <syscall_debug_marker>
   88cb0:	f0007bc0 	adrp	x0, 1003000 <GLOBAL_UART+0x3000>
   88cb4:	9135e000 	add	x0, x0, #0xd78
   88cb8:	97ffe59e 	bl	82330 <uart_puts>
   88cbc:	a8c17bfd 	ldp	x29, x30, [sp], #16
   88cc0:	d65f03c0 	ret

0000000000088cc4 <syscall_dispatch>:
   88cc4:	a9be7bfd 	stp	x29, x30, [sp, #-32]!
   88cc8:	910003fd 	mov	x29, sp
   88ccc:	a90153f3 	stp	x19, x20, [sp, #16]
   88cd0:	aa0003f3 	mov	x19, x0
   88cd4:	aa0103f4 	mov	x20, x1
   88cd8:	f0007bc0 	adrp	x0, 1003000 <GLOBAL_UART+0x3000>
   88cdc:	9136c000 	add	x0, x0, #0xdb0
   88ce0:	97ffe594 	bl	82330 <uart_puts>
   88ce4:	aa1303e0 	mov	x0, x19
   88ce8:	97ffe5d6 	bl	82440 <uart_hex64>
   88cec:	90007bc0 	adrp	x0, 1000000 <GLOBAL_UART>
   88cf0:	9122a000 	add	x0, x0, #0x8a8
   88cf4:	97ffe58f 	bl	82330 <uart_puts>
   88cf8:	f1000a7f 	cmp	x19, #0x2
   88cfc:	54000320 	b.eq	88d60 <syscall_dispatch+0x9c>  // b.none
   88d00:	54000148 	b.hi	88d28 <syscall_dispatch+0x64>  // b.pmore
   88d04:	b4000213 	cbz	x19, 88d44 <syscall_dispatch+0x80>
   88d08:	f0007bc0 	adrp	x0, 1003000 <GLOBAL_UART+0x3000>
   88d0c:	91380000 	add	x0, x0, #0xe00
   88d10:	97ffe588 	bl	82330 <uart_puts>
   88d14:	d2800000 	mov	x0, #0x0                   	// #0
   88d18:	b4000054 	cbz	x20, 88d20 <syscall_dispatch+0x5c>
   88d1c:	f9400280 	ldr	x0, [x20]
   88d20:	97ffffc1 	bl	88c24 <sys_write>
   88d24:	1400000c 	b	88d54 <syscall_dispatch+0x90>
   88d28:	f1000e7f 	cmp	x19, #0x3
   88d2c:	540002a1 	b.ne	88d80 <syscall_dispatch+0xbc>  // b.any
   88d30:	f0007bc0 	adrp	x0, 1003000 <GLOBAL_UART+0x3000>
   88d34:	91392000 	add	x0, x0, #0xe48
   88d38:	97ffe57e 	bl	82330 <uart_puts>
   88d3c:	97ffffda 	bl	88ca4 <sys_yield>
   88d40:	14000005 	b	88d54 <syscall_dispatch+0x90>
   88d44:	f0007bc0 	adrp	x0, 1003000 <GLOBAL_UART+0x3000>
   88d48:	91376000 	add	x0, x0, #0xdd8
   88d4c:	97ffe579 	bl	82330 <uart_puts>
   88d50:	97ffffad 	bl	88c04 <sys_hello>
   88d54:	a94153f3 	ldp	x19, x20, [sp, #16]
   88d58:	a8c27bfd 	ldp	x29, x30, [sp], #32
   88d5c:	d65f03c0 	ret
   88d60:	f0007bc0 	adrp	x0, 1003000 <GLOBAL_UART+0x3000>
   88d64:	9138a000 	add	x0, x0, #0xe28
   88d68:	97ffe572 	bl	82330 <uart_puts>
   88d6c:	d2800000 	mov	x0, #0x0                   	// #0
   88d70:	b4000054 	cbz	x20, 88d78 <syscall_dispatch+0xb4>
   88d74:	f9400280 	ldr	x0, [x20]
   88d78:	97ffffbb 	bl	88c64 <sys_exit>
   88d7c:	17fffff6 	b	88d54 <syscall_dispatch+0x90>
   88d80:	f0007bc0 	adrp	x0, 1003000 <GLOBAL_UART+0x3000>
   88d84:	9139c000 	add	x0, x0, #0xe70
   88d88:	97ffe56a 	bl	82330 <uart_puts>
   88d8c:	aa1303e0 	mov	x0, x19
   88d90:	97ffe5ac 	bl	82440 <uart_hex64>
   88d94:	90007bc0 	adrp	x0, 1000000 <GLOBAL_UART>
   88d98:	9122a000 	add	x0, x0, #0x8a8
   88d9c:	97ffe565 	bl	82330 <uart_puts>
   88da0:	17ffffed 	b	88d54 <syscall_dispatch+0x90>

0000000000088da4 <user_task_entry>:
   88da4:	a9bf7bfd 	stp	x29, x30, [sp, #-16]!
   88da8:	910003fd 	mov	x29, sp
   88dac:	f0007bc0 	adrp	x0, 1003000 <GLOBAL_UART+0x3000>
   88db0:	913a6000 	add	x0, x0, #0xe98
   88db4:	97ffe55f 	bl	82330 <uart_puts>
   88db8:	d2800000 	mov	x0, #0x0                   	// #0
   88dbc:	d4000001 	svc	#0x0
   88dc0:	d2824680 	mov	x0, #0x1234                	// #4660
   88dc4:	d4000021 	svc	#0x1
   88dc8:	d4000061 	svc	#0x3
   88dcc:	d2800540 	mov	x0, #0x2a                  	// #42
   88dd0:	d4000041 	svc	#0x2
   88dd4:	14000000 	b	88dd4 <user_task_entry+0x30>

Disassembly of section .text.rest:

0000000000089000 <vector_table>:
   89000:	140002a0 	b	89a80 <sync_handler>
   89004:	d503201f 	nop
   89008:	d503201f 	nop
   8900c:	d503201f 	nop
   89010:	d503201f 	nop
   89014:	d503201f 	nop
   89018:	d503201f 	nop
   8901c:	d503201f 	nop
   89020:	d503201f 	nop
   89024:	d503201f 	nop
   89028:	d503201f 	nop
   8902c:	d503201f 	nop
   89030:	d503201f 	nop
   89034:	d503201f 	nop
   89038:	d503201f 	nop
   8903c:	d503201f 	nop
   89040:	d503201f 	nop
   89044:	d503201f 	nop
   89048:	d503201f 	nop
   8904c:	d503201f 	nop
   89050:	d503201f 	nop
   89054:	d503201f 	nop
   89058:	d503201f 	nop
   8905c:	d503201f 	nop
   89060:	d503201f 	nop
   89064:	d503201f 	nop
   89068:	d503201f 	nop
   8906c:	d503201f 	nop
   89070:	d503201f 	nop
   89074:	d503201f 	nop
   89078:	d503201f 	nop
   8907c:	d503201f 	nop
   89080:	17fff6f4 	b	86c50 <irq_handler>
   89084:	d503201f 	nop
   89088:	d503201f 	nop
   8908c:	d503201f 	nop
   89090:	d503201f 	nop
   89094:	d503201f 	nop
   89098:	d503201f 	nop
   8909c:	d503201f 	nop
   890a0:	d503201f 	nop
   890a4:	d503201f 	nop
   890a8:	d503201f 	nop
   890ac:	d503201f 	nop
   890b0:	d503201f 	nop
   890b4:	d503201f 	nop
   890b8:	d503201f 	nop
   890bc:	d503201f 	nop
   890c0:	d503201f 	nop
   890c4:	d503201f 	nop
   890c8:	d503201f 	nop
   890cc:	d503201f 	nop
   890d0:	d503201f 	nop
   890d4:	d503201f 	nop
   890d8:	d503201f 	nop
   890dc:	d503201f 	nop
   890e0:	d503201f 	nop
   890e4:	d503201f 	nop
   890e8:	d503201f 	nop
   890ec:	d503201f 	nop
   890f0:	d503201f 	nop
   890f4:	d503201f 	nop
   890f8:	d503201f 	nop
   890fc:	d503201f 	nop
   89100:	14000216 	b	89958 <fiq_debug_handler>
   89104:	d503201f 	nop
   89108:	d503201f 	nop
   8910c:	d503201f 	nop
   89110:	d503201f 	nop
   89114:	d503201f 	nop
   89118:	d503201f 	nop
   8911c:	d503201f 	nop
   89120:	d503201f 	nop
   89124:	d503201f 	nop
   89128:	d503201f 	nop
   8912c:	d503201f 	nop
   89130:	d503201f 	nop
   89134:	d503201f 	nop
   89138:	d503201f 	nop
   8913c:	d503201f 	nop
   89140:	d503201f 	nop
   89144:	d503201f 	nop
   89148:	d503201f 	nop
   8914c:	d503201f 	nop
   89150:	d503201f 	nop
   89154:	d503201f 	nop
   89158:	d503201f 	nop
   8915c:	d503201f 	nop
   89160:	d503201f 	nop
   89164:	d503201f 	nop
   89168:	d503201f 	nop
   8916c:	d503201f 	nop
   89170:	d503201f 	nop
   89174:	d503201f 	nop
   89178:	d503201f 	nop
   8917c:	d503201f 	nop
   89180:	17fff7a5 	b	87014 <serror_debug_handler>
   89184:	d503201f 	nop
   89188:	d503201f 	nop
   8918c:	d503201f 	nop
   89190:	d503201f 	nop
   89194:	d503201f 	nop
   89198:	d503201f 	nop
   8919c:	d503201f 	nop
   891a0:	d503201f 	nop
   891a4:	d503201f 	nop
   891a8:	d503201f 	nop
   891ac:	d503201f 	nop
   891b0:	d503201f 	nop
   891b4:	d503201f 	nop
   891b8:	d503201f 	nop
   891bc:	d503201f 	nop
   891c0:	d503201f 	nop
   891c4:	d503201f 	nop
   891c8:	d503201f 	nop
   891cc:	d503201f 	nop
   891d0:	d503201f 	nop
   891d4:	d503201f 	nop
   891d8:	d503201f 	nop
   891dc:	d503201f 	nop
   891e0:	d503201f 	nop
   891e4:	d503201f 	nop
   891e8:	d503201f 	nop
   891ec:	d503201f 	nop
   891f0:	d503201f 	nop
   891f4:	d503201f 	nop
   891f8:	d503201f 	nop
   891fc:	d503201f 	nop
   89200:	14000161 	b	89784 <sync_debug_handler>
   89204:	d503201f 	nop
   89208:	d503201f 	nop
   8920c:	d503201f 	nop
   89210:	d503201f 	nop
   89214:	d503201f 	nop
   89218:	d503201f 	nop
   8921c:	d503201f 	nop
   89220:	d503201f 	nop
   89224:	d503201f 	nop
   89228:	d503201f 	nop
   8922c:	d503201f 	nop
   89230:	d503201f 	nop
   89234:	d503201f 	nop
   89238:	d503201f 	nop
   8923c:	d503201f 	nop
   89240:	d503201f 	nop
   89244:	d503201f 	nop
   89248:	d503201f 	nop
   8924c:	d503201f 	nop
   89250:	d503201f 	nop
   89254:	d503201f 	nop
   89258:	d503201f 	nop
   8925c:	d503201f 	nop
   89260:	d503201f 	nop
   89264:	d503201f 	nop
   89268:	d503201f 	nop
   8926c:	d503201f 	nop
   89270:	d503201f 	nop
   89274:	d503201f 	nop
   89278:	d503201f 	nop
   8927c:	d503201f 	nop
   89280:	140001aa 	b	89928 <irq_debug_handler>
   89284:	d503201f 	nop
   89288:	d503201f 	nop
   8928c:	d503201f 	nop
   89290:	d503201f 	nop
   89294:	d503201f 	nop
   89298:	d503201f 	nop
   8929c:	d503201f 	nop
   892a0:	d503201f 	nop
   892a4:	d503201f 	nop
   892a8:	d503201f 	nop
   892ac:	d503201f 	nop
   892b0:	d503201f 	nop
   892b4:	d503201f 	nop
   892b8:	d503201f 	nop
   892bc:	d503201f 	nop
   892c0:	d503201f 	nop
   892c4:	d503201f 	nop
   892c8:	d503201f 	nop
   892cc:	d503201f 	nop
   892d0:	d503201f 	nop
   892d4:	d503201f 	nop
   892d8:	d503201f 	nop
   892dc:	d503201f 	nop
   892e0:	d503201f 	nop
   892e4:	d503201f 	nop
   892e8:	d503201f 	nop
   892ec:	d503201f 	nop
   892f0:	d503201f 	nop
   892f4:	d503201f 	nop
   892f8:	d503201f 	nop
   892fc:	d503201f 	nop
   89300:	14000196 	b	89958 <fiq_debug_handler>
   89304:	d503201f 	nop
   89308:	d503201f 	nop
   8930c:	d503201f 	nop
   89310:	d503201f 	nop
   89314:	d503201f 	nop
   89318:	d503201f 	nop
   8931c:	d503201f 	nop
   89320:	d503201f 	nop
   89324:	d503201f 	nop
   89328:	d503201f 	nop
   8932c:	d503201f 	nop
   89330:	d503201f 	nop
   89334:	d503201f 	nop
   89338:	d503201f 	nop
   8933c:	d503201f 	nop
   89340:	d503201f 	nop
   89344:	d503201f 	nop
   89348:	d503201f 	nop
   8934c:	d503201f 	nop
   89350:	d503201f 	nop
   89354:	d503201f 	nop
   89358:	d503201f 	nop
   8935c:	d503201f 	nop
   89360:	d503201f 	nop
   89364:	d503201f 	nop
   89368:	d503201f 	nop
   8936c:	d503201f 	nop
   89370:	d503201f 	nop
   89374:	d503201f 	nop
   89378:	d503201f 	nop
   8937c:	d503201f 	nop
   89380:	17fff725 	b	87014 <serror_debug_handler>
   89384:	d503201f 	nop
   89388:	d503201f 	nop
   8938c:	d503201f 	nop
   89390:	d503201f 	nop
   89394:	d503201f 	nop
   89398:	d503201f 	nop
   8939c:	d503201f 	nop
   893a0:	d503201f 	nop
   893a4:	d503201f 	nop
   893a8:	d503201f 	nop
   893ac:	d503201f 	nop
   893b0:	d503201f 	nop
   893b4:	d503201f 	nop
   893b8:	d503201f 	nop
   893bc:	d503201f 	nop
   893c0:	d503201f 	nop
   893c4:	d503201f 	nop
   893c8:	d503201f 	nop
   893cc:	d503201f 	nop
   893d0:	d503201f 	nop
   893d4:	d503201f 	nop
   893d8:	d503201f 	nop
   893dc:	d503201f 	nop
   893e0:	d503201f 	nop
   893e4:	d503201f 	nop
   893e8:	d503201f 	nop
   893ec:	d503201f 	nop
   893f0:	d503201f 	nop
   893f4:	d503201f 	nop
   893f8:	d503201f 	nop
   893fc:	d503201f 	nop
   89400:	17fffcc3 	b	8870c <sync_el0_handler>
   89404:	d503201f 	nop
   89408:	d503201f 	nop
   8940c:	d503201f 	nop
   89410:	d503201f 	nop
   89414:	d503201f 	nop
   89418:	d503201f 	nop
   8941c:	d503201f 	nop
   89420:	d503201f 	nop
   89424:	d503201f 	nop
   89428:	d503201f 	nop
   8942c:	d503201f 	nop
   89430:	d503201f 	nop
   89434:	d503201f 	nop
   89438:	d503201f 	nop
   8943c:	d503201f 	nop
   89440:	d503201f 	nop
   89444:	d503201f 	nop
   89448:	d503201f 	nop
   8944c:	d503201f 	nop
   89450:	d503201f 	nop
   89454:	d503201f 	nop
   89458:	d503201f 	nop
   8945c:	d503201f 	nop
   89460:	d503201f 	nop
   89464:	d503201f 	nop
   89468:	d503201f 	nop
   8946c:	d503201f 	nop
   89470:	d503201f 	nop
   89474:	d503201f 	nop
   89478:	d503201f 	nop
   8947c:	d503201f 	nop
   89480:	17fffd3e 	b	88978 <irq_el0_handler>
   89484:	d503201f 	nop
   89488:	d503201f 	nop
   8948c:	d503201f 	nop
   89490:	d503201f 	nop
   89494:	d503201f 	nop
   89498:	d503201f 	nop
   8949c:	d503201f 	nop
   894a0:	d503201f 	nop
   894a4:	d503201f 	nop
   894a8:	d503201f 	nop
   894ac:	d503201f 	nop
   894b0:	d503201f 	nop
   894b4:	d503201f 	nop
   894b8:	d503201f 	nop
   894bc:	d503201f 	nop
   894c0:	d503201f 	nop
   894c4:	d503201f 	nop
   894c8:	d503201f 	nop
   894cc:	d503201f 	nop
   894d0:	d503201f 	nop
   894d4:	d503201f 	nop
   894d8:	d503201f 	nop
   894dc:	d503201f 	nop
   894e0:	d503201f 	nop
   894e4:	d503201f 	nop
   894e8:	d503201f 	nop
   894ec:	d503201f 	nop
   894f0:	d503201f 	nop
   894f4:	d503201f 	nop
   894f8:	d503201f 	nop
   894fc:	d503201f 	nop
   89500:	17fffd24 	b	88990 <fiq_el0_handler>
   89504:	d503201f 	nop
   89508:	d503201f 	nop
   8950c:	d503201f 	nop
   89510:	d503201f 	nop
   89514:	d503201f 	nop
   89518:	d503201f 	nop
   8951c:	d503201f 	nop
   89520:	d503201f 	nop
   89524:	d503201f 	nop
   89528:	d503201f 	nop
   8952c:	d503201f 	nop
   89530:	d503201f 	nop
   89534:	d503201f 	nop
   89538:	d503201f 	nop
   8953c:	d503201f 	nop
   89540:	d503201f 	nop
   89544:	d503201f 	nop
   89548:	d503201f 	nop
   8954c:	d503201f 	nop
   89550:	d503201f 	nop
   89554:	d503201f 	nop
   89558:	d503201f 	nop
   8955c:	d503201f 	nop
   89560:	d503201f 	nop
   89564:	d503201f 	nop
   89568:	d503201f 	nop
   8956c:	d503201f 	nop
   89570:	d503201f 	nop
   89574:	d503201f 	nop
   89578:	d503201f 	nop
   8957c:	d503201f 	nop
   89580:	17fffd0a 	b	889a8 <serror_el0_handler>
   89584:	d503201f 	nop
   89588:	d503201f 	nop
   8958c:	d503201f 	nop
   89590:	d503201f 	nop
   89594:	d503201f 	nop
   89598:	d503201f 	nop
   8959c:	d503201f 	nop
   895a0:	d503201f 	nop
   895a4:	d503201f 	nop
   895a8:	d503201f 	nop
   895ac:	d503201f 	nop
   895b0:	d503201f 	nop
   895b4:	d503201f 	nop
   895b8:	d503201f 	nop
   895bc:	d503201f 	nop
   895c0:	d503201f 	nop
   895c4:	d503201f 	nop
   895c8:	d503201f 	nop
   895cc:	d503201f 	nop
   895d0:	d503201f 	nop
   895d4:	d503201f 	nop
   895d8:	d503201f 	nop
   895dc:	d503201f 	nop
   895e0:	d503201f 	nop
   895e4:	d503201f 	nop
   895e8:	d503201f 	nop
   895ec:	d503201f 	nop
   895f0:	d503201f 	nop
   895f4:	d503201f 	nop
   895f8:	d503201f 	nop
   895fc:	d503201f 	nop
   89600:	17fffc43 	b	8870c <sync_el0_handler>
   89604:	d503201f 	nop
   89608:	d503201f 	nop
   8960c:	d503201f 	nop
   89610:	d503201f 	nop
   89614:	d503201f 	nop
   89618:	d503201f 	nop
   8961c:	d503201f 	nop
   89620:	d503201f 	nop
   89624:	d503201f 	nop
   89628:	d503201f 	nop
   8962c:	d503201f 	nop
   89630:	d503201f 	nop
   89634:	d503201f 	nop
   89638:	d503201f 	nop
   8963c:	d503201f 	nop
   89640:	d503201f 	nop
   89644:	d503201f 	nop
   89648:	d503201f 	nop
   8964c:	d503201f 	nop
   89650:	d503201f 	nop
   89654:	d503201f 	nop
   89658:	d503201f 	nop
   8965c:	d503201f 	nop
   89660:	d503201f 	nop
   89664:	d503201f 	nop
   89668:	d503201f 	nop
   8966c:	d503201f 	nop
   89670:	d503201f 	nop
   89674:	d503201f 	nop
   89678:	d503201f 	nop
   8967c:	d503201f 	nop
   89680:	17fffcbe 	b	88978 <irq_el0_handler>
   89684:	d503201f 	nop
   89688:	d503201f 	nop
   8968c:	d503201f 	nop
   89690:	d503201f 	nop
   89694:	d503201f 	nop
   89698:	d503201f 	nop
   8969c:	d503201f 	nop
   896a0:	d503201f 	nop
   896a4:	d503201f 	nop
   896a8:	d503201f 	nop
   896ac:	d503201f 	nop
   896b0:	d503201f 	nop
   896b4:	d503201f 	nop
   896b8:	d503201f 	nop
   896bc:	d503201f 	nop
   896c0:	d503201f 	nop
   896c4:	d503201f 	nop
   896c8:	d503201f 	nop
   896cc:	d503201f 	nop
   896d0:	d503201f 	nop
   896d4:	d503201f 	nop
   896d8:	d503201f 	nop
   896dc:	d503201f 	nop
   896e0:	d503201f 	nop
   896e4:	d503201f 	nop
   896e8:	d503201f 	nop
   896ec:	d503201f 	nop
   896f0:	d503201f 	nop
   896f4:	d503201f 	nop
   896f8:	d503201f 	nop
   896fc:	d503201f 	nop
   89700:	17fffca4 	b	88990 <fiq_el0_handler>
   89704:	d503201f 	nop
   89708:	d503201f 	nop
   8970c:	d503201f 	nop
   89710:	d503201f 	nop
   89714:	d503201f 	nop
   89718:	d503201f 	nop
   8971c:	d503201f 	nop
   89720:	d503201f 	nop
   89724:	d503201f 	nop
   89728:	d503201f 	nop
   8972c:	d503201f 	nop
   89730:	d503201f 	nop
   89734:	d503201f 	nop
   89738:	d503201f 	nop
   8973c:	d503201f 	nop
   89740:	d503201f 	nop
   89744:	d503201f 	nop
   89748:	d503201f 	nop
   8974c:	d503201f 	nop
   89750:	d503201f 	nop
   89754:	d503201f 	nop
   89758:	d503201f 	nop
   8975c:	d503201f 	nop
   89760:	d503201f 	nop
   89764:	d503201f 	nop
   89768:	d503201f 	nop
   8976c:	d503201f 	nop
   89770:	d503201f 	nop
   89774:	d503201f 	nop
   89778:	d503201f 	nop
   8977c:	d503201f 	nop
   89780:	17fffc8a 	b	889a8 <serror_el0_handler>

0000000000089784 <sync_debug_handler>:
   89784:	d2800420 	mov	x0, #0x21                  	// #33
   89788:	58002741 	ldr	x1, 89c70 <check_fix_stack_alignment+0x70>
   8978c:	b9000020 	str	w0, [x1]
   89790:	d2800a60 	mov	x0, #0x53                  	// #83
   89794:	b9000020 	str	w0, [x1]
   89798:	d2800b20 	mov	x0, #0x59                  	// #89
   8979c:	b9000020 	str	w0, [x1]
   897a0:	d28009c0 	mov	x0, #0x4e                  	// #78
   897a4:	b9000020 	str	w0, [x1]
   897a8:	d2800860 	mov	x0, #0x43                  	// #67
   897ac:	b9000020 	str	w0, [x1]
   897b0:	d2800420 	mov	x0, #0x21                  	// #33
   897b4:	b9000020 	str	w0, [x1]
   897b8:	580025c1 	ldr	x1, 89c70 <check_fix_stack_alignment+0x70>
   897bc:	d5384022 	mrs	x2, elr_el1
   897c0:	d35cfc42 	lsr	x2, x2, #28
   897c4:	92400c42 	and	x2, x2, #0xf
   897c8:	f100285f 	cmp	x2, #0xa
   897cc:	5400006b 	b.lt	897d8 <sync_debug_handler+0x54>  // b.tstop
   897d0:	9100dc42 	add	x2, x2, #0x37
   897d4:	14000002 	b	897dc <sync_debug_handler+0x58>
   897d8:	9100c042 	add	x2, x2, #0x30
   897dc:	b9000022 	str	w2, [x1]
   897e0:	d2800740 	mov	x0, #0x3a                  	// #58
   897e4:	b9000020 	str	w0, [x1]
   897e8:	d28008a0 	mov	x0, #0x45                  	// #69
   897ec:	b9000020 	str	w0, [x1]
   897f0:	d2800860 	mov	x0, #0x43                  	// #67
   897f4:	b9000020 	str	w0, [x1]
   897f8:	d28007a0 	mov	x0, #0x3d                  	// #61
   897fc:	b9000020 	str	w0, [x1]
   89800:	d5385202 	mrs	x2, esr_el1
   89804:	d35afc42 	lsr	x2, x2, #26
   89808:	92401442 	and	x2, x2, #0x3f
   8980c:	f100285f 	cmp	x2, #0xa
   89810:	5400006b 	b.lt	8981c <sync_debug_handler+0x98>  // b.tstop
   89814:	9100dc42 	add	x2, x2, #0x37
   89818:	14000002 	b	89820 <sync_debug_handler+0x9c>
   8981c:	9100c042 	add	x2, x2, #0x30
   89820:	b9000022 	str	w2, [x1]
   89824:	d2800740 	mov	x0, #0x3a                  	// #58
   89828:	b9000020 	str	w0, [x1]
   8982c:	d2800800 	mov	x0, #0x40                  	// #64
   89830:	b9000020 	str	w0, [x1]
   89834:	d5386002 	mrs	x2, far_el1
   89838:	d35cfc42 	lsr	x2, x2, #28
   8983c:	92400c42 	and	x2, x2, #0xf
   89840:	f100285f 	cmp	x2, #0xa
   89844:	5400006b 	b.lt	89850 <sync_debug_handler+0xcc>  // b.tstop
   89848:	9100dc42 	add	x2, x2, #0x37
   8984c:	14000002 	b	89854 <sync_debug_handler+0xd0>
   89850:	9100c042 	add	x2, x2, #0x30
   89854:	b9000022 	str	w2, [x1]
   89858:	d2800740 	mov	x0, #0x3a                  	// #58
   8985c:	b9000020 	str	w0, [x1]
   89860:	d28008a0 	mov	x0, #0x45                  	// #69
   89864:	b9000020 	str	w0, [x1]
   89868:	d28007a0 	mov	x0, #0x3d                  	// #61
   8986c:	b9000020 	str	w0, [x1]
   89870:	d5385202 	mrs	x2, esr_el1
   89874:	aa0203e3 	mov	x3, x2
   89878:	d350fc63 	lsr	x3, x3, #16
   8987c:	92400c63 	and	x3, x3, #0xf
   89880:	f100287f 	cmp	x3, #0xa
   89884:	5400006b 	b.lt	89890 <sync_debug_handler+0x10c>  // b.tstop
   89888:	9100dc63 	add	x3, x3, #0x37
   8988c:	14000002 	b	89894 <sync_debug_handler+0x110>
   89890:	9100c063 	add	x3, x3, #0x30
   89894:	b9000023 	str	w3, [x1]
   89898:	aa0203e3 	mov	x3, x2
   8989c:	d34cfc63 	lsr	x3, x3, #12
   898a0:	92400c63 	and	x3, x3, #0xf
   898a4:	f100287f 	cmp	x3, #0xa
   898a8:	5400006b 	b.lt	898b4 <sync_debug_handler+0x130>  // b.tstop
   898ac:	9100dc63 	add	x3, x3, #0x37
   898b0:	14000002 	b	898b8 <sync_debug_handler+0x134>
   898b4:	9100c063 	add	x3, x3, #0x30
   898b8:	b9000023 	str	w3, [x1]
   898bc:	aa0203e3 	mov	x3, x2
   898c0:	d348fc63 	lsr	x3, x3, #8
   898c4:	92400c63 	and	x3, x3, #0xf
   898c8:	f100287f 	cmp	x3, #0xa
   898cc:	5400006b 	b.lt	898d8 <sync_debug_handler+0x154>  // b.tstop
   898d0:	9100dc63 	add	x3, x3, #0x37
   898d4:	14000002 	b	898dc <sync_debug_handler+0x158>
   898d8:	9100c063 	add	x3, x3, #0x30
   898dc:	b9000023 	str	w3, [x1]
   898e0:	aa0203e3 	mov	x3, x2
   898e4:	d344fc63 	lsr	x3, x3, #4
   898e8:	92400c63 	and	x3, x3, #0xf
   898ec:	f100287f 	cmp	x3, #0xa
   898f0:	5400006b 	b.lt	898fc <sync_debug_handler+0x178>  // b.tstop
   898f4:	9100dc63 	add	x3, x3, #0x37
   898f8:	14000002 	b	89900 <sync_debug_handler+0x17c>
   898fc:	9100c063 	add	x3, x3, #0x30
   89900:	b9000023 	str	w3, [x1]
   89904:	aa0203e3 	mov	x3, x2
   89908:	92400c63 	and	x3, x3, #0xf
   8990c:	f100287f 	cmp	x3, #0xa
   89910:	5400006b 	b.lt	8991c <sync_debug_handler+0x198>  // b.tstop
   89914:	9100dc63 	add	x3, x3, #0x37
   89918:	14000002 	b	89920 <sync_debug_handler+0x19c>
   8991c:	9100c063 	add	x3, x3, #0x30
   89920:	b9000023 	str	w3, [x1]
   89924:	14000000 	b	89924 <sync_debug_handler+0x1a0>

0000000000089928 <irq_debug_handler>:
   89928:	d2800420 	mov	x0, #0x21                  	// #33
   8992c:	58001a21 	ldr	x1, 89c70 <check_fix_stack_alignment+0x70>
   89930:	b9000020 	str	w0, [x1]
   89934:	d2800920 	mov	x0, #0x49                  	// #73
   89938:	b9000020 	str	w0, [x1]
   8993c:	d2800a40 	mov	x0, #0x52                  	// #82
   89940:	b9000020 	str	w0, [x1]
   89944:	d2800a20 	mov	x0, #0x51                  	// #81
   89948:	b9000020 	str	w0, [x1]
   8994c:	d2800420 	mov	x0, #0x21                  	// #33
   89950:	b9000020 	str	w0, [x1]
   89954:	14000000 	b	89954 <irq_debug_handler+0x2c>

0000000000089958 <fiq_debug_handler>:
   89958:	d2800420 	mov	x0, #0x21                  	// #33
   8995c:	580018a1 	ldr	x1, 89c70 <check_fix_stack_alignment+0x70>
   89960:	b9000020 	str	w0, [x1]
   89964:	d28008c0 	mov	x0, #0x46                  	// #70
   89968:	b9000020 	str	w0, [x1]
   8996c:	d2800920 	mov	x0, #0x49                  	// #73
   89970:	b9000020 	str	w0, [x1]
   89974:	d2800a20 	mov	x0, #0x51                  	// #81
   89978:	b9000020 	str	w0, [x1]
   8997c:	d2800420 	mov	x0, #0x21                  	// #33
   89980:	b9000020 	str	w0, [x1]
   89984:	14000000 	b	89984 <fiq_debug_handler+0x2c>

0000000000089988 <irq_entry_el1h>:
   89988:	d28008a0 	mov	x0, #0x45                  	// #69
   8998c:	58001721 	ldr	x1, 89c70 <check_fix_stack_alignment+0x70>
   89990:	b9000020 	str	w0, [x1]
   89994:	d2800980 	mov	x0, #0x4c                  	// #76
   89998:	b9000020 	str	w0, [x1]
   8999c:	d2800620 	mov	x0, #0x31                  	// #49
   899a0:	b9000020 	str	w0, [x1]
   899a4:	d2800d00 	mov	x0, #0x68                  	// #104
   899a8:	b9000020 	str	w0, [x1]
   899ac:	d28005a0 	mov	x0, #0x2d                  	// #45
   899b0:	b9000020 	str	w0, [x1]
   899b4:	d2800920 	mov	x0, #0x49                  	// #73
   899b8:	b9000020 	str	w0, [x1]
   899bc:	d2800a40 	mov	x0, #0x52                  	// #82
   899c0:	b9000020 	str	w0, [x1]
   899c4:	d2800a20 	mov	x0, #0x51                  	// #81
   899c8:	b9000020 	str	w0, [x1]
   899cc:	d28001a0 	mov	x0, #0xd                   	// #13
   899d0:	b9000020 	str	w0, [x1]
   899d4:	d2800140 	mov	x0, #0xa                   	// #10
   899d8:	b9000020 	str	w0, [x1]
   899dc:	17fff49d 	b	86c50 <irq_handler>

00000000000899e0 <svc_handler>:
   899e0:	a9bf7bfd 	stp	x29, x30, [sp, #-16]!
   899e4:	a9bf07e0 	stp	x0, x1, [sp, #-16]!
   899e8:	d2800a60 	mov	x0, #0x53                  	// #83
   899ec:	58001421 	ldr	x1, 89c70 <check_fix_stack_alignment+0x70>
   899f0:	b9000020 	str	w0, [x1]
   899f4:	d2800ac0 	mov	x0, #0x56                  	// #86
   899f8:	b9000020 	str	w0, [x1]
   899fc:	d2800860 	mov	x0, #0x43                  	// #67
   89a00:	b9000020 	str	w0, [x1]
   89a04:	d2800740 	mov	x0, #0x3a                  	// #58
   89a08:	b9000020 	str	w0, [x1]
   89a0c:	d5385200 	mrs	x0, esr_el1
   89a10:	d35afc00 	lsr	x0, x0, #26
   89a14:	92401400 	and	x0, x0, #0x3f
   89a18:	f100541f 	cmp	x0, #0x15
   89a1c:	54000181 	b.ne	89a4c <not_svc>  // b.any
   89a20:	d5385200 	mrs	x0, esr_el1
   89a24:	92403c00 	and	x0, x0, #0xffff
   89a28:	9100c000 	add	x0, x0, #0x30
   89a2c:	b9000020 	str	w0, [x1]
   89a30:	d28001a0 	mov	x0, #0xd                   	// #13
   89a34:	b9000020 	str	w0, [x1]
   89a38:	d2800140 	mov	x0, #0xa                   	// #10
   89a3c:	b9000020 	str	w0, [x1]
   89a40:	a8c107e0 	ldp	x0, x1, [sp], #16
   89a44:	a8c17bfd 	ldp	x29, x30, [sp], #16
   89a48:	d65f03c0 	ret

0000000000089a4c <not_svc>:
   89a4c:	d2800420 	mov	x0, #0x21                  	// #33
   89a50:	b9000020 	str	w0, [x1]
   89a54:	d28008a0 	mov	x0, #0x45                  	// #69
   89a58:	b9000020 	str	w0, [x1]
   89a5c:	d2800a40 	mov	x0, #0x52                  	// #82
   89a60:	b9000020 	str	w0, [x1]
   89a64:	d2800a40 	mov	x0, #0x52                  	// #82
   89a68:	b9000020 	str	w0, [x1]
   89a6c:	d2800420 	mov	x0, #0x21                  	// #33
   89a70:	b9000020 	str	w0, [x1]
   89a74:	a8c107e0 	ldp	x0, x1, [sp], #16
   89a78:	a8c17bfd 	ldp	x29, x30, [sp], #16
   89a7c:	14000001 	b	89a80 <sync_handler>

0000000000089a80 <sync_handler>:
   89a80:	d5385202 	mrs	x2, esr_el1
   89a84:	d35afc44 	lsr	x4, x2, #26
   89a88:	92401484 	and	x4, x4, #0x3f
   89a8c:	f100549f 	cmp	x4, #0x15
   89a90:	540001a0 	b.eq	89ac4 <handle_svc>  // b.none
   89a94:	d2800b00 	mov	x0, #0x58                  	// #88
   89a98:	58000ec1 	ldr	x1, 89c70 <check_fix_stack_alignment+0x70>
   89a9c:	b9000020 	str	w0, [x1]
   89aa0:	d5385202 	mrs	x2, esr_el1
   89aa4:	d5384023 	mrs	x3, elr_el1
   89aa8:	d35cfc42 	lsr	x2, x2, #28
   89aac:	d35cfc63 	lsr	x3, x3, #28
   89ab0:	9100c042 	add	x2, x2, #0x30
   89ab4:	9100c063 	add	x3, x3, #0x30
   89ab8:	b9000022 	str	w2, [x1]
   89abc:	b9000023 	str	w3, [x1]
   89ac0:	14000000 	b	89ac0 <sync_handler+0x40>

0000000000089ac4 <handle_svc>:
   89ac4:	a9bf7bfd 	stp	x29, x30, [sp, #-16]!
   89ac8:	97ffffc6 	bl	899e0 <svc_handler>
   89acc:	a8c17bfd 	ldp	x29, x30, [sp], #16
   89ad0:	d69f03e0 	eret

0000000000089ad4 <sync_abort_handler>:
   89ad4:	d2800420 	mov	x0, #0x21                  	// #33
   89ad8:	58000cc1 	ldr	x1, 89c70 <check_fix_stack_alignment+0x70>
   89adc:	b9000020 	str	w0, [x1]
   89ae0:	d28008a0 	mov	x0, #0x45                  	// #69
   89ae4:	b9000020 	str	w0, [x1]
   89ae8:	d2800b00 	mov	x0, #0x58                  	// #88
   89aec:	b9000020 	str	w0, [x1]
   89af0:	d2800860 	mov	x0, #0x43                  	// #67
   89af4:	b9000020 	str	w0, [x1]
   89af8:	d2800a00 	mov	x0, #0x50                  	// #80
   89afc:	b9000020 	str	w0, [x1]
   89b00:	d2800a80 	mov	x0, #0x54                  	// #84
   89b04:	b9000020 	str	w0, [x1]
   89b08:	d2800420 	mov	x0, #0x21                  	// #33
   89b0c:	b9000020 	str	w0, [x1]
   89b10:	d5385202 	mrs	x2, esr_el1
   89b14:	d5384023 	mrs	x3, elr_el1
   89b18:	d35cfc42 	lsr	x2, x2, #28
   89b1c:	d35cfc63 	lsr	x3, x3, #28
   89b20:	9100c042 	add	x2, x2, #0x30
   89b24:	9100c063 	add	x3, x3, #0x30
   89b28:	b9000022 	str	w2, [x1]
   89b2c:	b9000023 	str	w3, [x1]
   89b30:	d5385204 	mrs	x4, esr_el1
   89b34:	d358fc84 	lsr	x4, x4, #24
   89b38:	92401c84 	and	x4, x4, #0xff
   89b3c:	aa0403e5 	mov	x5, x4
   89b40:	d344fca5 	lsr	x5, x5, #4
   89b44:	92400ca5 	and	x5, x5, #0xf
   89b48:	f10028bf 	cmp	x5, #0xa
   89b4c:	5400006b 	b.lt	89b58 <sync_abort_handler+0x84>  // b.tstop
   89b50:	9100dca5 	add	x5, x5, #0x37
   89b54:	14000002 	b	89b5c <sync_abort_handler+0x88>
   89b58:	9100c0a5 	add	x5, x5, #0x30
   89b5c:	b9000025 	str	w5, [x1]
   89b60:	92400c85 	and	x5, x4, #0xf
   89b64:	f10028bf 	cmp	x5, #0xa
   89b68:	5400006b 	b.lt	89b74 <sync_abort_handler+0xa0>  // b.tstop
   89b6c:	9100dca5 	add	x5, x5, #0x37
   89b70:	14000002 	b	89b78 <sync_abort_handler+0xa4>
   89b74:	9100c0a5 	add	x5, x5, #0x30
   89b78:	b9000025 	str	w5, [x1]
   89b7c:	14000000 	b	89b7c <sync_abort_handler+0xa8>

0000000000089b80 <set_vbar_el1>:
   89b80:	d518c000 	msr	vbar_el1, x0
   89b84:	d5033fdf 	isb
   89b88:	d65f03c0 	ret
   89b8c:	d503201f 	nop

0000000000089b90 <set_safe_spsr>:
   89b90:	58000709 	ldr	x9, 89c70 <check_fix_stack_alignment+0x70>
   89b94:	52800a6a 	mov	w10, #0x53                  	// #83
   89b98:	b900012a 	str	w10, [x9]
   89b9c:	52800a0a 	mov	w10, #0x50                  	// #80
   89ba0:	b900012a 	str	w10, [x9]
   89ba4:	52800a6a 	mov	w10, #0x53                  	// #83
   89ba8:	b900012a 	str	w10, [x9]
   89bac:	52800a4a 	mov	w10, #0x52                  	// #82
   89bb0:	b900012a 	str	w10, [x9]
   89bb4:	5280074a 	mov	w10, #0x3a                  	// #58
   89bb8:	b900012a 	str	w10, [x9]
   89bbc:	d2806800 	mov	x0, #0x340                 	// #832
   89bc0:	d5184000 	msr	spsr_el1, x0
   89bc4:	d5384001 	mrs	x1, spsr_el1
   89bc8:	eb00003f 	cmp	x1, x0
   89bcc:	54000080 	b.eq	89bdc <set_safe_spsr+0x4c>  // b.none
   89bd0:	5280042a 	mov	w10, #0x21                  	// #33
   89bd4:	b900012a 	str	w10, [x9]
   89bd8:	d65f03c0 	ret
   89bdc:	528009ea 	mov	w10, #0x4f                  	// #79
   89be0:	b900012a 	str	w10, [x9]
   89be4:	5280096a 	mov	w10, #0x4b                  	// #75
   89be8:	b900012a 	str	w10, [x9]
   89bec:	528001aa 	mov	w10, #0xd                   	// #13
   89bf0:	b900012a 	str	w10, [x9]
   89bf4:	5280014a 	mov	w10, #0xa                   	// #10
   89bf8:	b900012a 	str	w10, [x9]
   89bfc:	d65f03c0 	ret

0000000000089c00 <check_fix_stack_alignment>:
   89c00:	58000389 	ldr	x9, 89c70 <check_fix_stack_alignment+0x70>
   89c04:	52800a6a 	mov	w10, #0x53                  	// #83
   89c08:	b900012a 	str	w10, [x9]
   89c0c:	52800a8a 	mov	w10, #0x54                  	// #84
   89c10:	b900012a 	str	w10, [x9]
   89c14:	5280096a 	mov	w10, #0x4b                  	// #75
   89c18:	b900012a 	str	w10, [x9]
   89c1c:	5280074a 	mov	w10, #0x3a                  	// #58
   89c20:	b900012a 	str	w10, [x9]
   89c24:	910003e0 	mov	x0, sp
   89c28:	91003c00 	add	x0, x0, #0xf
   89c2c:	d344fc00 	lsr	x0, x0, #4
   89c30:	d37cec00 	lsl	x0, x0, #4
   89c34:	9100001f 	mov	sp, x0
   89c38:	910003e1 	mov	x1, sp
   89c3c:	d3440c21 	lsl	x1, x1, #60
   89c40:	d37cfc21 	lsr	x1, x1, #60
   89c44:	b5000101 	cbnz	x1, 89c64 <check_fix_stack_alignment+0x64>
   89c48:	5280082a 	mov	w10, #0x41                  	// #65
   89c4c:	b900012a 	str	w10, [x9]
   89c50:	528001aa 	mov	w10, #0xd                   	// #13
   89c54:	b900012a 	str	w10, [x9]
   89c58:	5280014a 	mov	w10, #0xa                   	// #10
   89c5c:	b900012a 	str	w10, [x9]
   89c60:	d65f03c0 	ret
   89c64:	5280042a 	mov	w10, #0x21                  	// #33
   89c68:	b900012a 	str	w10, [x9]
   89c6c:	d65f03c0 	ret
   89c70:	09000000 	.word	0x09000000
   89c74:	00000000 	.word	0x00000000
