
build/kernel.elf:     file format elf64-littleaarch64


Disassembly of section .text.boot:

0000000000080000 <__text_start>:
   80000:	d2a12014 	mov	x20, #0x9000000             	// #150994944
   80004:	d2a81000 	mov	x0, #0x40800000            	// #1082130432
   80008:	9100001f 	mov	sp, x0
   8000c:	52800a62 	mov	w2, #0x53                  	// #83
   80010:	aa1403e1 	mov	x1, x20
   80014:	b9000022 	str	w2, [x1]
   80018:	910003e0 	mov	x0, sp
   8001c:	94000cf4 	bl	833ec <uart_puthex>
   80020:	aa1403e1 	mov	x1, x20
   80024:	52800b02 	mov	w2, #0x58                  	// #88
   80028:	b9000022 	str	w2, [x1]
   8002c:	d290000f 	mov	x15, #0x8000                	// #32768
   80030:	f10005ef 	subs	x15, x15, #0x1
   80034:	54ffffe1 	b.ne	80030 <__text_start+0x30>  // b.any
   80038:	52800842 	mov	w2, #0x42                  	// #66
   8003c:	b9000022 	str	w2, [x1]
   80040:	d290000f 	mov	x15, #0x8000                	// #32768
   80044:	f10005ef 	subs	x15, x15, #0x1
   80048:	54ffffe1 	b.ne	80044 <__text_start+0x44>  // b.any
   8004c:	58001320 	ldr	x0, 802b0 <halt+0xc>
   80050:	58001341 	ldr	x1, 802b8 <halt+0x14>
   80054:	eb01001f 	cmp	x0, x1
   80058:	54000080 	b.eq	80068 <skip_bss_init_new>  // b.none

000000000008005c <bss_loop_new>:
   8005c:	a8817c1f 	stp	xzr, xzr, [x0], #16
   80060:	eb01001f 	cmp	x0, x1
   80064:	54ffffc3 	b.cc	8005c <bss_loop_new>  // b.lo, b.ul, b.last

0000000000080068 <skip_bss_init_new>:
   80068:	52800c42 	mov	w2, #0x62                  	// #98
   8006c:	aa1403e1 	mov	x1, x20
   80070:	b9000022 	str	w2, [x1]
   80074:	d290000f 	mov	x15, #0x8000                	// #32768
   80078:	f10005ef 	subs	x15, x15, #0x1
   8007c:	54ffffe1 	b.ne	80078 <skip_bss_init_new+0x10>  // b.any
   80080:	528009a2 	mov	w2, #0x4d                  	// #77
   80084:	b9000022 	str	w2, [x1]
   80088:	d290000f 	mov	x15, #0x8000                	// #32768
   8008c:	f10005ef 	subs	x15, x15, #0x1
   80090:	54ffffe1 	b.ne	8008c <skip_bss_init_new+0x24>  // b.any
   80094:	f81f0ffe 	str	x30, [sp, #-16]!
   80098:	52800e62 	mov	w2, #0x73                  	// #115
   8009c:	b9000022 	str	w2, [x1]
   800a0:	d290000f 	mov	x15, #0x8000                	// #32768
   800a4:	f10005ef 	subs	x15, x15, #0x1
   800a8:	54ffffe1 	b.ne	800a4 <skip_bss_init_new+0x3c>  // b.any
   800ac:	52800622 	mov	w2, #0x31                  	// #49
   800b0:	b9000022 	str	w2, [x1]
   800b4:	d290000f 	mov	x15, #0x8000                	// #32768
   800b8:	f10005ef 	subs	x15, x15, #0x1
   800bc:	54ffffe1 	b.ne	800b8 <skip_bss_init_new+0x50>  // b.any
   800c0:	d280001e 	mov	x30, #0x0                   	// #0
   800c4:	100000fe 	adr	x30, 800e0 <return_label>
   800c8:	52800f02 	mov	w2, #0x78                  	// #120
   800cc:	b9000022 	str	w2, [x1]
   800d0:	d290000f 	mov	x15, #0x8000                	// #32768
   800d4:	f10005ef 	subs	x15, x15, #0x1
   800d8:	54ffffe1 	b.ne	800d4 <skip_bss_init_new+0x6c>  // b.any
   800dc:	14000e36 	b	839b4 <test_return>

00000000000800e0 <return_label>:
   800e0:	52800f22 	mov	w2, #0x79                  	// #121
   800e4:	b9000022 	str	w2, [x1]
   800e8:	d290000f 	mov	x15, #0x8000                	// #32768
   800ec:	f10005ef 	subs	x15, x15, #0x1
   800f0:	54ffffe1 	b.ne	800ec <return_label+0xc>  // b.any
   800f4:	9400106f 	bl	842b0 <init_pmm>
   800f8:	52800642 	mov	w2, #0x32                  	// #50
   800fc:	b9000022 	str	w2, [x1]
   80100:	d290000f 	mov	x15, #0x8000                	// #32768
   80104:	f10005ef 	subs	x15, x15, #0x1
   80108:	54ffffe1 	b.ne	80104 <return_label+0x24>  // b.any
   8010c:	f84107fe 	ldr	x30, [sp], #16
   80110:	52800a02 	mov	w2, #0x50                  	// #80
   80114:	b9000022 	str	w2, [x1]
   80118:	d290000f 	mov	x15, #0x8000                	// #32768
   8011c:	f10005ef 	subs	x15, x15, #0x1
   80120:	54ffffe1 	b.ne	8011c <return_label+0x3c>  // b.any
   80124:	52800c62 	mov	w2, #0x63                  	// #99
   80128:	b9000022 	str	w2, [x1]
   8012c:	d290000f 	mov	x15, #0x8000                	// #32768
   80130:	f10005ef 	subs	x15, x15, #0x1
   80134:	54ffffe1 	b.ne	80130 <return_label+0x50>  // b.any
   80138:	52800a62 	mov	w2, #0x53                  	// #83
   8013c:	b9000022 	str	w2, [x1]
   80140:	d290000f 	mov	x15, #0x8000                	// #32768
   80144:	f10005ef 	subs	x15, x15, #0x1
   80148:	54ffffe1 	b.ne	80144 <return_label+0x64>  // b.any
   8014c:	910003e0 	mov	x0, sp
   80150:	94000ca7 	bl	833ec <uart_puthex>
   80154:	aa1403e1 	mov	x1, x20
   80158:	528008c2 	mov	w2, #0x46                  	// #70
   8015c:	b9000022 	str	w2, [x1]
   80160:	d290000f 	mov	x15, #0x8000                	// #32768
   80164:	f10005ef 	subs	x15, x15, #0x1
   80168:	54ffffe1 	b.ne	80164 <return_label+0x84>  // b.any
   8016c:	910003e3 	mov	x3, sp
   80170:	92400c64 	and	x4, x3, #0xf
   80174:	1100c082 	add	w2, w4, #0x30
   80178:	b9000022 	str	w2, [x1]
   8017c:	d290000f 	mov	x15, #0x8000                	// #32768
   80180:	f10005ef 	subs	x15, x15, #0x1
   80184:	54ffffe1 	b.ne	80180 <return_label+0xa0>  // b.any
   80188:	927cec63 	and	x3, x3, #0xfffffffffffffff0
   8018c:	9100007f 	mov	sp, x3
   80190:	528009c2 	mov	w2, #0x4e                  	// #78
   80194:	b9000022 	str	w2, [x1]
   80198:	d290000f 	mov	x15, #0x8000                	// #32768
   8019c:	f10005ef 	subs	x15, x15, #0x1
   801a0:	54ffffe1 	b.ne	8019c <return_label+0xbc>  // b.any
   801a4:	910003e0 	mov	x0, sp
   801a8:	94000c91 	bl	833ec <uart_puthex>
   801ac:	aa1403e1 	mov	x1, x20
   801b0:	910003e3 	mov	x3, sp
   801b4:	92400c64 	and	x4, x3, #0xf
   801b8:	1100c082 	add	w2, w4, #0x30
   801bc:	b9000022 	str	w2, [x1]
   801c0:	d290000f 	mov	x15, #0x8000                	// #32768
   801c4:	f10005ef 	subs	x15, x15, #0x1
   801c8:	54ffffe1 	b.ne	801c4 <return_label+0xe4>  // b.any
   801cc:	52800ec2 	mov	w2, #0x76                  	// #118
   801d0:	b9000022 	str	w2, [x1]
   801d4:	d290000f 	mov	x15, #0x8000                	// #32768
   801d8:	f10005ef 	subs	x15, x15, #0x1
   801dc:	54ffffe1 	b.ne	801d8 <return_label+0xf8>  // b.any
   801e0:	52800ac2 	mov	w2, #0x56                  	// #86
   801e4:	b9000022 	str	w2, [x1]
   801e8:	52800842 	mov	w2, #0x42                  	// #66
   801ec:	b9000022 	str	w2, [x1]
   801f0:	52800742 	mov	w2, #0x3a                  	// #58
   801f4:	b9000022 	str	w2, [x1]
   801f8:	58000640 	ldr	x0, 802c0 <halt+0x1c>
   801fc:	d518c000 	msr	vbar_el1, x0
   80200:	d5033fdf 	isb
   80204:	d538c000 	mrs	x0, vbar_el1
   80208:	aa0003e2 	mov	x2, x0
   8020c:	d35cfc00 	lsr	x0, x0, #28
   80210:	92400c00 	and	x0, x0, #0xf
   80214:	f100281f 	cmp	x0, #0xa
   80218:	5400006b 	b.lt	80224 <return_label+0x144>  // b.tstop
   8021c:	1100dc00 	add	w0, w0, #0x37
   80220:	14000002 	b	80228 <return_label+0x148>
   80224:	1100c000 	add	w0, w0, #0x30
   80228:	b9000020 	str	w0, [x1]
   8022c:	52800742 	mov	w2, #0x3a                  	// #58
   80230:	b9000022 	str	w2, [x1]
   80234:	94001d6c 	bl	877e4 <init_vmm>
   80238:	52800ac2 	mov	w2, #0x56                  	// #86
   8023c:	b9000022 	str	w2, [x1]
   80240:	d290000f 	mov	x15, #0x8000                	// #32768
   80244:	f10005ef 	subs	x15, x15, #0x1
   80248:	54ffffe1 	b.ne	80244 <return_label+0x164>  // b.any
   8024c:	aa1403e1 	mov	x1, x20
   80250:	52800ac2 	mov	w2, #0x56                  	// #86
   80254:	b9000022 	str	w2, [x1]
   80258:	d290000f 	mov	x15, #0x8000                	// #32768
   8025c:	f10005ef 	subs	x15, x15, #0x1
   80260:	54ffffe1 	b.ne	8025c <return_label+0x17c>  // b.any
   80264:	52800a62 	mov	w2, #0x53                  	// #83
   80268:	b9000022 	str	w2, [x1]
   8026c:	d290000f 	mov	x15, #0x8000                	// #32768
   80270:	f10005ef 	subs	x15, x15, #0x1
   80274:	54ffffe1 	b.ne	80270 <return_label+0x190>  // b.any
   80278:	52800622 	mov	w2, #0x31                  	// #49
   8027c:	b9000022 	str	w2, [x1]
   80280:	d290000f 	mov	x15, #0x8000                	// #32768
   80284:	f10005ef 	subs	x15, x15, #0x1
   80288:	54ffffe1 	b.ne	80284 <return_label+0x1a4>  // b.any
   8028c:	94000025 	bl	80320 <kernel_main>
   80290:	52800642 	mov	w2, #0x32                  	// #50
   80294:	b9000022 	str	w2, [x1]
   80298:	d290000f 	mov	x15, #0x8000                	// #32768
   8029c:	f10005ef 	subs	x15, x15, #0x1
   802a0:	54ffffe1 	b.ne	8029c <return_label+0x1bc>  // b.any

00000000000802a4 <halt>:
   802a4:	d503205f 	wfe
   802a8:	17ffffff 	b	802a4 <halt>
   802ac:	00000000 	udf	#0
   802b0:	01007000 	.word	0x01007000
   802b4:	00000000 	.word	0x00000000
   802b8:	01007814 	.word	0x01007814
   802bc:	00000000 	.word	0x00000000
   802c0:	01000000 	.word	0x01000000
   802c4:	00000000 	.word	0x00000000

00000000000802c8 <test_uart_directly>:
   802c8:	a9bf7bfd 	stp	x29, x30, [sp, #-16]!
   802cc:	910003fd 	mov	x29, sp
   802d0:	58000241 	ldr	x1, 80318 <test_uart_directly+0x50>
   802d4:	52800a82 	mov	w2, #0x54                  	// #84
   802d8:	b9000022 	str	w2, [x1]
   802dc:	528008a2 	mov	w2, #0x45                  	// #69
   802e0:	b9000022 	str	w2, [x1]
   802e4:	52800a62 	mov	w2, #0x53                  	// #83
   802e8:	b9000022 	str	w2, [x1]
   802ec:	52800a82 	mov	w2, #0x54                  	// #84
   802f0:	b9000022 	str	w2, [x1]
   802f4:	528001a2 	mov	w2, #0xd                   	// #13
   802f8:	b9000022 	str	w2, [x1]
   802fc:	52800142 	mov	w2, #0xa                   	// #10
   80300:	b9000022 	str	w2, [x1]
   80304:	d29fffe3 	mov	x3, #0xffff                	// #65535
   80308:	f1000463 	subs	x3, x3, #0x1
   8030c:	54ffffe1 	b.ne	80308 <test_uart_directly+0x40>  // b.any
   80310:	a8c17bfd 	ldp	x29, x30, [sp], #16
   80314:	d65f03c0 	ret
   80318:	09000000 	.word	0x09000000
   8031c:	00000000 	.word	0x00000000

0000000000080320 <kernel_main>:
   80320:	a9bc7bfd 	stp	x29, x30, [sp, #-64]!
   80324:	910003fd 	mov	x29, sp
   80328:	a90153f3 	stp	x19, x20, [sp, #16]
   8032c:	a9025bf5 	stp	x21, x22, [sp, #32]
   80330:	f9001bf7 	str	x23, [sp, #48]
   80334:	aa0003f3 	mov	x19, x0
   80338:	940009cc 	bl	82a68 <uart_clear_screen>
   8033c:	52800820 	mov	w0, #0x41                  	// #65
   80340:	9400096e 	bl	828f8 <uart_debug_marker>
   80344:	aa1303e0 	mov	x0, x19
   80348:	940009b0 	bl	82a08 <uart_init_early>
   8034c:	d0007c00 	adrp	x0, 1002000 <hex_chars.0+0xff8>
   80350:	91046000 	add	x0, x0, #0x118
   80354:	9400093d 	bl	82848 <uart_puts_early>
   80358:	d0007c00 	adrp	x0, 1002000 <hex_chars.0+0xff8>
   8035c:	91052000 	add	x0, x0, #0x148
   80360:	9400093a 	bl	82848 <uart_puts_early>
   80364:	d0007c00 	adrp	x0, 1002000 <hex_chars.0+0xff8>
   80368:	9105a000 	add	x0, x0, #0x168
   8036c:	94000937 	bl	82848 <uart_puts_early>
   80370:	d2a12013 	mov	x19, #0x9000000             	// #150994944
   80374:	528009a0 	mov	w0, #0x4d                  	// #77
   80378:	b9000260 	str	w0, [x19]
   8037c:	94000fcd 	bl	842b0 <init_pmm>
   80380:	52800620 	mov	w0, #0x31                  	// #49
   80384:	b9000260 	str	w0, [x19]
   80388:	52800840 	mov	w0, #0x42                  	// #66
   8038c:	9400095b 	bl	828f8 <uart_debug_marker>
   80390:	d0007c00 	adrp	x0, 1002000 <hex_chars.0+0xff8>
   80394:	91066000 	add	x0, x0, #0x198
   80398:	9400092c 	bl	82848 <uart_puts_early>
   8039c:	940008b9 	bl	82680 <validate_vector_table_at_0x89000>
   803a0:	d0007c00 	adrp	x0, 1002000 <hex_chars.0+0xff8>
   803a4:	91076000 	add	x0, x0, #0x1d8
   803a8:	94000928 	bl	82848 <uart_puts_early>
   803ac:	d2920014 	mov	x20, #0x9000                	// #36864
   803b0:	f2a00114 	movk	x20, #0x8, lsl #16
   803b4:	d0007c17 	adrp	x23, 1002000 <hex_chars.0+0xff8>
   803b8:	910842f7 	add	x23, x23, #0x210
   803bc:	d0007c16 	adrp	x22, 1002000 <hex_chars.0+0xff8>
   803c0:	913922d6 	add	x22, x22, #0xe48
   803c4:	d2920415 	mov	x21, #0x9020                	// #36896
   803c8:	f2a00115 	movk	x21, #0x8, lsl #16
   803cc:	14000013 	b	80418 <kernel_main+0xf8>
   803d0:	39400281 	ldrb	w1, [x20]
   803d4:	d3441c21 	ubfx	x1, x1, #4, #4
   803d8:	38401693 	ldrb	w19, [x20], #1
   803dc:	12000e73 	and	w19, w19, #0xf
   803e0:	1100c020 	add	w0, w1, #0x30
   803e4:	1100dc22 	add	w2, w1, #0x37
   803e8:	7100243f 	cmp	w1, #0x9
   803ec:	1a808040 	csel	w0, w2, w0, hi	// hi = pmore
   803f0:	9400090e 	bl	82828 <uart_putc_early>
   803f4:	1100c260 	add	w0, w19, #0x30
   803f8:	1100de61 	add	w1, w19, #0x37
   803fc:	7100267f 	cmp	w19, #0x9
   80400:	1a808020 	csel	w0, w1, w0, hi	// hi = pmore
   80404:	94000909 	bl	82828 <uart_putc_early>
   80408:	52800400 	mov	w0, #0x20                  	// #32
   8040c:	94000907 	bl	82828 <uart_putc_early>
   80410:	eb15029f 	cmp	x20, x21
   80414:	54000140 	b.eq	8043c <kernel_main+0x11c>  // b.none
   80418:	12000a80 	and	w0, w20, #0x7
   8041c:	35fffda0 	cbnz	w0, 803d0 <kernel_main+0xb0>
   80420:	aa1703e0 	mov	x0, x23
   80424:	94000909 	bl	82848 <uart_puts_early>
   80428:	aa1403e0 	mov	x0, x20
   8042c:	9400091d 	bl	828a0 <uart_hex64_early>
   80430:	aa1603e0 	mov	x0, x22
   80434:	94000905 	bl	82848 <uart_puts_early>
   80438:	17ffffe6 	b	803d0 <kernel_main+0xb0>
   8043c:	d0007c00 	adrp	x0, 1002000 <hex_chars.0+0xff8>
   80440:	91086000 	add	x0, x0, #0x218
   80444:	94000901 	bl	82848 <uart_puts_early>
   80448:	52800860 	mov	w0, #0x43                  	// #67
   8044c:	9400092b 	bl	828f8 <uart_debug_marker>
   80450:	d0007c00 	adrp	x0, 1002000 <hex_chars.0+0xff8>
   80454:	91094000 	add	x0, x0, #0x250
   80458:	940008fc 	bl	82848 <uart_puts_early>
   8045c:	52920000 	mov	w0, #0x9000                	// #36864
   80460:	72a00100 	movk	w0, #0x8, lsl #16
   80464:	d50b7b20 	dc	cvau, x0
   80468:	d5033b9f 	dsb	ish
   8046c:	d5033fdf 	isb
   80470:	d0007c00 	adrp	x0, 1002000 <hex_chars.0+0xff8>
   80474:	910a2000 	add	x0, x0, #0x288
   80478:	940008f4 	bl	82848 <uart_puts_early>
   8047c:	d2920000 	mov	x0, #0x9000                	// #36864
   80480:	f2a00100 	movk	x0, #0x8, lsl #16
   80484:	9400085f 	bl	82600 <write_vbar_el1>
   80488:	52800880 	mov	w0, #0x44                  	// #68
   8048c:	9400091b 	bl	828f8 <uart_debug_marker>
   80490:	d0007c00 	adrp	x0, 1002000 <hex_chars.0+0xff8>
   80494:	910b0000 	add	x0, x0, #0x2c0
   80498:	940008ec 	bl	82848 <uart_puts_early>
   8049c:	d0007c00 	adrp	x0, 1002000 <hex_chars.0+0xff8>
   804a0:	910bc000 	add	x0, x0, #0x2f0
   804a4:	940008e9 	bl	82848 <uart_puts_early>
   804a8:	94001c61 	bl	8762c <init_vmm_wrapper>
   804ac:	d0007c00 	adrp	x0, 1002000 <hex_chars.0+0xff8>
   804b0:	910c6000 	add	x0, x0, #0x318
   804b4:	94000b11 	bl	830f8 <uart_puts_late>
   804b8:	d2a02000 	mov	x0, #0x1000000             	// #16777216
   804bc:	94000851 	bl	82600 <write_vbar_el1>
   804c0:	528008c0 	mov	w0, #0x46                  	// #70
   804c4:	940009fa 	bl	82cac <uart_debug_marker_late>
   804c8:	d0007c00 	adrp	x0, 1002000 <hex_chars.0+0xff8>
   804cc:	910d6000 	add	x0, x0, #0x358
   804d0:	94000b0a 	bl	830f8 <uart_puts_late>
   804d4:	940008a0 	bl	82754 <test_uart_after_mmu>
   804d8:	528008e0 	mov	w0, #0x47                  	// #71
   804dc:	940009f4 	bl	82cac <uart_debug_marker_late>
   804e0:	94000885 	bl	826f4 <test_exception_handling>
   804e4:	d0007c00 	adrp	x0, 1002000 <hex_chars.0+0xff8>
   804e8:	910e4000 	add	x0, x0, #0x390
   804ec:	94000b03 	bl	830f8 <uart_puts_late>
   804f0:	a94153f3 	ldp	x19, x20, [sp, #16]
   804f4:	a9425bf5 	ldp	x21, x22, [sp, #32]
   804f8:	f9401bf7 	ldr	x23, [sp, #48]
   804fc:	a8c47bfd 	ldp	x29, x30, [sp], #64
   80500:	d65f03c0 	ret

Disassembly of section .text:

0000000000081000 <task_a>:
   81000:	d10043ff 	sub	sp, sp, #0x10
   81004:	d2a12000 	mov	x0, #0x9000000             	// #150994944
   81008:	52800822 	mov	w2, #0x41                  	// #65
   8100c:	b9000002 	str	w2, [x0]
   81010:	52800be1 	mov	w1, #0x5f                  	// #95
   81014:	b9000001 	str	w1, [x0]
   81018:	52800a61 	mov	w1, #0x53                  	// #83
   8101c:	b9000001 	str	w1, [x0]
   81020:	52800a81 	mov	w1, #0x54                  	// #84
   81024:	b9000001 	str	w1, [x0]
   81028:	b9000002 	str	w2, [x0]
   8102c:	52800a42 	mov	w2, #0x52                  	// #82
   81030:	b9000002 	str	w2, [x0]
   81034:	b9000001 	str	w1, [x0]
   81038:	528001a1 	mov	w1, #0xd                   	// #13
   8103c:	b9000001 	str	w1, [x0]
   81040:	52800141 	mov	w1, #0xa                   	// #10
   81044:	b9000001 	str	w1, [x0]
   81048:	aa0003e3 	mov	x3, x0
   8104c:	52800822 	mov	w2, #0x41                  	// #65
   81050:	5290d3e1 	mov	w1, #0x869f                	// #34463
   81054:	72a00021 	movk	w1, #0x1, lsl #16
   81058:	b9000062 	str	w2, [x3]
   8105c:	b9000fff 	str	wzr, [sp, #12]
   81060:	b9400fe0 	ldr	w0, [sp, #12]
   81064:	6b01001f 	cmp	w0, w1
   81068:	54ffff8c 	b.gt	81058 <task_a+0x58>
   8106c:	b9400fe0 	ldr	w0, [sp, #12]
   81070:	11000400 	add	w0, w0, #0x1
   81074:	b9000fe0 	str	w0, [sp, #12]
   81078:	b9400fe0 	ldr	w0, [sp, #12]
   8107c:	6b01001f 	cmp	w0, w1
   81080:	54ffff6d 	b.le	8106c <task_a+0x6c>
   81084:	17fffff5 	b	81058 <task_a+0x58>

0000000000081088 <debug_print>:
   81088:	b4000280 	cbz	x0, 810d8 <debug_print+0x50>
   8108c:	39400001 	ldrb	w1, [x0]
   81090:	34000241 	cbz	w1, 810d8 <debug_print+0x50>
   81094:	d2800302 	mov	x2, #0x18                  	// #24
   81098:	f2a12002 	movk	x2, #0x900, lsl #16
   8109c:	d2a12003 	mov	x3, #0x9000000             	// #150994944
   810a0:	528001a4 	mov	w4, #0xd                   	// #13
   810a4:	14000007 	b	810c0 <debug_print+0x38>
   810a8:	b9400041 	ldr	w1, [x2]
   810ac:	372fffe1 	tbnz	w1, #5, 810a8 <debug_print+0x20>
   810b0:	38401401 	ldrb	w1, [x0], #1
   810b4:	b9000061 	str	w1, [x3]
   810b8:	39400001 	ldrb	w1, [x0]
   810bc:	340000e1 	cbz	w1, 810d8 <debug_print+0x50>
   810c0:	7100283f 	cmp	w1, #0xa
   810c4:	54ffff21 	b.ne	810a8 <debug_print+0x20>  // b.any
   810c8:	b9400041 	ldr	w1, [x2]
   810cc:	372fffe1 	tbnz	w1, #5, 810c8 <debug_print+0x40>
   810d0:	b9000064 	str	w4, [x3]
   810d4:	17fffff5 	b	810a8 <debug_print+0x20>
   810d8:	d65f03c0 	ret

00000000000810dc <debug_hex64>:
   810dc:	a9be7bfd 	stp	x29, x30, [sp, #-32]!
   810e0:	910003fd 	mov	x29, sp
   810e4:	f9000bf3 	str	x19, [sp, #16]
   810e8:	aa0103f3 	mov	x19, x1
   810ec:	97ffffe7 	bl	81088 <debug_print>
   810f0:	d2800301 	mov	x1, #0x18                  	// #24
   810f4:	f2a12001 	movk	x1, #0x900, lsl #16
   810f8:	b9400020 	ldr	w0, [x1]
   810fc:	372fffe0 	tbnz	w0, #5, 810f8 <debug_hex64+0x1c>
   81100:	d2a12000 	mov	x0, #0x9000000             	// #150994944
   81104:	52800601 	mov	w1, #0x30                  	// #48
   81108:	b9000001 	str	w1, [x0]
   8110c:	d2800301 	mov	x1, #0x18                  	// #24
   81110:	f2a12001 	movk	x1, #0x900, lsl #16
   81114:	b9400020 	ldr	w0, [x1]
   81118:	372fffe0 	tbnz	w0, #5, 81114 <debug_hex64+0x38>
   8111c:	d2a12000 	mov	x0, #0x9000000             	// #150994944
   81120:	52800f01 	mov	w1, #0x78                  	// #120
   81124:	b9000001 	str	w1, [x0]
   81128:	52800783 	mov	w3, #0x3c                  	// #60
   8112c:	d2800302 	mov	x2, #0x18                  	// #24
   81130:	f2a12002 	movk	x2, #0x900, lsl #16
   81134:	aa0003e1 	mov	x1, x0
   81138:	9ac32660 	lsr	x0, x19, x3
   8113c:	12000c00 	and	w0, w0, #0xf
   81140:	1100c005 	add	w5, w0, #0x30
   81144:	1100dc04 	add	w4, w0, #0x37
   81148:	7100241f 	cmp	w0, #0x9
   8114c:	1a85c084 	csel	w4, w4, w5, gt
   81150:	b9400040 	ldr	w0, [x2]
   81154:	372fffe0 	tbnz	w0, #5, 81150 <debug_hex64+0x74>
   81158:	b9000024 	str	w4, [x1]
   8115c:	51001063 	sub	w3, w3, #0x4
   81160:	3100107f 	cmn	w3, #0x4
   81164:	54fffea1 	b.ne	81138 <debug_hex64+0x5c>  // b.any
   81168:	d2800301 	mov	x1, #0x18                  	// #24
   8116c:	f2a12001 	movk	x1, #0x900, lsl #16
   81170:	b9400020 	ldr	w0, [x1]
   81174:	372fffe0 	tbnz	w0, #5, 81170 <debug_hex64+0x94>
   81178:	d2a12000 	mov	x0, #0x9000000             	// #150994944
   8117c:	528001a1 	mov	w1, #0xd                   	// #13
   81180:	b9000001 	str	w1, [x0]
   81184:	d2800301 	mov	x1, #0x18                  	// #24
   81188:	f2a12001 	movk	x1, #0x900, lsl #16
   8118c:	b9400020 	ldr	w0, [x1]
   81190:	372fffe0 	tbnz	w0, #5, 8118c <debug_hex64+0xb0>
   81194:	d2a12000 	mov	x0, #0x9000000             	// #150994944
   81198:	52800141 	mov	w1, #0xa                   	// #10
   8119c:	b9000001 	str	w1, [x0]
   811a0:	f9400bf3 	ldr	x19, [sp, #16]
   811a4:	a8c27bfd 	ldp	x29, x30, [sp], #32
   811a8:	d65f03c0 	ret

00000000000811ac <decode_pte>:
   811ac:	a9be7bfd 	stp	x29, x30, [sp, #-32]!
   811b0:	910003fd 	mov	x29, sp
   811b4:	f9000bf3 	str	x19, [sp, #16]
   811b8:	aa0003f3 	mov	x19, x0
   811bc:	aa0003e1 	mov	x1, x0
   811c0:	90007c00 	adrp	x0, 1001000 <GLOBAL_UART>
   811c4:	91014000 	add	x0, x0, #0x50
   811c8:	97ffffc5 	bl	810dc <debug_hex64>
   811cc:	d2a12000 	mov	x0, #0x9000000             	// #150994944
   811d0:	528008c1 	mov	w1, #0x46                  	// #70
   811d4:	b9000001 	str	w1, [x0]
   811d8:	52800981 	mov	w1, #0x4c                  	// #76
   811dc:	b9000001 	str	w1, [x0]
   811e0:	52800821 	mov	w1, #0x41                  	// #65
   811e4:	b9000001 	str	w1, [x0]
   811e8:	528008e1 	mov	w1, #0x47                  	// #71
   811ec:	b9000001 	str	w1, [x0]
   811f0:	52800a61 	mov	w1, #0x53                  	// #83
   811f4:	b9000001 	str	w1, [x0]
   811f8:	52800741 	mov	w1, #0x3a                  	// #58
   811fc:	b9000001 	str	w1, [x0]
   81200:	52800401 	mov	w1, #0x20                  	// #32
   81204:	b9000001 	str	w1, [x0]
   81208:	36000513 	tbz	w19, #0, 812a8 <decode_pte+0xfc>
   8120c:	52800ac1 	mov	w1, #0x56                  	// #86
   81210:	b9000001 	str	w1, [x0]
   81214:	36080533 	tbz	w19, #1, 812b8 <decode_pte+0x10c>
   81218:	d2a12000 	mov	x0, #0x9000000             	// #150994944
   8121c:	52800a81 	mov	w1, #0x54                  	// #84
   81220:	b9000001 	str	w1, [x0]
   81224:	53061e60 	ubfx	w0, w19, #6, #2
   81228:	35000500 	cbnz	w0, 812c8 <decode_pte+0x11c>
   8122c:	d2a12000 	mov	x0, #0x9000000             	// #150994944
   81230:	52800ae1 	mov	w1, #0x57                  	// #87
   81234:	b9000001 	str	w1, [x0]
   81238:	53082660 	ubfx	w0, w19, #8, #2
   8123c:	35000660 	cbnz	w0, 81308 <decode_pte+0x15c>
   81240:	d2a12000 	mov	x0, #0x9000000             	// #150994944
   81244:	528009c1 	mov	w1, #0x4e                  	// #78
   81248:	b9000001 	str	w1, [x0]
   8124c:	365007f3 	tbz	w19, #10, 81348 <decode_pte+0x19c>
   81250:	d2a12000 	mov	x0, #0x9000000             	// #150994944
   81254:	52800821 	mov	w1, #0x41                  	// #65
   81258:	b9000001 	str	w1, [x0]
   8125c:	b6a807f3 	tbz	x19, #53, 81358 <decode_pte+0x1ac>
   81260:	d2a12000 	mov	x0, #0x9000000             	// #150994944
   81264:	52800a01 	mov	w1, #0x50                  	// #80
   81268:	b9000001 	str	w1, [x0]
   8126c:	b6b007f3 	tbz	x19, #54, 81368 <decode_pte+0x1bc>
   81270:	d2a12000 	mov	x0, #0x9000000             	// #150994944
   81274:	52800aa1 	mov	w1, #0x55                  	// #85
   81278:	b9000001 	str	w1, [x0]
   8127c:	53021273 	ubfx	w19, w19, #2, #3
   81280:	1100c273 	add	w19, w19, #0x30
   81284:	d2a12000 	mov	x0, #0x9000000             	// #150994944
   81288:	b9000013 	str	w19, [x0]
   8128c:	528001a1 	mov	w1, #0xd                   	// #13
   81290:	b9000001 	str	w1, [x0]
   81294:	52800141 	mov	w1, #0xa                   	// #10
   81298:	b9000001 	str	w1, [x0]
   8129c:	f9400bf3 	ldr	x19, [sp, #16]
   812a0:	a8c27bfd 	ldp	x29, x30, [sp], #32
   812a4:	d65f03c0 	ret
   812a8:	d2a12000 	mov	x0, #0x9000000             	// #150994944
   812ac:	52800ec1 	mov	w1, #0x76                  	// #118
   812b0:	b9000001 	str	w1, [x0]
   812b4:	17ffffd8 	b	81214 <decode_pte+0x68>
   812b8:	d2a12000 	mov	x0, #0x9000000             	// #150994944
   812bc:	52800841 	mov	w1, #0x42                  	// #66
   812c0:	b9000001 	str	w1, [x0]
   812c4:	17ffffd8 	b	81224 <decode_pte+0x78>
   812c8:	7100041f 	cmp	w0, #0x1
   812cc:	540000e0 	b.eq	812e8 <decode_pte+0x13c>  // b.none
   812d0:	7100081f 	cmp	w0, #0x2
   812d4:	54000120 	b.eq	812f8 <decode_pte+0x14c>  // b.none
   812d8:	d2a12000 	mov	x0, #0x9000000             	// #150994944
   812dc:	52800e41 	mov	w1, #0x72                  	// #114
   812e0:	b9000001 	str	w1, [x0]
   812e4:	17ffffd5 	b	81238 <decode_pte+0x8c>
   812e8:	d2a12000 	mov	x0, #0x9000000             	// #150994944
   812ec:	52800a41 	mov	w1, #0x52                  	// #82
   812f0:	b9000001 	str	w1, [x0]
   812f4:	17ffffd1 	b	81238 <decode_pte+0x8c>
   812f8:	d2a12000 	mov	x0, #0x9000000             	// #150994944
   812fc:	52800ee1 	mov	w1, #0x77                  	// #119
   81300:	b9000001 	str	w1, [x0]
   81304:	17ffffcd 	b	81238 <decode_pte+0x8c>
   81308:	7100041f 	cmp	w0, #0x1
   8130c:	540000e0 	b.eq	81328 <decode_pte+0x17c>  // b.none
   81310:	7100081f 	cmp	w0, #0x2
   81314:	54000120 	b.eq	81338 <decode_pte+0x18c>  // b.none
   81318:	d2a12000 	mov	x0, #0x9000000             	// #150994944
   8131c:	52800a61 	mov	w1, #0x53                  	// #83
   81320:	b9000001 	str	w1, [x0]
   81324:	17ffffca 	b	8124c <decode_pte+0xa0>
   81328:	d2a12000 	mov	x0, #0x9000000             	// #150994944
   8132c:	528009e1 	mov	w1, #0x4f                  	// #79
   81330:	b9000001 	str	w1, [x0]
   81334:	17ffffc6 	b	8124c <decode_pte+0xa0>
   81338:	d2a12000 	mov	x0, #0x9000000             	// #150994944
   8133c:	52800921 	mov	w1, #0x49                  	// #73
   81340:	b9000001 	str	w1, [x0]
   81344:	17ffffc2 	b	8124c <decode_pte+0xa0>
   81348:	d2a12000 	mov	x0, #0x9000000             	// #150994944
   8134c:	52800c21 	mov	w1, #0x61                  	// #97
   81350:	b9000001 	str	w1, [x0]
   81354:	17ffffc2 	b	8125c <decode_pte+0xb0>
   81358:	d2a12000 	mov	x0, #0x9000000             	// #150994944
   8135c:	52800e01 	mov	w1, #0x70                  	// #112
   81360:	b9000001 	str	w1, [x0]
   81364:	17ffffc2 	b	8126c <decode_pte+0xc0>
   81368:	d2a12000 	mov	x0, #0x9000000             	// #150994944
   8136c:	52800ea1 	mov	w1, #0x75                  	// #117
   81370:	b9000001 	str	w1, [x0]
   81374:	17ffffc2 	b	8127c <decode_pte+0xd0>

0000000000081378 <dump_page_mapping>:
   81378:	a9bc7bfd 	stp	x29, x30, [sp, #-64]!
   8137c:	910003fd 	mov	x29, sp
   81380:	a90153f3 	stp	x19, x20, [sp, #16]
   81384:	a9025bf5 	stp	x21, x22, [sp, #32]
   81388:	f9001bf7 	str	x23, [sp, #48]
   8138c:	aa0003f5 	mov	x21, x0
   81390:	aa0103f3 	mov	x19, x1
   81394:	90007c14 	adrp	x20, 1001000 <GLOBAL_UART>
   81398:	91018294 	add	x20, x20, #0x60
   8139c:	aa1403e0 	mov	x0, x20
   813a0:	97ffff3a 	bl	81088 <debug_print>
   813a4:	aa1503e0 	mov	x0, x21
   813a8:	97ffff38 	bl	81088 <debug_print>
   813ac:	aa1403e0 	mov	x0, x20
   813b0:	97ffff36 	bl	81088 <debug_print>
   813b4:	aa1303e1 	mov	x1, x19
   813b8:	90007c00 	adrp	x0, 1001000 <GLOBAL_UART>
   813bc:	91024000 	add	x0, x0, #0x90
   813c0:	97ffff47 	bl	810dc <debug_hex64>
   813c4:	d34c5276 	ubfx	x22, x19, #12, #9
   813c8:	d3557675 	ubfx	x21, x19, #21, #9
   813cc:	d35e9a74 	ubfx	x20, x19, #30, #9
   813d0:	d367be73 	ubfx	x19, x19, #39, #9
   813d4:	d2a12000 	mov	x0, #0x9000000             	// #150994944
   813d8:	52800981 	mov	w1, #0x4c                  	// #76
   813dc:	b9000001 	str	w1, [x0]
   813e0:	52800601 	mov	w1, #0x30                  	// #48
   813e4:	b9000001 	str	w1, [x0]
   813e8:	52800741 	mov	w1, #0x3a                  	// #58
   813ec:	b9000001 	str	w1, [x0]
   813f0:	52800101 	mov	w1, #0x8                   	// #8
   813f4:	aa0003e2 	mov	x2, x0
   813f8:	9ac12660 	lsr	x0, x19, x1
   813fc:	12000000 	and	w0, w0, #0x1
   81400:	1100c000 	add	w0, w0, #0x30
   81404:	b9000040 	str	w0, [x2]
   81408:	51000421 	sub	w1, w1, #0x1
   8140c:	3100043f 	cmn	w1, #0x1
   81410:	54ffff41 	b.ne	813f8 <dump_page_mapping+0x80>  // b.any
   81414:	d2a12000 	mov	x0, #0x9000000             	// #150994944
   81418:	52800401 	mov	w1, #0x20                  	// #32
   8141c:	b9000001 	str	w1, [x0]
   81420:	52800981 	mov	w1, #0x4c                  	// #76
   81424:	b9000001 	str	w1, [x0]
   81428:	52800621 	mov	w1, #0x31                  	// #49
   8142c:	b9000001 	str	w1, [x0]
   81430:	52800741 	mov	w1, #0x3a                  	// #58
   81434:	b9000001 	str	w1, [x0]
   81438:	52800101 	mov	w1, #0x8                   	// #8
   8143c:	aa0003e2 	mov	x2, x0
   81440:	9ac12680 	lsr	x0, x20, x1
   81444:	12000000 	and	w0, w0, #0x1
   81448:	1100c000 	add	w0, w0, #0x30
   8144c:	b9000040 	str	w0, [x2]
   81450:	51000421 	sub	w1, w1, #0x1
   81454:	3100043f 	cmn	w1, #0x1
   81458:	54ffff41 	b.ne	81440 <dump_page_mapping+0xc8>  // b.any
   8145c:	d2a12000 	mov	x0, #0x9000000             	// #150994944
   81460:	52800401 	mov	w1, #0x20                  	// #32
   81464:	b9000001 	str	w1, [x0]
   81468:	52800981 	mov	w1, #0x4c                  	// #76
   8146c:	b9000001 	str	w1, [x0]
   81470:	52800641 	mov	w1, #0x32                  	// #50
   81474:	b9000001 	str	w1, [x0]
   81478:	52800741 	mov	w1, #0x3a                  	// #58
   8147c:	b9000001 	str	w1, [x0]
   81480:	52800101 	mov	w1, #0x8                   	// #8
   81484:	aa0003e2 	mov	x2, x0
   81488:	9ac126a0 	lsr	x0, x21, x1
   8148c:	12000000 	and	w0, w0, #0x1
   81490:	1100c000 	add	w0, w0, #0x30
   81494:	b9000040 	str	w0, [x2]
   81498:	51000421 	sub	w1, w1, #0x1
   8149c:	3100043f 	cmn	w1, #0x1
   814a0:	54ffff41 	b.ne	81488 <dump_page_mapping+0x110>  // b.any
   814a4:	d2a12000 	mov	x0, #0x9000000             	// #150994944
   814a8:	52800401 	mov	w1, #0x20                  	// #32
   814ac:	b9000001 	str	w1, [x0]
   814b0:	52800981 	mov	w1, #0x4c                  	// #76
   814b4:	b9000001 	str	w1, [x0]
   814b8:	52800661 	mov	w1, #0x33                  	// #51
   814bc:	b9000001 	str	w1, [x0]
   814c0:	52800741 	mov	w1, #0x3a                  	// #58
   814c4:	b9000001 	str	w1, [x0]
   814c8:	52800101 	mov	w1, #0x8                   	// #8
   814cc:	aa0003e2 	mov	x2, x0
   814d0:	9ac126c0 	lsr	x0, x22, x1
   814d4:	12000000 	and	w0, w0, #0x1
   814d8:	1100c000 	add	w0, w0, #0x30
   814dc:	b9000040 	str	w0, [x2]
   814e0:	51000421 	sub	w1, w1, #0x1
   814e4:	3100043f 	cmn	w1, #0x1
   814e8:	54ffff41 	b.ne	814d0 <dump_page_mapping+0x158>  // b.any
   814ec:	d2a12000 	mov	x0, #0x9000000             	// #150994944
   814f0:	528001a1 	mov	w1, #0xd                   	// #13
   814f4:	b9000001 	str	w1, [x0]
   814f8:	52800141 	mov	w1, #0xa                   	// #10
   814fc:	b9000001 	str	w1, [x0]
   81500:	940010a3 	bl	8578c <get_kernel_page_table>
   81504:	aa0003f7 	mov	x23, x0
   81508:	aa0003e1 	mov	x1, x0
   8150c:	90007c00 	adrp	x0, 1001000 <GLOBAL_UART>
   81510:	9102a000 	add	x0, x0, #0xa8
   81514:	97fffef2 	bl	810dc <debug_hex64>
   81518:	b40006b7 	cbz	x23, 815ec <dump_page_mapping+0x274>
   8151c:	f8737af3 	ldr	x19, [x23, x19, lsl #3]
   81520:	aa1303e1 	mov	x1, x19
   81524:	90007c00 	adrp	x0, 1001000 <GLOBAL_UART>
   81528:	91036000 	add	x0, x0, #0xd8
   8152c:	97fffeec 	bl	810dc <debug_hex64>
   81530:	36000673 	tbz	w19, #0, 815fc <dump_page_mapping+0x284>
   81534:	9274ce73 	and	x19, x19, #0xfffffffffffff000
   81538:	aa1303e1 	mov	x1, x19
   8153c:	90007c00 	adrp	x0, 1001000 <GLOBAL_UART>
   81540:	91042000 	add	x0, x0, #0x108
   81544:	97fffee6 	bl	810dc <debug_hex64>
   81548:	f8747a73 	ldr	x19, [x19, x20, lsl #3]
   8154c:	aa1303e1 	mov	x1, x19
   81550:	90007c00 	adrp	x0, 1001000 <GLOBAL_UART>
   81554:	91046000 	add	x0, x0, #0x118
   81558:	97fffee1 	bl	810dc <debug_hex64>
   8155c:	36000613 	tbz	w19, #0, 8161c <dump_page_mapping+0x2a4>
   81560:	9274ce73 	and	x19, x19, #0xfffffffffffff000
   81564:	aa1303e1 	mov	x1, x19
   81568:	90007c00 	adrp	x0, 1001000 <GLOBAL_UART>
   8156c:	91052000 	add	x0, x0, #0x148
   81570:	97fffedb 	bl	810dc <debug_hex64>
   81574:	f8757a73 	ldr	x19, [x19, x21, lsl #3]
   81578:	aa1303e1 	mov	x1, x19
   8157c:	90007c00 	adrp	x0, 1001000 <GLOBAL_UART>
   81580:	91056000 	add	x0, x0, #0x158
   81584:	97fffed6 	bl	810dc <debug_hex64>
   81588:	36000533 	tbz	w19, #0, 8162c <dump_page_mapping+0x2b4>
   8158c:	9274ce73 	and	x19, x19, #0xfffffffffffff000
   81590:	aa1303e1 	mov	x1, x19
   81594:	90007c00 	adrp	x0, 1001000 <GLOBAL_UART>
   81598:	91062000 	add	x0, x0, #0x188
   8159c:	97fffed0 	bl	810dc <debug_hex64>
   815a0:	f8767a73 	ldr	x19, [x19, x22, lsl #3]
   815a4:	aa1303e1 	mov	x1, x19
   815a8:	90007c00 	adrp	x0, 1001000 <GLOBAL_UART>
   815ac:	91066000 	add	x0, x0, #0x198
   815b0:	97fffecb 	bl	810dc <debug_hex64>
   815b4:	36000453 	tbz	w19, #0, 8163c <dump_page_mapping+0x2c4>
   815b8:	90007c00 	adrp	x0, 1001000 <GLOBAL_UART>
   815bc:	91072000 	add	x0, x0, #0x1c8
   815c0:	97fffeb2 	bl	81088 <debug_print>
   815c4:	aa1303e0 	mov	x0, x19
   815c8:	97fffef9 	bl	811ac <decode_pte>
   815cc:	9274ce61 	and	x1, x19, #0xfffffffffffff000
   815d0:	90007c00 	adrp	x0, 1001000 <GLOBAL_UART>
   815d4:	91076000 	add	x0, x0, #0x1d8
   815d8:	97fffec1 	bl	810dc <debug_hex64>
   815dc:	90007c00 	adrp	x0, 1001000 <GLOBAL_UART>
   815e0:	9107c000 	add	x0, x0, #0x1f0
   815e4:	97fffea9 	bl	81088 <debug_print>
   815e8:	14000008 	b	81608 <dump_page_mapping+0x290>
   815ec:	90007c00 	adrp	x0, 1001000 <GLOBAL_UART>
   815f0:	9102e000 	add	x0, x0, #0xb8
   815f4:	97fffea5 	bl	81088 <debug_print>
   815f8:	14000004 	b	81608 <dump_page_mapping+0x290>
   815fc:	90007c00 	adrp	x0, 1001000 <GLOBAL_UART>
   81600:	9103a000 	add	x0, x0, #0xe8
   81604:	97fffea1 	bl	81088 <debug_print>
   81608:	a94153f3 	ldp	x19, x20, [sp, #16]
   8160c:	a9425bf5 	ldp	x21, x22, [sp, #32]
   81610:	f9401bf7 	ldr	x23, [sp, #48]
   81614:	a8c47bfd 	ldp	x29, x30, [sp], #64
   81618:	d65f03c0 	ret
   8161c:	90007c00 	adrp	x0, 1001000 <GLOBAL_UART>
   81620:	9104a000 	add	x0, x0, #0x128
   81624:	97fffe99 	bl	81088 <debug_print>
   81628:	17fffff8 	b	81608 <dump_page_mapping+0x290>
   8162c:	90007c00 	adrp	x0, 1001000 <GLOBAL_UART>
   81630:	9105a000 	add	x0, x0, #0x168
   81634:	97fffe95 	bl	81088 <debug_print>
   81638:	17fffff4 	b	81608 <dump_page_mapping+0x290>
   8163c:	90007c00 	adrp	x0, 1001000 <GLOBAL_UART>
   81640:	9106a000 	add	x0, x0, #0x1a8
   81644:	97fffe91 	bl	81088 <debug_print>
   81648:	17fffff0 	b	81608 <dump_page_mapping+0x290>

000000000008164c <task_b>:
   8164c:	d10043ff 	sub	sp, sp, #0x10
   81650:	d2a12000 	mov	x0, #0x9000000             	// #150994944
   81654:	52800841 	mov	w1, #0x42                  	// #66
   81658:	b9000001 	str	w1, [x0]
   8165c:	52800be1 	mov	w1, #0x5f                  	// #95
   81660:	b9000001 	str	w1, [x0]
   81664:	52800a61 	mov	w1, #0x53                  	// #83
   81668:	b9000001 	str	w1, [x0]
   8166c:	52800a81 	mov	w1, #0x54                  	// #84
   81670:	b9000001 	str	w1, [x0]
   81674:	52800822 	mov	w2, #0x41                  	// #65
   81678:	b9000002 	str	w2, [x0]
   8167c:	52800a42 	mov	w2, #0x52                  	// #82
   81680:	b9000002 	str	w2, [x0]
   81684:	b9000001 	str	w1, [x0]
   81688:	528001a1 	mov	w1, #0xd                   	// #13
   8168c:	b9000001 	str	w1, [x0]
   81690:	52800141 	mov	w1, #0xa                   	// #10
   81694:	b9000001 	str	w1, [x0]
   81698:	aa0003e3 	mov	x3, x0
   8169c:	52800842 	mov	w2, #0x42                  	// #66
   816a0:	5290d3e1 	mov	w1, #0x869f                	// #34463
   816a4:	72a00021 	movk	w1, #0x1, lsl #16
   816a8:	b9000062 	str	w2, [x3]
   816ac:	b9000fff 	str	wzr, [sp, #12]
   816b0:	b9400fe0 	ldr	w0, [sp, #12]
   816b4:	6b01001f 	cmp	w0, w1
   816b8:	54ffff8c 	b.gt	816a8 <task_b+0x5c>
   816bc:	b9400fe0 	ldr	w0, [sp, #12]
   816c0:	11000400 	add	w0, w0, #0x1
   816c4:	b9000fe0 	str	w0, [sp, #12]
   816c8:	b9400fe0 	ldr	w0, [sp, #12]
   816cc:	6b01001f 	cmp	w0, w1
   816d0:	54ffff6d 	b.le	816bc <task_b+0x70>
   816d4:	17fffff5 	b	816a8 <task_b+0x5c>

00000000000816d8 <verify_vbar_el1>:
   816d8:	a9bd7bfd 	stp	x29, x30, [sp, #-48]!
   816dc:	910003fd 	mov	x29, sp
   816e0:	a90153f3 	stp	x19, x20, [sp, #16]
   816e4:	f90013f5 	str	x21, [sp, #32]
   816e8:	d2a12000 	mov	x0, #0x9000000             	// #150994944
   816ec:	52800ac1 	mov	w1, #0x56                  	// #86
   816f0:	b9000001 	str	w1, [x0]
   816f4:	52800841 	mov	w1, #0x42                  	// #66
   816f8:	b9000001 	str	w1, [x0]
   816fc:	52800821 	mov	w1, #0x41                  	// #65
   81700:	b9000001 	str	w1, [x0]
   81704:	52800a41 	mov	w1, #0x52                  	// #82
   81708:	b9000001 	str	w1, [x0]
   8170c:	52800be1 	mov	w1, #0x5f                  	// #95
   81710:	b9000001 	str	w1, [x0]
   81714:	52800861 	mov	w1, #0x43                  	// #67
   81718:	b9000001 	str	w1, [x0]
   8171c:	52800901 	mov	w1, #0x48                  	// #72
   81720:	b9000001 	str	w1, [x0]
   81724:	52800961 	mov	w1, #0x4b                  	// #75
   81728:	b9000001 	str	w1, [x0]
   8172c:	528001a1 	mov	w1, #0xd                   	// #13
   81730:	b9000001 	str	w1, [x0]
   81734:	52800141 	mov	w1, #0xa                   	// #10
   81738:	b9000001 	str	w1, [x0]
   8173c:	d538c015 	mrs	x21, vbar_el1
   81740:	f0007bf3 	adrp	x19, 1000000 <vector_table>
   81744:	91000273 	add	x19, x19, #0x0
   81748:	90007c00 	adrp	x0, 1001000 <GLOBAL_UART>
   8174c:	91088000 	add	x0, x0, #0x220
   81750:	97fffe4e 	bl	81088 <debug_print>
   81754:	90007c00 	adrp	x0, 1001000 <GLOBAL_UART>
   81758:	91090000 	add	x0, x0, #0x240
   8175c:	97fffe4b 	bl	81088 <debug_print>
   81760:	90007c34 	adrp	x20, 1005000 <hex_chars.0+0x3ff8>
   81764:	91034294 	add	x20, x20, #0xd0
   81768:	aa1303e1 	mov	x1, x19
   8176c:	aa1403e0 	mov	x0, x20
   81770:	97fffe5b 	bl	810dc <debug_hex64>
   81774:	90007c00 	adrp	x0, 1001000 <GLOBAL_UART>
   81778:	91096000 	add	x0, x0, #0x258
   8177c:	97fffe43 	bl	81088 <debug_print>
   81780:	aa1503e1 	mov	x1, x21
   81784:	aa1403e0 	mov	x0, x20
   81788:	97fffe55 	bl	810dc <debug_hex64>
   8178c:	eb1302bf 	cmp	x21, x19
   81790:	54000100 	b.eq	817b0 <verify_vbar_el1+0xd8>  // b.none
   81794:	90007c00 	adrp	x0, 1001000 <GLOBAL_UART>
   81798:	910c4000 	add	x0, x0, #0x310
   8179c:	97fffe3b 	bl	81088 <debug_print>
   817a0:	a94153f3 	ldp	x19, x20, [sp, #16]
   817a4:	f94013f5 	ldr	x21, [sp, #32]
   817a8:	a8c37bfd 	ldp	x29, x30, [sp], #48
   817ac:	d65f03c0 	ret
   817b0:	90007c00 	adrp	x0, 1001000 <GLOBAL_UART>
   817b4:	9109a000 	add	x0, x0, #0x268
   817b8:	97fffe34 	bl	81088 <debug_print>
   817bc:	92402a73 	and	x19, x19, #0x7ff
   817c0:	b50001f3 	cbnz	x19, 817fc <verify_vbar_el1+0x124>
   817c4:	90007c00 	adrp	x0, 1001000 <GLOBAL_UART>
   817c8:	910a4000 	add	x0, x0, #0x290
   817cc:	97fffe2f 	bl	81088 <debug_print>
   817d0:	f0007be0 	adrp	x0, 1000000 <vector_table>
   817d4:	91000000 	add	x0, x0, #0x0
   817d8:	b9400013 	ldr	w19, [x0]
   817dc:	90007c00 	adrp	x0, 1001000 <GLOBAL_UART>
   817e0:	910ba000 	add	x0, x0, #0x2e8
   817e4:	97fffe29 	bl	81088 <debug_print>
   817e8:	2a1303e1 	mov	w1, w19
   817ec:	90007c20 	adrp	x0, 1005000 <hex_chars.0+0x3ff8>
   817f0:	91034000 	add	x0, x0, #0xd0
   817f4:	97fffe3a 	bl	810dc <debug_hex64>
   817f8:	17ffffea 	b	817a0 <verify_vbar_el1+0xc8>
   817fc:	90007c00 	adrp	x0, 1001000 <GLOBAL_UART>
   81800:	910ae000 	add	x0, x0, #0x2b8
   81804:	97fffe21 	bl	81088 <debug_print>
   81808:	17fffff2 	b	817d0 <verify_vbar_el1+0xf8>

000000000008180c <verify_and_fix_vector_table>:
   8180c:	a9be7bfd 	stp	x29, x30, [sp, #-32]!
   81810:	910003fd 	mov	x29, sp
   81814:	f9000bf3 	str	x19, [sp, #16]
   81818:	f0007bf3 	adrp	x19, 1000000 <vector_table>
   8181c:	91000273 	add	x19, x19, #0x0
   81820:	d2a12000 	mov	x0, #0x9000000             	// #150994944
   81824:	52800ac1 	mov	w1, #0x56                  	// #86
   81828:	b9000001 	str	w1, [x0]
   8182c:	52800a81 	mov	w1, #0x54                  	// #84
   81830:	b9000001 	str	w1, [x0]
   81834:	528007a1 	mov	w1, #0x3d                  	// #61
   81838:	b9000001 	str	w1, [x0]
   8183c:	52800401 	mov	w1, #0x20                  	// #32
   81840:	b9000001 	str	w1, [x0]
   81844:	d360fe60 	lsr	x0, x19, #32
   81848:	2a1303e5 	mov	w5, w19
   8184c:	b40001c0 	cbz	x0, 81884 <verify_and_fix_vector_table+0x78>
   81850:	2a0003e4 	mov	w4, w0
   81854:	52800381 	mov	w1, #0x1c                  	// #28
   81858:	d2a12006 	mov	x6, #0x9000000             	// #150994944
   8185c:	1ac12480 	lsr	w0, w4, w1
   81860:	12000c00 	and	w0, w0, #0xf
   81864:	1100c003 	add	w3, w0, #0x30
   81868:	1100dc02 	add	w2, w0, #0x37
   8186c:	7100241f 	cmp	w0, #0x9
   81870:	1a838040 	csel	w0, w2, w3, hi	// hi = pmore
   81874:	b90000c0 	str	w0, [x6]
   81878:	51001021 	sub	w1, w1, #0x4
   8187c:	3100103f 	cmn	w1, #0x4
   81880:	54fffee1 	b.ne	8185c <verify_and_fix_vector_table+0x50>  // b.any
   81884:	52800381 	mov	w1, #0x1c                  	// #28
   81888:	d2a12004 	mov	x4, #0x9000000             	// #150994944
   8188c:	1ac124a0 	lsr	w0, w5, w1
   81890:	12000c00 	and	w0, w0, #0xf
   81894:	1100c003 	add	w3, w0, #0x30
   81898:	1100dc02 	add	w2, w0, #0x37
   8189c:	7100241f 	cmp	w0, #0x9
   818a0:	1a838040 	csel	w0, w2, w3, hi	// hi = pmore
   818a4:	b9000080 	str	w0, [x4]
   818a8:	51001021 	sub	w1, w1, #0x4
   818ac:	3100103f 	cmn	w1, #0x4
   818b0:	54fffee1 	b.ne	8188c <verify_and_fix_vector_table+0x80>  // b.any
   818b4:	d2a12000 	mov	x0, #0x9000000             	// #150994944
   818b8:	528001a1 	mov	w1, #0xd                   	// #13
   818bc:	b9000001 	str	w1, [x0]
   818c0:	52800141 	mov	w1, #0xa                   	// #10
   818c4:	b9000001 	str	w1, [x0]
   818c8:	92402a60 	and	x0, x19, #0x7ff
   818cc:	b4000280 	cbz	x0, 8191c <verify_and_fix_vector_table+0x110>
   818d0:	d2a12000 	mov	x0, #0x9000000             	// #150994944
   818d4:	52800ac1 	mov	w1, #0x56                  	// #86
   818d8:	b9000001 	str	w1, [x0]
   818dc:	52800a81 	mov	w1, #0x54                  	// #84
   818e0:	b9000001 	str	w1, [x0]
   818e4:	52800be1 	mov	w1, #0x5f                  	// #95
   818e8:	b9000001 	str	w1, [x0]
   818ec:	52800821 	mov	w1, #0x41                  	// #65
   818f0:	b9000001 	str	w1, [x0]
   818f4:	52800981 	mov	w1, #0x4c                  	// #76
   818f8:	b9000001 	str	w1, [x0]
   818fc:	528009c1 	mov	w1, #0x4e                  	// #78
   81900:	b9000001 	str	w1, [x0]
   81904:	52800421 	mov	w1, #0x21                  	// #33
   81908:	b9000001 	str	w1, [x0]
   8190c:	528001a1 	mov	w1, #0xd                   	// #13
   81910:	b9000001 	str	w1, [x0]
   81914:	52800141 	mov	w1, #0xa                   	// #10
   81918:	b9000001 	str	w1, [x0]
   8191c:	f0007be0 	adrp	x0, 1000000 <vector_table>
   81920:	91000000 	add	x0, x0, #0x0
   81924:	b9400005 	ldr	w5, [x0]
   81928:	d2a12000 	mov	x0, #0x9000000             	// #150994944
   8192c:	52800ac1 	mov	w1, #0x56                  	// #86
   81930:	b9000001 	str	w1, [x0]
   81934:	52800a81 	mov	w1, #0x54                  	// #84
   81938:	b9000001 	str	w1, [x0]
   8193c:	52800b61 	mov	w1, #0x5b                  	// #91
   81940:	b9000001 	str	w1, [x0]
   81944:	52800601 	mov	w1, #0x30                  	// #48
   81948:	b9000001 	str	w1, [x0]
   8194c:	52800ba1 	mov	w1, #0x5d                  	// #93
   81950:	b9000001 	str	w1, [x0]
   81954:	528007a1 	mov	w1, #0x3d                  	// #61
   81958:	b9000001 	str	w1, [x0]
   8195c:	52800401 	mov	w1, #0x20                  	// #32
   81960:	b9000001 	str	w1, [x0]
   81964:	52800381 	mov	w1, #0x1c                  	// #28
   81968:	aa0003e4 	mov	x4, x0
   8196c:	1ac124a0 	lsr	w0, w5, w1
   81970:	12000c00 	and	w0, w0, #0xf
   81974:	1100c003 	add	w3, w0, #0x30
   81978:	1100dc02 	add	w2, w0, #0x37
   8197c:	7100241f 	cmp	w0, #0x9
   81980:	1a838040 	csel	w0, w2, w3, hi	// hi = pmore
   81984:	b9000080 	str	w0, [x4]
   81988:	51001021 	sub	w1, w1, #0x4
   8198c:	3100103f 	cmn	w1, #0x4
   81990:	54fffee1 	b.ne	8196c <verify_and_fix_vector_table+0x160>  // b.any
   81994:	d2a12000 	mov	x0, #0x9000000             	// #150994944
   81998:	528001a1 	mov	w1, #0xd                   	// #13
   8199c:	b9000001 	str	w1, [x0]
   819a0:	52800141 	mov	w1, #0xa                   	// #10
   819a4:	b9000001 	str	w1, [x0]
   819a8:	b9420265 	ldr	w5, [x19, #512]
   819ac:	52800a61 	mov	w1, #0x53                  	// #83
   819b0:	b9000001 	str	w1, [x0]
   819b4:	52800b21 	mov	w1, #0x59                  	// #89
   819b8:	b9000001 	str	w1, [x0]
   819bc:	528009c1 	mov	w1, #0x4e                  	// #78
   819c0:	b9000001 	str	w1, [x0]
   819c4:	52800861 	mov	w1, #0x43                  	// #67
   819c8:	b9000001 	str	w1, [x0]
   819cc:	528007a1 	mov	w1, #0x3d                  	// #61
   819d0:	b9000001 	str	w1, [x0]
   819d4:	52800401 	mov	w1, #0x20                  	// #32
   819d8:	b9000001 	str	w1, [x0]
   819dc:	52800381 	mov	w1, #0x1c                  	// #28
   819e0:	aa0003e4 	mov	x4, x0
   819e4:	1ac124a0 	lsr	w0, w5, w1
   819e8:	12000c00 	and	w0, w0, #0xf
   819ec:	1100c003 	add	w3, w0, #0x30
   819f0:	1100dc02 	add	w2, w0, #0x37
   819f4:	7100241f 	cmp	w0, #0x9
   819f8:	1a838040 	csel	w0, w2, w3, hi	// hi = pmore
   819fc:	b9000080 	str	w0, [x4]
   81a00:	51001021 	sub	w1, w1, #0x4
   81a04:	3100103f 	cmn	w1, #0x4
   81a08:	54fffee1 	b.ne	819e4 <verify_and_fix_vector_table+0x1d8>  // b.any
   81a0c:	d2a12000 	mov	x0, #0x9000000             	// #150994944
   81a10:	528001a1 	mov	w1, #0xd                   	// #13
   81a14:	b9000001 	str	w1, [x0]
   81a18:	52800141 	mov	w1, #0xa                   	// #10
   81a1c:	b9000001 	str	w1, [x0]
   81a20:	94000f5b 	bl	8578c <get_kernel_page_table>
   81a24:	b4000160 	cbz	x0, 81a50 <verify_and_fix_vector_table+0x244>
   81a28:	aa1303e1 	mov	x1, x19
   81a2c:	94000d05 	bl	84e40 <get_l3_table_for_addr>
   81a30:	b40002c0 	cbz	x0, 81a88 <verify_and_fix_vector_table+0x27c>
   81a34:	940012d6 	bl	8658c <ensure_vector_table_executable_l3>
   81a38:	90007c00 	adrp	x0, 1001000 <GLOBAL_UART>
   81a3c:	910ce000 	add	x0, x0, #0x338
   81a40:	97fffd92 	bl	81088 <debug_print>
   81a44:	f9400bf3 	ldr	x19, [sp, #16]
   81a48:	a8c27bfd 	ldp	x29, x30, [sp], #32
   81a4c:	d65f03c0 	ret
   81a50:	d2a12000 	mov	x0, #0x9000000             	// #150994944
   81a54:	528009c1 	mov	w1, #0x4e                  	// #78
   81a58:	b9000001 	str	w1, [x0]
   81a5c:	528009e1 	mov	w1, #0x4f                  	// #79
   81a60:	b9000001 	str	w1, [x0]
   81a64:	52800a01 	mov	w1, #0x50                  	// #80
   81a68:	b9000001 	str	w1, [x0]
   81a6c:	52800a81 	mov	w1, #0x54                  	// #84
   81a70:	b9000001 	str	w1, [x0]
   81a74:	528001a1 	mov	w1, #0xd                   	// #13
   81a78:	b9000001 	str	w1, [x0]
   81a7c:	52800141 	mov	w1, #0xa                   	// #10
   81a80:	b9000001 	str	w1, [x0]
   81a84:	17fffff0 	b	81a44 <verify_and_fix_vector_table+0x238>
   81a88:	90007c00 	adrp	x0, 1001000 <GLOBAL_UART>
   81a8c:	910d8000 	add	x0, x0, #0x360
   81a90:	97fffd7e 	bl	81088 <debug_print>
   81a94:	14000000 	b	81a94 <verify_and_fix_vector_table+0x288>

0000000000081a98 <write_uart>:
   81a98:	12001c00 	and	w0, w0, #0xff
   81a9c:	d2a12001 	mov	x1, #0x9000000             	// #150994944
   81aa0:	b9000020 	str	w0, [x1]
   81aa4:	d65f03c0 	ret

0000000000081aa8 <write_string>:
   81aa8:	a9be7bfd 	stp	x29, x30, [sp, #-32]!
   81aac:	910003fd 	mov	x29, sp
   81ab0:	f9000bf3 	str	x19, [sp, #16]
   81ab4:	aa0003f3 	mov	x19, x0
   81ab8:	39400000 	ldrb	w0, [x0]
   81abc:	34000080 	cbz	w0, 81acc <write_string+0x24>
   81ac0:	97fffff6 	bl	81a98 <write_uart>
   81ac4:	38401e60 	ldrb	w0, [x19, #1]!
   81ac8:	35ffffc0 	cbnz	w0, 81ac0 <write_string+0x18>
   81acc:	f9400bf3 	ldr	x19, [sp, #16]
   81ad0:	a8c27bfd 	ldp	x29, x30, [sp], #32
   81ad4:	d65f03c0 	ret

0000000000081ad8 <init_exceptions_minimal>:
   81ad8:	d2a12000 	mov	x0, #0x9000000             	// #150994944
   81adc:	528009a1 	mov	w1, #0x4d                  	// #77
   81ae0:	b9000001 	str	w1, [x0]
   81ae4:	528008a1 	mov	w1, #0x45                  	// #69
   81ae8:	b9000001 	str	w1, [x0]
   81aec:	52800b01 	mov	w1, #0x58                  	// #88
   81af0:	b9000001 	str	w1, [x0]
   81af4:	52800861 	mov	w1, #0x43                  	// #67
   81af8:	b9000001 	str	w1, [x0]
   81afc:	52800741 	mov	w1, #0x3a                  	// #58
   81b00:	b9000001 	str	w1, [x0]
   81b04:	f0007be0 	adrp	x0, 1000000 <vector_table>
   81b08:	91000000 	add	x0, x0, #0x0
   81b0c:	92402801 	and	x1, x0, #0x7ff
   81b10:	b4000161 	cbz	x1, 81b3c <init_exceptions_minimal+0x64>
   81b14:	d2a12000 	mov	x0, #0x9000000             	// #150994944
   81b18:	52800821 	mov	w1, #0x41                  	// #65
   81b1c:	b9000001 	str	w1, [x0]
   81b20:	52800981 	mov	w1, #0x4c                  	// #76
   81b24:	b9000001 	str	w1, [x0]
   81b28:	528009c1 	mov	w1, #0x4e                  	// #78
   81b2c:	b9000001 	str	w1, [x0]
   81b30:	52800421 	mov	w1, #0x21                  	// #33
   81b34:	b9000001 	str	w1, [x0]
   81b38:	14000000 	b	81b38 <init_exceptions_minimal+0x60>
   81b3c:	d518c000 	msr	vbar_el1, x0
   81b40:	d5033fdf 	isb
   81b44:	d538c001 	mrs	x1, vbar_el1
   81b48:	eb01001f 	cmp	x0, x1
   81b4c:	54000160 	b.eq	81b78 <init_exceptions_minimal+0xa0>  // b.none
   81b50:	d2a12000 	mov	x0, #0x9000000             	// #150994944
   81b54:	52800ac1 	mov	w1, #0x56                  	// #86
   81b58:	b9000001 	str	w1, [x0]
   81b5c:	52800841 	mov	w1, #0x42                  	// #66
   81b60:	b9000001 	str	w1, [x0]
   81b64:	52800a41 	mov	w1, #0x52                  	// #82
   81b68:	b9000001 	str	w1, [x0]
   81b6c:	52800421 	mov	w1, #0x21                  	// #33
   81b70:	b9000001 	str	w1, [x0]
   81b74:	14000000 	b	81b74 <init_exceptions_minimal+0x9c>
   81b78:	d2a12000 	mov	x0, #0x9000000             	// #150994944
   81b7c:	528009e1 	mov	w1, #0x4f                  	// #79
   81b80:	b9000001 	str	w1, [x0]
   81b84:	52800961 	mov	w1, #0x4b                  	// #75
   81b88:	b9000001 	str	w1, [x0]
   81b8c:	528001a1 	mov	w1, #0xd                   	// #13
   81b90:	b9000001 	str	w1, [x0]
   81b94:	52800141 	mov	w1, #0xa                   	// #10
   81b98:	b9000001 	str	w1, [x0]
   81b9c:	d65f03c0 	ret

0000000000081ba0 <init_scheduler>:
   81ba0:	d2a12000 	mov	x0, #0x9000000             	// #150994944
   81ba4:	52800921 	mov	w1, #0x49                  	// #73
   81ba8:	b9000001 	str	w1, [x0]
   81bac:	528009c2 	mov	w2, #0x4e                  	// #78
   81bb0:	b9000002 	str	w2, [x0]
   81bb4:	b9000001 	str	w1, [x0]
   81bb8:	52800a81 	mov	w1, #0x54                  	// #84
   81bbc:	b9000001 	str	w1, [x0]
   81bc0:	52800be1 	mov	w1, #0x5f                  	// #95
   81bc4:	b9000001 	str	w1, [x0]
   81bc8:	52800a61 	mov	w1, #0x53                  	// #83
   81bcc:	b9000001 	str	w1, [x0]
   81bd0:	52800861 	mov	w1, #0x43                  	// #67
   81bd4:	b9000001 	str	w1, [x0]
   81bd8:	52800901 	mov	w1, #0x48                  	// #72
   81bdc:	b9000001 	str	w1, [x0]
   81be0:	528001a1 	mov	w1, #0xd                   	// #13
   81be4:	b9000001 	str	w1, [x0]
   81be8:	52800141 	mov	w1, #0xa                   	// #10
   81bec:	b9000001 	str	w1, [x0]
   81bf0:	d65f03c0 	ret

0000000000081bf4 <start_scheduler>:
   81bf4:	a9a27bfd 	stp	x29, x30, [sp, #-480]!
   81bf8:	910003fd 	mov	x29, sp
   81bfc:	a90153f3 	stp	x19, x20, [sp, #16]
   81c00:	d2a12000 	mov	x0, #0x9000000             	// #150994944
   81c04:	52800a61 	mov	w1, #0x53                  	// #83
   81c08:	b9000001 	str	w1, [x0]
   81c0c:	52800a82 	mov	w2, #0x54                  	// #84
   81c10:	b9000002 	str	w2, [x0]
   81c14:	52800823 	mov	w3, #0x41                  	// #65
   81c18:	b9000003 	str	w3, [x0]
   81c1c:	52800a43 	mov	w3, #0x52                  	// #82
   81c20:	b9000003 	str	w3, [x0]
   81c24:	b9000002 	str	w2, [x0]
   81c28:	52800be2 	mov	w2, #0x5f                  	// #95
   81c2c:	b9000002 	str	w2, [x0]
   81c30:	b9000001 	str	w1, [x0]
   81c34:	52800861 	mov	w1, #0x43                  	// #67
   81c38:	b9000001 	str	w1, [x0]
   81c3c:	52800901 	mov	w1, #0x48                  	// #72
   81c40:	b9000001 	str	w1, [x0]
   81c44:	528001a1 	mov	w1, #0xd                   	// #13
   81c48:	b9000001 	str	w1, [x0]
   81c4c:	52800141 	mov	w1, #0xa                   	// #10
   81c50:	b9000001 	str	w1, [x0]
   81c54:	d538c013 	mrs	x19, vbar_el1
   81c58:	90007c00 	adrp	x0, 1001000 <GLOBAL_UART>
   81c5c:	910e6000 	add	x0, x0, #0x398
   81c60:	940005cf 	bl	8339c <uart_puts>
   81c64:	aa1303e0 	mov	x0, x19
   81c68:	940005d8 	bl	833c8 <uart_hex64>
   81c6c:	90007c00 	adrp	x0, 1001000 <GLOBAL_UART>
   81c70:	91228000 	add	x0, x0, #0x8a0
   81c74:	940005ca 	bl	8339c <uart_puts>
   81c78:	f0007be0 	adrp	x0, 1000000 <vector_table>
   81c7c:	91000000 	add	x0, x0, #0x0
   81c80:	eb00027f 	cmp	x19, x0
   81c84:	540008a1 	b.ne	81d98 <start_scheduler+0x1a4>  // b.any
   81c88:	9102a3e0 	add	x0, sp, #0xa8
   81c8c:	910783e1 	add	x1, sp, #0x1e0
   81c90:	f800841f 	str	xzr, [x0], #8
   81c94:	eb01001f 	cmp	x0, x1
   81c98:	54ffffc1 	b.ne	81c90 <start_scheduler+0x9c>  // b.any
   81c9c:	d2a00120 	mov	x0, #0x90000               	// #589824
   81ca0:	f90057e0 	str	x0, [sp, #168]
   81ca4:	90000000 	adrp	x0, 81000 <task_a>
   81ca8:	91000000 	add	x0, x0, #0x0
   81cac:	f900d7e0 	str	x0, [sp, #424]
   81cb0:	d28068a0 	mov	x0, #0x345                 	// #837
   81cb4:	f900dbe0 	str	x0, [sp, #432]
   81cb8:	90007c00 	adrp	x0, 1001000 <GLOBAL_UART>
   81cbc:	91102000 	add	x0, x0, #0x408
   81cc0:	940005b7 	bl	8339c <uart_puts>
   81cc4:	94001c73 	bl	88e90 <dummy_task_a>
   81cc8:	90007c00 	adrp	x0, 1001000 <GLOBAL_UART>
   81ccc:	91110000 	add	x0, x0, #0x440
   81cd0:	940005b3 	bl	8339c <uart_puts>
   81cd4:	90007c00 	adrp	x0, 1001000 <GLOBAL_UART>
   81cd8:	9111c000 	add	x0, x0, #0x470
   81cdc:	940005b0 	bl	8339c <uart_puts>
   81ce0:	940017e0 	bl	87c60 <dummy_asm>
   81ce4:	90007c00 	adrp	x0, 1001000 <GLOBAL_UART>
   81ce8:	91124000 	add	x0, x0, #0x490
   81cec:	940005ac 	bl	8339c <uart_puts>
   81cf0:	90007c00 	adrp	x0, 1001000 <GLOBAL_UART>
   81cf4:	9112e000 	add	x0, x0, #0x4b8
   81cf8:	940005a9 	bl	8339c <uart_puts>
   81cfc:	940017f7 	bl	87cd8 <known_branch_test>
   81d00:	90007c00 	adrp	x0, 1001000 <GLOBAL_UART>
   81d04:	91138000 	add	x0, x0, #0x4e0
   81d08:	940005a5 	bl	8339c <uart_puts>
   81d0c:	90007c00 	adrp	x0, 1001000 <GLOBAL_UART>
   81d10:	91144000 	add	x0, x0, #0x510
   81d14:	940005a2 	bl	8339c <uart_puts>
   81d18:	90007c00 	adrp	x0, 1001000 <GLOBAL_UART>
   81d1c:	91150000 	add	x0, x0, #0x540
   81d20:	9400059f 	bl	8339c <uart_puts>
   81d24:	d0000033 	adrp	x19, 87000 <enable_mmu_enhanced+0x190>
   81d28:	91318273 	add	x19, x19, #0xc60
   81d2c:	9100a3f4 	add	x20, sp, #0x28
   81d30:	aa1303e3 	mov	x3, x19
   81d34:	90007c02 	adrp	x2, 1001000 <GLOBAL_UART>
   81d38:	9115c042 	add	x2, x2, #0x570
   81d3c:	d2801001 	mov	x1, #0x80                  	// #128
   81d40:	aa1403e0 	mov	x0, x20
   81d44:	94001ae1 	bl	888c8 <snprintf>
   81d48:	aa1403e0 	mov	x0, x20
   81d4c:	94000594 	bl	8339c <uart_puts>
   81d50:	90007c01 	adrp	x1, 1001000 <GLOBAL_UART>
   81d54:	91164021 	add	x1, x1, #0x590
   81d58:	aa1303e0 	mov	x0, x19
   81d5c:	94000a24 	bl	845ec <debug_check_mapping>
   81d60:	52800840 	mov	w0, #0x42                  	// #66
   81d64:	94000584 	bl	83374 <uart_putc>
   81d68:	940017c2 	bl	87c70 <test_context_switch>
   81d6c:	90007c00 	adrp	x0, 1001000 <GLOBAL_UART>
   81d70:	91168000 	add	x0, x0, #0x5a0
   81d74:	9400058a 	bl	8339c <uart_puts>
   81d78:	9102a3e0 	add	x0, sp, #0xa8
   81d7c:	94001707 	bl	87998 <full_restore_context>
   81d80:	d2a12000 	mov	x0, #0x9000000             	// #150994944
   81d84:	52800421 	mov	w1, #0x21                  	// #33
   81d88:	b9000001 	str	w1, [x0]
   81d8c:	a94153f3 	ldp	x19, x20, [sp, #16]
   81d90:	a8de7bfd 	ldp	x29, x30, [sp], #480
   81d94:	d65f03c0 	ret
   81d98:	90007c00 	adrp	x0, 1001000 <GLOBAL_UART>
   81d9c:	910f0000 	add	x0, x0, #0x3c0
   81da0:	9400057f 	bl	8339c <uart_puts>
   81da4:	f0007be0 	adrp	x0, 1000000 <vector_table>
   81da8:	91000000 	add	x0, x0, #0x0
   81dac:	d518c000 	msr	vbar_el1, x0
   81db0:	d5033fdf 	isb
   81db4:	17ffffb5 	b	81c88 <start_scheduler+0x94>

0000000000081db8 <panic>:
   81db8:	d2a12001 	mov	x1, #0x9000000             	// #150994944
   81dbc:	52800a02 	mov	w2, #0x50                  	// #80
   81dc0:	b9000022 	str	w2, [x1]
   81dc4:	52800822 	mov	w2, #0x41                  	// #65
   81dc8:	b9000022 	str	w2, [x1]
   81dcc:	528009c2 	mov	w2, #0x4e                  	// #78
   81dd0:	b9000022 	str	w2, [x1]
   81dd4:	52800922 	mov	w2, #0x49                  	// #73
   81dd8:	b9000022 	str	w2, [x1]
   81ddc:	52800862 	mov	w2, #0x43                  	// #67
   81de0:	b9000022 	str	w2, [x1]
   81de4:	52800742 	mov	w2, #0x3a                  	// #58
   81de8:	b9000022 	str	w2, [x1]
   81dec:	52800402 	mov	w2, #0x20                  	// #32
   81df0:	b9000022 	str	w2, [x1]
   81df4:	b40000e0 	cbz	x0, 81e10 <panic+0x58>
   81df8:	39400001 	ldrb	w1, [x0]
   81dfc:	340000a1 	cbz	w1, 81e10 <panic+0x58>
   81e00:	d2a12002 	mov	x2, #0x9000000             	// #150994944
   81e04:	b9000041 	str	w1, [x2]
   81e08:	38401c01 	ldrb	w1, [x0, #1]!
   81e0c:	35ffffc1 	cbnz	w1, 81e04 <panic+0x4c>
   81e10:	d2a12000 	mov	x0, #0x9000000             	// #150994944
   81e14:	528001a1 	mov	w1, #0xd                   	// #13
   81e18:	b9000001 	str	w1, [x0]
   81e1c:	52800141 	mov	w1, #0xa                   	// #10
   81e20:	b9000001 	str	w1, [x0]
   81e24:	14000000 	b	81e24 <panic+0x6c>

0000000000081e28 <test_exception_delivery>:
   81e28:	a9bb7bfd 	stp	x29, x30, [sp, #-80]!
   81e2c:	910003fd 	mov	x29, sp
   81e30:	a90153f3 	stp	x19, x20, [sp, #16]
   81e34:	a9025bf5 	stp	x21, x22, [sp, #32]
   81e38:	f9001bf7 	str	x23, [sp, #48]
   81e3c:	90007c00 	adrp	x0, 1001000 <GLOBAL_UART>
   81e40:	9117c000 	add	x0, x0, #0x5f0
   81e44:	97fffc91 	bl	81088 <debug_print>
   81e48:	d5384256 	mrs	x22, currentel
   81e4c:	d53b4235 	mrs	x21, daif
   81e50:	d538c014 	mrs	x20, vbar_el1
   81e54:	d5381013 	mrs	x19, sctlr_el1
   81e58:	90007c00 	adrp	x0, 1001000 <GLOBAL_UART>
   81e5c:	91188000 	add	x0, x0, #0x620
   81e60:	97fffc8a 	bl	81088 <debug_print>
   81e64:	aa1603e0 	mov	x0, x22
   81e68:	9400058e 	bl	834a0 <uart_print_hex>
   81e6c:	90007c00 	adrp	x0, 1001000 <GLOBAL_UART>
   81e70:	9118e000 	add	x0, x0, #0x638
   81e74:	97fffc85 	bl	81088 <debug_print>
   81e78:	aa1503e0 	mov	x0, x21
   81e7c:	94000589 	bl	834a0 <uart_print_hex>
   81e80:	90007c00 	adrp	x0, 1001000 <GLOBAL_UART>
   81e84:	91194000 	add	x0, x0, #0x650
   81e88:	97fffc80 	bl	81088 <debug_print>
   81e8c:	aa1403e0 	mov	x0, x20
   81e90:	94000584 	bl	834a0 <uart_print_hex>
   81e94:	90007c00 	adrp	x0, 1001000 <GLOBAL_UART>
   81e98:	9119a000 	add	x0, x0, #0x668
   81e9c:	97fffc7b 	bl	81088 <debug_print>
   81ea0:	aa1303e0 	mov	x0, x19
   81ea4:	9400057f 	bl	834a0 <uart_print_hex>
   81ea8:	90007c00 	adrp	x0, 1001000 <GLOBAL_UART>
   81eac:	91228000 	add	x0, x0, #0x8a0
   81eb0:	97fffc76 	bl	81088 <debug_print>
   81eb4:	90007c00 	adrp	x0, 1001000 <GLOBAL_UART>
   81eb8:	911a0000 	add	x0, x0, #0x680
   81ebc:	97fffc73 	bl	81088 <debug_print>
   81ec0:	72000273 	ands	w19, w19, #0x1
   81ec4:	90007c01 	adrp	x1, 1001000 <GLOBAL_UART>
   81ec8:	91174021 	add	x1, x1, #0x5d0
   81ecc:	90007c00 	adrp	x0, 1001000 <GLOBAL_UART>
   81ed0:	91178000 	add	x0, x0, #0x5e0
   81ed4:	9a810000 	csel	x0, x0, x1, eq	// eq = none
   81ed8:	97fffc6c 	bl	81088 <debug_print>
   81edc:	90007c00 	adrp	x0, 1001000 <GLOBAL_UART>
   81ee0:	911a2000 	add	x0, x0, #0x688
   81ee4:	97fffc69 	bl	81088 <debug_print>
   81ee8:	d4000001 	svc	#0x0
   81eec:	90007c00 	adrp	x0, 1001000 <GLOBAL_UART>
   81ef0:	911ac000 	add	x0, x0, #0x6b0
   81ef4:	97fffc65 	bl	81088 <debug_print>
   81ef8:	90007c00 	adrp	x0, 1001000 <GLOBAL_UART>
   81efc:	911b4000 	add	x0, x0, #0x6d0
   81f00:	97fffc62 	bl	81088 <debug_print>
   81f04:	94001820 	bl	87f84 <force_timer_interrupt>
   81f08:	90007c00 	adrp	x0, 1001000 <GLOBAL_UART>
   81f0c:	911c0000 	add	x0, x0, #0x700
   81f10:	97fffc5e 	bl	81088 <debug_print>
   81f14:	d53b4233 	mrs	x19, daif
   81f18:	90007c00 	adrp	x0, 1001000 <GLOBAL_UART>
   81f1c:	911cc000 	add	x0, x0, #0x730
   81f20:	97fffc5a 	bl	81088 <debug_print>
   81f24:	36380313 	tbz	w19, #7, 81f84 <test_exception_delivery+0x15c>
   81f28:	90007c00 	adrp	x0, 1001000 <GLOBAL_UART>
   81f2c:	91178000 	add	x0, x0, #0x5e0
   81f30:	97fffc56 	bl	81088 <debug_print>
   81f34:	90007c00 	adrp	x0, 1001000 <GLOBAL_UART>
   81f38:	9122a000 	add	x0, x0, #0x8a8
   81f3c:	97fffc53 	bl	81088 <debug_print>
   81f40:	94001936 	bl	88418 <enable_irq>
   81f44:	d53b4233 	mrs	x19, daif
   81f48:	90007c00 	adrp	x0, 1001000 <GLOBAL_UART>
   81f4c:	91232000 	add	x0, x0, #0x8c8
   81f50:	97fffc4e 	bl	81088 <debug_print>
   81f54:	f2790273 	ands	x19, x19, #0x80
   81f58:	90007c01 	adrp	x1, 1001000 <GLOBAL_UART>
   81f5c:	91174021 	add	x1, x1, #0x5d0
   81f60:	90007c00 	adrp	x0, 1001000 <GLOBAL_UART>
   81f64:	91178000 	add	x0, x0, #0x5e0
   81f68:	9a811000 	csel	x0, x0, x1, ne	// ne = any
   81f6c:	97fffc47 	bl	81088 <debug_print>
   81f70:	14000008 	b	81f90 <test_exception_delivery+0x168>
   81f74:	90007c00 	adrp	x0, 1001000 <GLOBAL_UART>
   81f78:	91202000 	add	x0, x0, #0x808
   81f7c:	97fffc43 	bl	81088 <debug_print>
   81f80:	1400001a 	b	81fe8 <test_exception_delivery+0x1c0>
   81f84:	90007c00 	adrp	x0, 1001000 <GLOBAL_UART>
   81f88:	91174000 	add	x0, x0, #0x5d0
   81f8c:	97fffc3f 	bl	81088 <debug_print>
   81f90:	90007c00 	adrp	x0, 1001000 <GLOBAL_UART>
   81f94:	911d6000 	add	x0, x0, #0x758
   81f98:	97fffc3c 	bl	81088 <debug_print>
   81f9c:	9400181c 	bl	8800c <test_irq_handler>
   81fa0:	90007c00 	adrp	x0, 1001000 <GLOBAL_UART>
   81fa4:	911e2000 	add	x0, x0, #0x788
   81fa8:	97fffc38 	bl	81088 <debug_print>
   81fac:	90007c00 	adrp	x0, 1001000 <GLOBAL_UART>
   81fb0:	911ec000 	add	x0, x0, #0x7b0
   81fb4:	97fffc35 	bl	81088 <debug_print>
   81fb8:	f0007bf3 	adrp	x19, 1000000 <vector_table>
   81fbc:	91000273 	add	x19, x19, #0x0
   81fc0:	90007c00 	adrp	x0, 1001000 <GLOBAL_UART>
   81fc4:	911fa000 	add	x0, x0, #0x7e8
   81fc8:	97fffc30 	bl	81088 <debug_print>
   81fcc:	aa1303e0 	mov	x0, x19
   81fd0:	94000534 	bl	834a0 <uart_print_hex>
   81fd4:	90007c00 	adrp	x0, 1001000 <GLOBAL_UART>
   81fd8:	91228000 	add	x0, x0, #0x8a0
   81fdc:	97fffc2b 	bl	81088 <debug_print>
   81fe0:	eb13029f 	cmp	x20, x19
   81fe4:	54fffc81 	b.ne	81f74 <test_exception_delivery+0x14c>  // b.any
   81fe8:	90007c00 	adrp	x0, 1001000 <GLOBAL_UART>
   81fec:	91210000 	add	x0, x0, #0x840
   81ff0:	97fffc26 	bl	81088 <debug_print>
   81ff4:	aa1403e0 	mov	x0, x20
   81ff8:	9400052a 	bl	834a0 <uart_print_hex>
   81ffc:	90007c00 	adrp	x0, 1001000 <GLOBAL_UART>
   82000:	91218000 	add	x0, x0, #0x860
   82004:	97fffc21 	bl	81088 <debug_print>
   82008:	d2800013 	mov	x19, #0x0                   	// #0
   8200c:	f0007bf7 	adrp	x23, 1001000 <GLOBAL_UART>
   82010:	9121a2f7 	add	x23, x23, #0x868
   82014:	f0007bf6 	adrp	x22, 1001000 <GLOBAL_UART>
   82018:	9121c2d6 	add	x22, x22, #0x870
   8201c:	f0007bf5 	adrp	x21, 1001000 <GLOBAL_UART>
   82020:	912282b5 	add	x21, x21, #0x8a0
   82024:	aa1703e0 	mov	x0, x23
   82028:	97fffc18 	bl	81088 <debug_print>
   8202c:	aa1303e0 	mov	x0, x19
   82030:	9400051c 	bl	834a0 <uart_print_hex>
   82034:	aa1603e0 	mov	x0, x22
   82038:	97fffc14 	bl	81088 <debug_print>
   8203c:	b8746a60 	ldr	w0, [x19, x20]
   82040:	b9004fe0 	str	w0, [sp, #76]
   82044:	b9404fe0 	ldr	w0, [sp, #76]
   82048:	2a0003e0 	mov	w0, w0
   8204c:	94000515 	bl	834a0 <uart_print_hex>
   82050:	aa1503e0 	mov	x0, x21
   82054:	97fffc0d 	bl	81088 <debug_print>
   82058:	91001273 	add	x19, x19, #0x4
   8205c:	f100827f 	cmp	x19, #0x20
   82060:	54fffe21 	b.ne	82024 <test_exception_delivery+0x1fc>  // b.any
   82064:	f0007be0 	adrp	x0, 1001000 <GLOBAL_UART>
   82068:	9121e000 	add	x0, x0, #0x878
   8206c:	97fffc07 	bl	81088 <debug_print>
   82070:	a94153f3 	ldp	x19, x20, [sp, #16]
   82074:	a9425bf5 	ldp	x21, x22, [sp, #32]
   82078:	f9401bf7 	ldr	x23, [sp, #48]
   8207c:	a8c57bfd 	ldp	x29, x30, [sp], #80
   82080:	d65f03c0 	ret

0000000000082084 <test_uart_direct>:
   82084:	d2a12000 	mov	x0, #0x9000000             	// #150994944
   82088:	52800a81 	mov	w1, #0x54                  	// #84
   8208c:	b9000001 	str	w1, [x0]
   82090:	52800aa1 	mov	w1, #0x55                  	// #85
   82094:	b9000001 	str	w1, [x0]
   82098:	52800881 	mov	w1, #0x44                  	// #68
   8209c:	b9000001 	str	w1, [x0]
   820a0:	52800421 	mov	w1, #0x21                  	// #33
   820a4:	b9000001 	str	w1, [x0]
   820a8:	d65f03c0 	ret

00000000000820ac <test_scheduler_minimal>:
   820ac:	d2a12000 	mov	x0, #0x9000000             	// #150994944
   820b0:	528009a1 	mov	w1, #0x4d                  	// #77
   820b4:	b9000001 	str	w1, [x0]
   820b8:	52800a61 	mov	w1, #0x53                  	// #83
   820bc:	b9000001 	str	w1, [x0]
   820c0:	52800a81 	mov	w1, #0x54                  	// #84
   820c4:	b9000001 	str	w1, [x0]
   820c8:	d65f03c0 	ret

00000000000820cc <test_scheduler>:
   820cc:	d2a12000 	mov	x0, #0x9000000             	// #150994944
   820d0:	52800a61 	mov	w1, #0x53                  	// #83
   820d4:	b9000001 	str	w1, [x0]
   820d8:	52800861 	mov	w1, #0x43                  	// #67
   820dc:	b9000001 	str	w1, [x0]
   820e0:	52800901 	mov	w1, #0x48                  	// #72
   820e4:	b9000001 	str	w1, [x0]
   820e8:	52800881 	mov	w1, #0x44                  	// #68
   820ec:	b9000001 	str	w1, [x0]
   820f0:	52800742 	mov	w2, #0x3a                  	// #58
   820f4:	b9000002 	str	w2, [x0]
   820f8:	b9000001 	str	w1, [x0]
   820fc:	528009e1 	mov	w1, #0x4f                  	// #79
   82100:	b9000001 	str	w1, [x0]
   82104:	528009c1 	mov	w1, #0x4e                  	// #78
   82108:	b9000001 	str	w1, [x0]
   8210c:	528008a1 	mov	w1, #0x45                  	// #69
   82110:	b9000001 	str	w1, [x0]
   82114:	52800421 	mov	w1, #0x21                  	// #33
   82118:	b9000001 	str	w1, [x0]
   8211c:	528001a1 	mov	w1, #0xd                   	// #13
   82120:	b9000001 	str	w1, [x0]
   82124:	52800141 	mov	w1, #0xa                   	// #10
   82128:	b9000001 	str	w1, [x0]
   8212c:	d65f03c0 	ret

0000000000082130 <ensure_vbar_el1>:
   82130:	a9be7bfd 	stp	x29, x30, [sp, #-32]!
   82134:	910003fd 	mov	x29, sp
   82138:	a90153f3 	stp	x19, x20, [sp, #16]
   8213c:	d0007bf3 	adrp	x19, 1000000 <vector_table>
   82140:	91000273 	add	x19, x19, #0x0
   82144:	d538c014 	mrs	x20, vbar_el1
   82148:	f0007be0 	adrp	x0, 1001000 <GLOBAL_UART>
   8214c:	91236000 	add	x0, x0, #0x8d8
   82150:	94000493 	bl	8339c <uart_puts>
   82154:	f0007be0 	adrp	x0, 1001000 <GLOBAL_UART>
   82158:	9123e000 	add	x0, x0, #0x8f8
   8215c:	94000490 	bl	8339c <uart_puts>
   82160:	aa1403e0 	mov	x0, x20
   82164:	94000499 	bl	833c8 <uart_hex64>
   82168:	f0007be0 	adrp	x0, 1001000 <GLOBAL_UART>
   8216c:	91244000 	add	x0, x0, #0x910
   82170:	9400048b 	bl	8339c <uart_puts>
   82174:	aa1303e0 	mov	x0, x19
   82178:	94000494 	bl	833c8 <uart_hex64>
   8217c:	f0007be0 	adrp	x0, 1001000 <GLOBAL_UART>
   82180:	91228000 	add	x0, x0, #0x8a0
   82184:	94000486 	bl	8339c <uart_puts>
   82188:	eb14027f 	cmp	x19, x20
   8218c:	54000240 	b.eq	821d4 <ensure_vbar_el1+0xa4>  // b.none
   82190:	f0007be0 	adrp	x0, 1001000 <GLOBAL_UART>
   82194:	9124a000 	add	x0, x0, #0x928
   82198:	94000481 	bl	8339c <uart_puts>
   8219c:	d518c013 	msr	vbar_el1, x19
   821a0:	d5033fdf 	isb
   821a4:	d538c013 	mrs	x19, vbar_el1
   821a8:	f0007be0 	adrp	x0, 1001000 <GLOBAL_UART>
   821ac:	91258000 	add	x0, x0, #0x960
   821b0:	9400047b 	bl	8339c <uart_puts>
   821b4:	aa1303e0 	mov	x0, x19
   821b8:	94000484 	bl	833c8 <uart_hex64>
   821bc:	f0007be0 	adrp	x0, 1001000 <GLOBAL_UART>
   821c0:	91228000 	add	x0, x0, #0x8a0
   821c4:	94000476 	bl	8339c <uart_puts>
   821c8:	a94153f3 	ldp	x19, x20, [sp, #16]
   821cc:	a8c27bfd 	ldp	x29, x30, [sp], #32
   821d0:	d65f03c0 	ret
   821d4:	f0007be0 	adrp	x0, 1001000 <GLOBAL_UART>
   821d8:	9125e000 	add	x0, x0, #0x978
   821dc:	94000470 	bl	8339c <uart_puts>
   821e0:	17fffffa 	b	821c8 <ensure_vbar_el1+0x98>

00000000000821e4 <init_traps>:
   821e4:	a9bd7bfd 	stp	x29, x30, [sp, #-48]!
   821e8:	910003fd 	mov	x29, sp
   821ec:	a90153f3 	stp	x19, x20, [sp, #16]
   821f0:	f90013f5 	str	x21, [sp, #32]
   821f4:	d2a12000 	mov	x0, #0x9000000             	// #150994944
   821f8:	52800921 	mov	w1, #0x49                  	// #73
   821fc:	b9000001 	str	w1, [x0]
   82200:	52800a81 	mov	w1, #0x54                  	// #84
   82204:	b9000001 	str	w1, [x0]
   82208:	52800a41 	mov	w1, #0x52                  	// #82
   8220c:	b9000001 	str	w1, [x0]
   82210:	52800a01 	mov	w1, #0x50                  	// #80
   82214:	b9000001 	str	w1, [x0]
   82218:	52800741 	mov	w1, #0x3a                  	// #58
   8221c:	b9000001 	str	w1, [x0]
   82220:	b0007c20 	adrp	x0, 1007000 <mmu_msg>
   82224:	f9414813 	ldr	x19, [x0, #656]
   82228:	f100027f 	cmp	x19, #0x0
   8222c:	d2a02000 	mov	x0, #0x1000000             	// #16777216
   82230:	9a801273 	csel	x19, x19, x0, ne	// ne = any
   82234:	f0007be0 	adrp	x0, 1001000 <GLOBAL_UART>
   82238:	91268000 	add	x0, x0, #0x9a0
   8223c:	94000458 	bl	8339c <uart_puts>
   82240:	aa1303e0 	mov	x0, x19
   82244:	94000461 	bl	833c8 <uart_hex64>
   82248:	f0007bf4 	adrp	x20, 1001000 <GLOBAL_UART>
   8224c:	91228294 	add	x20, x20, #0x8a0
   82250:	aa1403e0 	mov	x0, x20
   82254:	94000452 	bl	8339c <uart_puts>
   82258:	d518c013 	msr	vbar_el1, x19
   8225c:	d5033fdf 	isb
   82260:	d538c015 	mrs	x21, vbar_el1
   82264:	f0007be0 	adrp	x0, 1001000 <GLOBAL_UART>
   82268:	91272000 	add	x0, x0, #0x9c8
   8226c:	9400044c 	bl	8339c <uart_puts>
   82270:	aa1503e0 	mov	x0, x21
   82274:	94000455 	bl	833c8 <uart_hex64>
   82278:	aa1403e0 	mov	x0, x20
   8227c:	94000448 	bl	8339c <uart_puts>
   82280:	d2a02000 	mov	x0, #0x1000000             	// #16777216
   82284:	eb0002bf 	cmp	x21, x0
   82288:	54000360 	b.eq	822f4 <init_traps+0x110>  // b.none
   8228c:	f0007be0 	adrp	x0, 1001000 <GLOBAL_UART>
   82290:	9127e000 	add	x0, x0, #0x9f8
   82294:	94000442 	bl	8339c <uart_puts>
   82298:	aa1503e0 	mov	x0, x21
   8229c:	9400044b 	bl	833c8 <uart_hex64>
   822a0:	f0007bf4 	adrp	x20, 1001000 <GLOBAL_UART>
   822a4:	91228294 	add	x20, x20, #0x8a0
   822a8:	aa1403e0 	mov	x0, x20
   822ac:	9400043c 	bl	8339c <uart_puts>
   822b0:	f0007be0 	adrp	x0, 1001000 <GLOBAL_UART>
   822b4:	9128e000 	add	x0, x0, #0xa38
   822b8:	94000439 	bl	8339c <uart_puts>
   822bc:	d518c013 	msr	vbar_el1, x19
   822c0:	d5033fdf 	isb
   822c4:	d538c013 	mrs	x19, vbar_el1
   822c8:	f0007be0 	adrp	x0, 1001000 <GLOBAL_UART>
   822cc:	9129c000 	add	x0, x0, #0xa70
   822d0:	94000433 	bl	8339c <uart_puts>
   822d4:	aa1303e0 	mov	x0, x19
   822d8:	9400043c 	bl	833c8 <uart_hex64>
   822dc:	aa1403e0 	mov	x0, x20
   822e0:	9400042f 	bl	8339c <uart_puts>
   822e4:	a94153f3 	ldp	x19, x20, [sp, #16]
   822e8:	f94013f5 	ldr	x21, [sp, #32]
   822ec:	a8c37bfd 	ldp	x29, x30, [sp], #48
   822f0:	d65f03c0 	ret
   822f4:	f0007be0 	adrp	x0, 1001000 <GLOBAL_UART>
   822f8:	912a4000 	add	x0, x0, #0xa90
   822fc:	94000428 	bl	8339c <uart_puts>
   82300:	17fffff9 	b	822e4 <init_traps+0x100>

0000000000082304 <copy_vector_table_to_ram_if_needed>:
   82304:	a9be7bfd 	stp	x29, x30, [sp, #-32]!
   82308:	910003fd 	mov	x29, sp
   8230c:	f9000bf3 	str	x19, [sp, #16]
   82310:	f0007be0 	adrp	x0, 1001000 <GLOBAL_UART>
   82314:	912b2000 	add	x0, x0, #0xac8
   82318:	94000421 	bl	8339c <uart_puts>
   8231c:	d0000053 	adrp	x19, 8c000 <_vector_table_load_start>
   82320:	91000273 	add	x19, x19, #0x0
   82324:	aa1303e0 	mov	x0, x19
   82328:	94000428 	bl	833c8 <uart_hex64>
   8232c:	f0007be0 	adrp	x0, 1001000 <GLOBAL_UART>
   82330:	912be000 	add	x0, x0, #0xaf8
   82334:	9400041a 	bl	8339c <uart_puts>
   82338:	d2920000 	mov	x0, #0x9000                	// #36864
   8233c:	f2a00100 	movk	x0, #0x8, lsl #16
   82340:	94000422 	bl	833c8 <uart_hex64>
   82344:	f0007be0 	adrp	x0, 1001000 <GLOBAL_UART>
   82348:	91228000 	add	x0, x0, #0x8a0
   8234c:	94000414 	bl	8339c <uart_puts>
   82350:	f142267f 	cmp	x19, #0x89, lsl #12
   82354:	54000740 	b.eq	8243c <copy_vector_table_to_ram_if_needed+0x138>  // b.none
   82358:	d2920000 	mov	x0, #0x9000                	// #36864
   8235c:	f2a00100 	movk	x0, #0x8, lsl #16
   82360:	b9400000 	ldr	w0, [x0]
   82364:	12061400 	and	w0, w0, #0xfc000000
   82368:	52a28001 	mov	w1, #0x14000000            	// #335544320
   8236c:	6b01001f 	cmp	w0, w1
   82370:	54000760 	b.eq	8245c <copy_vector_table_to_ram_if_needed+0x158>  // b.none
   82374:	f0007be0 	adrp	x0, 1001000 <GLOBAL_UART>
   82378:	912d4000 	add	x0, x0, #0xb50
   8237c:	94000408 	bl	8339c <uart_puts>
   82380:	d2920000 	mov	x0, #0x9000                	// #36864
   82384:	f2a00100 	movk	x0, #0x8, lsl #16
   82388:	d0000042 	adrp	x2, 8c000 <_vector_table_load_start>
   8238c:	91000042 	add	x2, x2, #0x0
   82390:	d2930003 	mov	x3, #0x9800                	// #38912
   82394:	f2a00103 	movk	x3, #0x8, lsl #16
   82398:	8b020001 	add	x1, x0, x2
   8239c:	d1422421 	sub	x1, x1, #0x89, lsl #12
   823a0:	39400021 	ldrb	w1, [x1]
   823a4:	38001401 	strb	w1, [x0], #1
   823a8:	eb03001f 	cmp	x0, x3
   823ac:	54ffff61 	b.ne	82398 <copy_vector_table_to_ram_if_needed+0x94>  // b.any
   823b0:	f0007be0 	adrp	x0, 1001000 <GLOBAL_UART>
   823b4:	912ea000 	add	x0, x0, #0xba8
   823b8:	940003f9 	bl	8339c <uart_puts>
   823bc:	d2920000 	mov	x0, #0x9000                	// #36864
   823c0:	f2a00100 	movk	x0, #0x8, lsl #16
   823c4:	b9400013 	ldr	w19, [x0]
   823c8:	f0007be0 	adrp	x0, 1001000 <GLOBAL_UART>
   823cc:	912f4000 	add	x0, x0, #0xbd0
   823d0:	940003f3 	bl	8339c <uart_puts>
   823d4:	2a1303e0 	mov	w0, w19
   823d8:	940003fc 	bl	833c8 <uart_hex64>
   823dc:	f0007be0 	adrp	x0, 1001000 <GLOBAL_UART>
   823e0:	91228000 	add	x0, x0, #0x8a0
   823e4:	940003ee 	bl	8339c <uart_puts>
   823e8:	12061673 	and	w19, w19, #0xfc000000
   823ec:	52a28000 	mov	w0, #0x14000000            	// #335544320
   823f0:	6b00027f 	cmp	w19, w0
   823f4:	540002c0 	b.eq	8244c <copy_vector_table_to_ram_if_needed+0x148>  // b.none
   823f8:	f0007be0 	adrp	x0, 1001000 <GLOBAL_UART>
   823fc:	9130e000 	add	x0, x0, #0xc38
   82400:	940003e7 	bl	8339c <uart_puts>
   82404:	f0007be0 	adrp	x0, 1001000 <GLOBAL_UART>
   82408:	91330000 	add	x0, x0, #0xcc0
   8240c:	940003e4 	bl	8339c <uart_puts>
   82410:	d2920000 	mov	x0, #0x9000                	// #36864
   82414:	f2a00100 	movk	x0, #0x8, lsl #16
   82418:	d50b7b20 	dc	cvau, x0
   8241c:	d5033b9f 	dsb	ish
   82420:	d5033fdf 	isb
   82424:	f0007be0 	adrp	x0, 1001000 <GLOBAL_UART>
   82428:	9133a000 	add	x0, x0, #0xce8
   8242c:	940003dc 	bl	8339c <uart_puts>
   82430:	f9400bf3 	ldr	x19, [sp, #16]
   82434:	a8c27bfd 	ldp	x29, x30, [sp], #32
   82438:	d65f03c0 	ret
   8243c:	f0007be0 	adrp	x0, 1001000 <GLOBAL_UART>
   82440:	912c0000 	add	x0, x0, #0xb00
   82444:	940003d6 	bl	8339c <uart_puts>
   82448:	17fffffa 	b	82430 <copy_vector_table_to_ram_if_needed+0x12c>
   8244c:	f0007be0 	adrp	x0, 1001000 <GLOBAL_UART>
   82450:	912fe000 	add	x0, x0, #0xbf8
   82454:	940003d2 	bl	8339c <uart_puts>
   82458:	17ffffeb 	b	82404 <copy_vector_table_to_ram_if_needed+0x100>
   8245c:	f0007be0 	adrp	x0, 1001000 <GLOBAL_UART>
   82460:	91320000 	add	x0, x0, #0xc80
   82464:	940003ce 	bl	8339c <uart_puts>
   82468:	17ffffe7 	b	82404 <copy_vector_table_to_ram_if_needed+0x100>

000000000008246c <dump_memory>:
   8246c:	a9bd7bfd 	stp	x29, x30, [sp, #-48]!
   82470:	910003fd 	mov	x29, sp
   82474:	a90153f3 	stp	x19, x20, [sp, #16]
   82478:	f90013f5 	str	x21, [sp, #32]
   8247c:	aa0103f5 	mov	x21, x1
   82480:	2a0203f4 	mov	w20, w2
   82484:	940003c6 	bl	8339c <uart_puts>
   82488:	90007c00 	adrp	x0, 1002000 <hex_chars.0+0xff8>
   8248c:	91392000 	add	x0, x0, #0xe48
   82490:	940003c3 	bl	8339c <uart_puts>
   82494:	7100029f 	cmp	w20, #0x0
   82498:	5400016d 	b.le	824c4 <dump_memory+0x58>
   8249c:	aa1503f3 	mov	x19, x21
   824a0:	8b34c2b4 	add	x20, x21, w20, sxtw
   824a4:	b0007c15 	adrp	x21, 1003000 <hex_chars.0+0x1ff8>
   824a8:	9103c2b5 	add	x21, x21, #0xf0
   824ac:	38401660 	ldrb	w0, [x19], #1
   824b0:	940003c6 	bl	833c8 <uart_hex64>
   824b4:	aa1503e0 	mov	x0, x21
   824b8:	940003b9 	bl	8339c <uart_puts>
   824bc:	eb14027f 	cmp	x19, x20
   824c0:	54ffff61 	b.ne	824ac <dump_memory+0x40>  // b.any
   824c4:	f0007be0 	adrp	x0, 1001000 <GLOBAL_UART>
   824c8:	91228000 	add	x0, x0, #0x8a0
   824cc:	940003b4 	bl	8339c <uart_puts>
   824d0:	a94153f3 	ldp	x19, x20, [sp, #16]
   824d4:	f94013f5 	ldr	x21, [sp, #32]
   824d8:	a8c37bfd 	ldp	x29, x30, [sp], #48
   824dc:	d65f03c0 	ret

00000000000824e0 <verify_physical_vector_table>:
   824e0:	a9bd7bfd 	stp	x29, x30, [sp, #-48]!
   824e4:	910003fd 	mov	x29, sp
   824e8:	a90153f3 	stp	x19, x20, [sp, #16]
   824ec:	a9025bf5 	stp	x21, x22, [sp, #32]
   824f0:	f0007be0 	adrp	x0, 1001000 <GLOBAL_UART>
   824f4:	91346000 	add	x0, x0, #0xd18
   824f8:	940003a9 	bl	8339c <uart_puts>
   824fc:	f0007be0 	adrp	x0, 1001000 <GLOBAL_UART>
   82500:	91350000 	add	x0, x0, #0xd40
   82504:	940003a6 	bl	8339c <uart_puts>
   82508:	d2800013 	mov	x19, #0x0                   	// #0
   8250c:	d0007c14 	adrp	x20, 1004000 <hex_chars.0+0x2ff8>
   82510:	9126e294 	add	x20, x20, #0x9b8
   82514:	b0007c15 	adrp	x21, 1003000 <hex_chars.0+0x1ff8>
   82518:	9103c2b5 	add	x21, x21, #0xf0
   8251c:	f0007bf6 	adrp	x22, 1001000 <GLOBAL_UART>
   82520:	1400000d 	b	82554 <verify_physical_vector_table+0x74>
   82524:	7100027f 	cmp	w19, #0x0
   82528:	540005ed 	b.le	825e4 <verify_physical_vector_table+0x104>
   8252c:	aa1503e0 	mov	x0, x21
   82530:	9400039b 	bl	8339c <uart_puts>
   82534:	aa1403e0 	mov	x0, x20
   82538:	94000399 	bl	8339c <uart_puts>
   8253c:	91422660 	add	x0, x19, #0x89, lsl #12
   82540:	39400000 	ldrb	w0, [x0]
   82544:	940003a1 	bl	833c8 <uart_hex64>
   82548:	91000673 	add	x19, x19, #0x1
   8254c:	f100827f 	cmp	x19, #0x20
   82550:	54000100 	b.eq	82570 <verify_physical_vector_table+0x90>  // b.none
   82554:	12000a60 	and	w0, w19, #0x7
   82558:	35fffe60 	cbnz	w0, 82524 <verify_physical_vector_table+0x44>
   8255c:	7100027f 	cmp	w19, #0x0
   82560:	5400042d 	b.le	825e4 <verify_physical_vector_table+0x104>
   82564:	913522c0 	add	x0, x22, #0xd48
   82568:	9400038d 	bl	8339c <uart_puts>
   8256c:	17fffff2 	b	82534 <verify_physical_vector_table+0x54>
   82570:	f0007bf4 	adrp	x20, 1001000 <GLOBAL_UART>
   82574:	91228294 	add	x20, x20, #0x8a0
   82578:	aa1403e0 	mov	x0, x20
   8257c:	94000388 	bl	8339c <uart_puts>
   82580:	d2920000 	mov	x0, #0x9000                	// #36864
   82584:	f2a00100 	movk	x0, #0x8, lsl #16
   82588:	b9400013 	ldr	w19, [x0]
   8258c:	f0007be0 	adrp	x0, 1001000 <GLOBAL_UART>
   82590:	91356000 	add	x0, x0, #0xd58
   82594:	94000382 	bl	8339c <uart_puts>
   82598:	2a1303e0 	mov	w0, w19
   8259c:	9400038b 	bl	833c8 <uart_hex64>
   825a0:	aa1403e0 	mov	x0, x20
   825a4:	9400037e 	bl	8339c <uart_puts>
   825a8:	12061673 	and	w19, w19, #0xfc000000
   825ac:	52a28000 	mov	w0, #0x14000000            	// #335544320
   825b0:	6b00027f 	cmp	w19, w0
   825b4:	54000100 	b.eq	825d4 <verify_physical_vector_table+0xf4>  // b.none
   825b8:	f0007be0 	adrp	x0, 1001000 <GLOBAL_UART>
   825bc:	9136c000 	add	x0, x0, #0xdb0
   825c0:	94000377 	bl	8339c <uart_puts>
   825c4:	a94153f3 	ldp	x19, x20, [sp, #16]
   825c8:	a9425bf5 	ldp	x21, x22, [sp, #32]
   825cc:	a8c37bfd 	ldp	x29, x30, [sp], #48
   825d0:	d65f03c0 	ret
   825d4:	f0007be0 	adrp	x0, 1001000 <GLOBAL_UART>
   825d8:	9135a000 	add	x0, x0, #0xd68
   825dc:	94000370 	bl	8339c <uart_puts>
   825e0:	17fffff9 	b	825c4 <verify_physical_vector_table+0xe4>
   825e4:	aa1403e0 	mov	x0, x20
   825e8:	9400036d 	bl	8339c <uart_puts>
   825ec:	91422660 	add	x0, x19, #0x89, lsl #12
   825f0:	39400000 	ldrb	w0, [x0]
   825f4:	94000375 	bl	833c8 <uart_hex64>
   825f8:	91000673 	add	x19, x19, #0x1
   825fc:	17ffffd6 	b	82554 <verify_physical_vector_table+0x74>

0000000000082600 <write_vbar_el1>:
   82600:	a9be7bfd 	stp	x29, x30, [sp, #-32]!
   82604:	910003fd 	mov	x29, sp
   82608:	a90153f3 	stp	x19, x20, [sp, #16]
   8260c:	aa0003f3 	mov	x19, x0
   82610:	f0007be0 	adrp	x0, 1001000 <GLOBAL_UART>
   82614:	9137e000 	add	x0, x0, #0xdf8
   82618:	94000361 	bl	8339c <uart_puts>
   8261c:	aa1303e0 	mov	x0, x19
   82620:	9400036a 	bl	833c8 <uart_hex64>
   82624:	f0007be0 	adrp	x0, 1001000 <GLOBAL_UART>
   82628:	91228000 	add	x0, x0, #0x8a0
   8262c:	9400035c 	bl	8339c <uart_puts>
   82630:	aa1303e0 	mov	x0, x19
   82634:	943df953 	bl	1000b80 <set_vbar_el1>
   82638:	d538c014 	mrs	x20, vbar_el1
   8263c:	eb14027f 	cmp	x19, x20
   82640:	54000180 	b.eq	82670 <write_vbar_el1+0x70>  // b.none
   82644:	f0007be0 	adrp	x0, 1001000 <GLOBAL_UART>
   82648:	91390000 	add	x0, x0, #0xe40
   8264c:	94000354 	bl	8339c <uart_puts>
   82650:	aa1403e0 	mov	x0, x20
   82654:	9400035d 	bl	833c8 <uart_hex64>
   82658:	f0007be0 	adrp	x0, 1001000 <GLOBAL_UART>
   8265c:	91228000 	add	x0, x0, #0x8a0
   82660:	9400034f 	bl	8339c <uart_puts>
   82664:	a94153f3 	ldp	x19, x20, [sp, #16]
   82668:	a8c27bfd 	ldp	x29, x30, [sp], #32
   8266c:	d65f03c0 	ret
   82670:	f0007be0 	adrp	x0, 1001000 <GLOBAL_UART>
   82674:	91386000 	add	x0, x0, #0xe18
   82678:	94000349 	bl	8339c <uart_puts>
   8267c:	17fffffa 	b	82664 <write_vbar_el1+0x64>

0000000000082680 <validate_vector_table_at_0x89000>:
   82680:	a9bf7bfd 	stp	x29, x30, [sp, #-16]!
   82684:	910003fd 	mov	x29, sp
   82688:	d2920000 	mov	x0, #0x9000                	// #36864
   8268c:	f2a00100 	movk	x0, #0x8, lsl #16
   82690:	b9400000 	ldr	w0, [x0]
   82694:	12061400 	and	w0, w0, #0xfc000000
   82698:	52a28001 	mov	w1, #0x14000000            	// #335544320
   8269c:	6b01001f 	cmp	w0, w1
   826a0:	54000220 	b.eq	826e4 <validate_vector_table_at_0x89000+0x64>  // b.none
   826a4:	f0007be0 	adrp	x0, 1001000 <GLOBAL_UART>
   826a8:	913a8000 	add	x0, x0, #0xea0
   826ac:	9400033c 	bl	8339c <uart_puts>
   826b0:	f0007be0 	adrp	x0, 1001000 <GLOBAL_UART>
   826b4:	913b6000 	add	x0, x0, #0xed8
   826b8:	94000339 	bl	8339c <uart_puts>
   826bc:	d2920000 	mov	x0, #0x9000                	// #36864
   826c0:	f2a00100 	movk	x0, #0x8, lsl #16
   826c4:	b9400000 	ldr	w0, [x0]
   826c8:	2a0003e0 	mov	w0, w0
   826cc:	9400033f 	bl	833c8 <uart_hex64>
   826d0:	f0007be0 	adrp	x0, 1001000 <GLOBAL_UART>
   826d4:	91228000 	add	x0, x0, #0x8a0
   826d8:	94000331 	bl	8339c <uart_puts>
   826dc:	a8c17bfd 	ldp	x29, x30, [sp], #16
   826e0:	d65f03c0 	ret
   826e4:	f0007be0 	adrp	x0, 1001000 <GLOBAL_UART>
   826e8:	9139c000 	add	x0, x0, #0xe70
   826ec:	9400032c 	bl	8339c <uart_puts>
   826f0:	17fffffb 	b	826dc <validate_vector_table_at_0x89000+0x5c>

00000000000826f4 <test_exception_handling>:
   826f4:	a9bf7bfd 	stp	x29, x30, [sp, #-16]!
   826f8:	910003fd 	mov	x29, sp
   826fc:	f0007be0 	adrp	x0, 1001000 <GLOBAL_UART>
   82700:	913bc000 	add	x0, x0, #0xef0
   82704:	9400027d 	bl	830f8 <uart_puts_late>
   82708:	f0007be0 	adrp	x0, 1001000 <GLOBAL_UART>
   8270c:	913c6000 	add	x0, x0, #0xf18
   82710:	9400027a 	bl	830f8 <uart_puts_late>
   82714:	d4000001 	svc	#0x0
   82718:	f0007be0 	adrp	x0, 1001000 <GLOBAL_UART>
   8271c:	913d0000 	add	x0, x0, #0xf40
   82720:	94000276 	bl	830f8 <uart_puts_late>
   82724:	f0007be0 	adrp	x0, 1001000 <GLOBAL_UART>
   82728:	913dc000 	add	x0, x0, #0xf70
   8272c:	94000273 	bl	830f8 <uart_puts_late>
   82730:	d4000021 	svc	#0x1
   82734:	f0007be0 	adrp	x0, 1001000 <GLOBAL_UART>
   82738:	913e6000 	add	x0, x0, #0xf98
   8273c:	9400026f 	bl	830f8 <uart_puts_late>
   82740:	f0007be0 	adrp	x0, 1001000 <GLOBAL_UART>
   82744:	913f2000 	add	x0, x0, #0xfc8
   82748:	9400026c 	bl	830f8 <uart_puts_late>
   8274c:	a8c17bfd 	ldp	x29, x30, [sp], #16
   82750:	d65f03c0 	ret

0000000000082754 <test_uart_after_mmu>:
   82754:	a9be7bfd 	stp	x29, x30, [sp, #-32]!
   82758:	910003fd 	mov	x29, sp
   8275c:	f9000bf3 	str	x19, [sp, #16]
   82760:	90007c00 	adrp	x0, 1002000 <hex_chars.0+0xff8>
   82764:	91000000 	add	x0, x0, #0x0
   82768:	94000264 	bl	830f8 <uart_puts_late>
   8276c:	90007c00 	adrp	x0, 1002000 <hex_chars.0+0xff8>
   82770:	9100e000 	add	x0, x0, #0x38
   82774:	94000261 	bl	830f8 <uart_puts_late>
   82778:	90007c00 	adrp	x0, 1002000 <hex_chars.0+0xff8>
   8277c:	9102a000 	add	x0, x0, #0xa8
   82780:	9400025e 	bl	830f8 <uart_puts_late>
   82784:	d299bde0 	mov	x0, #0xcdef                	// #52719
   82788:	f2b21560 	movk	x0, #0x90ab, lsl #16
   8278c:	f2cacf00 	movk	x0, #0x5678, lsl #32
   82790:	f2e24680 	movk	x0, #0x1234, lsl #48
   82794:	94000122 	bl	82c1c <uart_hex64_late>
   82798:	f0007bf3 	adrp	x19, 1001000 <GLOBAL_UART>
   8279c:	91228273 	add	x19, x19, #0x8a0
   827a0:	aa1303e0 	mov	x0, x19
   827a4:	94000255 	bl	830f8 <uart_puts_late>
   827a8:	d2a12001 	mov	x1, #0x9000000             	// #150994944
   827ac:	f2ffffe1 	movk	x1, #0xffff, lsl #48
   827b0:	52800880 	mov	w0, #0x44                  	// #68
   827b4:	b9000020 	str	w0, [x1]
   827b8:	52800920 	mov	w0, #0x49                  	// #73
   827bc:	b9000020 	str	w0, [x1]
   827c0:	52800a40 	mov	w0, #0x52                  	// #82
   827c4:	b9000020 	str	w0, [x1]
   827c8:	528008a0 	mov	w0, #0x45                  	// #69
   827cc:	b9000020 	str	w0, [x1]
   827d0:	52800860 	mov	w0, #0x43                  	// #67
   827d4:	b9000020 	str	w0, [x1]
   827d8:	52800a80 	mov	w0, #0x54                  	// #84
   827dc:	b9000020 	str	w0, [x1]
   827e0:	528001a0 	mov	w0, #0xd                   	// #13
   827e4:	b9000020 	str	w0, [x1]
   827e8:	52800140 	mov	w0, #0xa                   	// #10
   827ec:	b9000020 	str	w0, [x1]
   827f0:	90007c00 	adrp	x0, 1002000 <hex_chars.0+0xff8>
   827f4:	91030000 	add	x0, x0, #0xc0
   827f8:	94000240 	bl	830f8 <uart_puts_late>
   827fc:	d297dde0 	mov	x0, #0xbeef                	// #48879
   82800:	f2bbd5a0 	movk	x0, #0xdead, lsl #16
   82804:	9400011c 	bl	82c74 <uart_debug_hex>
   82808:	aa1303e0 	mov	x0, x19
   8280c:	9400023b 	bl	830f8 <uart_puts_late>
   82810:	90007c00 	adrp	x0, 1002000 <hex_chars.0+0xff8>
   82814:	9103a000 	add	x0, x0, #0xe8
   82818:	94000238 	bl	830f8 <uart_puts_late>
   8281c:	f9400bf3 	ldr	x19, [sp, #16]
   82820:	a8c27bfd 	ldp	x29, x30, [sp], #32
   82824:	d65f03c0 	ret

0000000000082828 <uart_putc_early>:
   82828:	12001c00 	and	w0, w0, #0xff
   8282c:	d2800302 	mov	x2, #0x18                  	// #24
   82830:	f2a12002 	movk	x2, #0x900, lsl #16
   82834:	b9400041 	ldr	w1, [x2]
   82838:	372fffe1 	tbnz	w1, #5, 82834 <uart_putc_early+0xc>
   8283c:	d2a12001 	mov	x1, #0x9000000             	// #150994944
   82840:	b9000020 	str	w0, [x1]
   82844:	d65f03c0 	ret

0000000000082848 <uart_puts_early>:
   82848:	b40002a0 	cbz	x0, 8289c <uart_puts_early+0x54>
   8284c:	a9be7bfd 	stp	x29, x30, [sp, #-32]!
   82850:	910003fd 	mov	x29, sp
   82854:	a90153f3 	stp	x19, x20, [sp, #16]
   82858:	aa0003f3 	mov	x19, x0
   8285c:	39400000 	ldrb	w0, [x0]
   82860:	34000180 	cbz	w0, 82890 <uart_puts_early+0x48>
   82864:	528001b4 	mov	w20, #0xd                   	// #13
   82868:	14000005 	b	8287c <uart_puts_early+0x34>
   8286c:	38401660 	ldrb	w0, [x19], #1
   82870:	97ffffee 	bl	82828 <uart_putc_early>
   82874:	39400260 	ldrb	w0, [x19]
   82878:	340000c0 	cbz	w0, 82890 <uart_puts_early+0x48>
   8287c:	7100281f 	cmp	w0, #0xa
   82880:	54ffff61 	b.ne	8286c <uart_puts_early+0x24>  // b.any
   82884:	2a1403e0 	mov	w0, w20
   82888:	97ffffe8 	bl	82828 <uart_putc_early>
   8288c:	17fffff8 	b	8286c <uart_puts_early+0x24>
   82890:	a94153f3 	ldp	x19, x20, [sp, #16]
   82894:	a8c27bfd 	ldp	x29, x30, [sp], #32
   82898:	d65f03c0 	ret
   8289c:	d65f03c0 	ret

00000000000828a0 <uart_hex64_early>:
   828a0:	a9be7bfd 	stp	x29, x30, [sp, #-32]!
   828a4:	910003fd 	mov	x29, sp
   828a8:	a90153f3 	stp	x19, x20, [sp, #16]
   828ac:	aa0003f4 	mov	x20, x0
   828b0:	52800600 	mov	w0, #0x30                  	// #48
   828b4:	97ffffdd 	bl	82828 <uart_putc_early>
   828b8:	52800f00 	mov	w0, #0x78                  	// #120
   828bc:	97ffffdb 	bl	82828 <uart_putc_early>
   828c0:	52800793 	mov	w19, #0x3c                  	// #60
   828c4:	9ad32681 	lsr	x1, x20, x19
   828c8:	12000c21 	and	w1, w1, #0xf
   828cc:	1100c022 	add	w2, w1, #0x30
   828d0:	11015c20 	add	w0, w1, #0x57
   828d4:	7100243f 	cmp	w1, #0x9
   828d8:	1a828000 	csel	w0, w0, w2, hi	// hi = pmore
   828dc:	97ffffd3 	bl	82828 <uart_putc_early>
   828e0:	51001273 	sub	w19, w19, #0x4
   828e4:	3100127f 	cmn	w19, #0x4
   828e8:	54fffee1 	b.ne	828c4 <uart_hex64_early+0x24>  // b.any
   828ec:	a94153f3 	ldp	x19, x20, [sp, #16]
   828f0:	a8c27bfd 	ldp	x29, x30, [sp], #32
   828f4:	d65f03c0 	ret

00000000000828f8 <uart_debug_marker>:
   828f8:	d10043ff 	sub	sp, sp, #0x10
   828fc:	12001c00 	and	w0, w0, #0xff
   82900:	d2a12001 	mov	x1, #0x9000000             	// #150994944
   82904:	528001a3 	mov	w3, #0xd                   	// #13
   82908:	b9000023 	str	w3, [x1]
   8290c:	52800142 	mov	w2, #0xa                   	// #10
   82910:	b9000022 	str	w2, [x1]
   82914:	b9000023 	str	w3, [x1]
   82918:	b9000022 	str	w2, [x1]
   8291c:	b9000023 	str	w3, [x1]
   82920:	b9000022 	str	w2, [x1]
   82924:	52800544 	mov	w4, #0x2a                  	// #42
   82928:	b9000024 	str	w4, [x1]
   8292c:	b9000024 	str	w4, [x1]
   82930:	b9000024 	str	w4, [x1]
   82934:	52800405 	mov	w5, #0x20                  	// #32
   82938:	b9000025 	str	w5, [x1]
   8293c:	52800886 	mov	w6, #0x44                  	// #68
   82940:	b9000026 	str	w6, [x1]
   82944:	528008a7 	mov	w7, #0x45                  	// #69
   82948:	b9000027 	str	w7, [x1]
   8294c:	52800846 	mov	w6, #0x42                  	// #66
   82950:	b9000026 	str	w6, [x1]
   82954:	52800aa6 	mov	w6, #0x55                  	// #85
   82958:	b9000026 	str	w6, [x1]
   8295c:	528008e6 	mov	w6, #0x47                  	// #71
   82960:	b9000026 	str	w6, [x1]
   82964:	b9000025 	str	w5, [x1]
   82968:	528009a6 	mov	w6, #0x4d                  	// #77
   8296c:	b9000026 	str	w6, [x1]
   82970:	52800826 	mov	w6, #0x41                  	// #65
   82974:	b9000026 	str	w6, [x1]
   82978:	52800a46 	mov	w6, #0x52                  	// #82
   8297c:	b9000026 	str	w6, [x1]
   82980:	52800968 	mov	w8, #0x4b                  	// #75
   82984:	b9000028 	str	w8, [x1]
   82988:	b9000027 	str	w7, [x1]
   8298c:	b9000026 	str	w6, [x1]
   82990:	52800746 	mov	w6, #0x3a                  	// #58
   82994:	b9000026 	str	w6, [x1]
   82998:	b9000025 	str	w5, [x1]
   8299c:	b9000020 	str	w0, [x1]
   829a0:	b9000025 	str	w5, [x1]
   829a4:	b9000024 	str	w4, [x1]
   829a8:	b9000024 	str	w4, [x1]
   829ac:	b9000024 	str	w4, [x1]
   829b0:	b9000023 	str	w3, [x1]
   829b4:	b9000022 	str	w2, [x1]
   829b8:	b9000023 	str	w3, [x1]
   829bc:	b9000022 	str	w2, [x1]
   829c0:	b9000023 	str	w3, [x1]
   829c4:	b9000022 	str	w2, [x1]
   829c8:	b9000023 	str	w3, [x1]
   829cc:	b9000022 	str	w2, [x1]
   829d0:	b9000fff 	str	wzr, [sp, #12]
   829d4:	b9400fe1 	ldr	w1, [sp, #12]
   829d8:	529869e0 	mov	w0, #0xc34f                	// #49999
   829dc:	6b00003f 	cmp	w1, w0
   829e0:	5400010c 	b.gt	82a00 <uart_debug_marker+0x108>
   829e4:	2a0003e1 	mov	w1, w0
   829e8:	b9400fe0 	ldr	w0, [sp, #12]
   829ec:	11000400 	add	w0, w0, #0x1
   829f0:	b9000fe0 	str	w0, [sp, #12]
   829f4:	b9400fe0 	ldr	w0, [sp, #12]
   829f8:	6b01001f 	cmp	w0, w1
   829fc:	54ffff6d 	b.le	829e8 <uart_debug_marker+0xf0>
   82a00:	910043ff 	add	sp, sp, #0x10
   82a04:	d65f03c0 	ret

0000000000082a08 <uart_init_early>:
   82a08:	a9bf7bfd 	stp	x29, x30, [sp, #-16]!
   82a0c:	910003fd 	mov	x29, sp
   82a10:	528008a0 	mov	w0, #0x45                  	// #69
   82a14:	97ffff85 	bl	82828 <uart_putc_early>
   82a18:	52800820 	mov	w0, #0x41                  	// #65
   82a1c:	97ffff83 	bl	82828 <uart_putc_early>
   82a20:	52800a40 	mov	w0, #0x52                  	// #82
   82a24:	97ffff81 	bl	82828 <uart_putc_early>
   82a28:	52800980 	mov	w0, #0x4c                  	// #76
   82a2c:	97ffff7f 	bl	82828 <uart_putc_early>
   82a30:	52800b20 	mov	w0, #0x59                  	// #89
   82a34:	97ffff7d 	bl	82828 <uart_putc_early>
   82a38:	52800740 	mov	w0, #0x3a                  	// #58
   82a3c:	97ffff7b 	bl	82828 <uart_putc_early>
   82a40:	528009e0 	mov	w0, #0x4f                  	// #79
   82a44:	97ffff79 	bl	82828 <uart_putc_early>
   82a48:	52800960 	mov	w0, #0x4b                  	// #75
   82a4c:	97ffff77 	bl	82828 <uart_putc_early>
   82a50:	528001a0 	mov	w0, #0xd                   	// #13
   82a54:	97ffff75 	bl	82828 <uart_putc_early>
   82a58:	52800140 	mov	w0, #0xa                   	// #10
   82a5c:	97ffff73 	bl	82828 <uart_putc_early>
   82a60:	a8c17bfd 	ldp	x29, x30, [sp], #16
   82a64:	d65f03c0 	ret

0000000000082a68 <uart_clear_screen>:
   82a68:	d10043ff 	sub	sp, sp, #0x10
   82a6c:	52800640 	mov	w0, #0x32                  	// #50
   82a70:	d2a12001 	mov	x1, #0x9000000             	// #150994944
   82a74:	528001a3 	mov	w3, #0xd                   	// #13
   82a78:	52800142 	mov	w2, #0xa                   	// #10
   82a7c:	b9000023 	str	w3, [x1]
   82a80:	b9000022 	str	w2, [x1]
   82a84:	71000400 	subs	w0, w0, #0x1
   82a88:	54ffffa1 	b.ne	82a7c <uart_clear_screen+0x14>  // b.any
   82a8c:	d2a12000 	mov	x0, #0x9000000             	// #150994944
   82a90:	528007a1 	mov	w1, #0x3d                  	// #61
   82a94:	b9000001 	str	w1, [x0]
   82a98:	b9000001 	str	w1, [x0]
   82a9c:	b9000001 	str	w1, [x0]
   82aa0:	52800402 	mov	w2, #0x20                  	// #32
   82aa4:	b9000002 	str	w2, [x0]
   82aa8:	52800863 	mov	w3, #0x43                  	// #67
   82aac:	b9000003 	str	w3, [x0]
   82ab0:	52800983 	mov	w3, #0x4c                  	// #76
   82ab4:	b9000003 	str	w3, [x0]
   82ab8:	528008a3 	mov	w3, #0x45                  	// #69
   82abc:	b9000003 	str	w3, [x0]
   82ac0:	52800823 	mov	w3, #0x41                  	// #65
   82ac4:	b9000003 	str	w3, [x0]
   82ac8:	52800a43 	mov	w3, #0x52                  	// #82
   82acc:	b9000003 	str	w3, [x0]
   82ad0:	b9000002 	str	w2, [x0]
   82ad4:	528009e3 	mov	w3, #0x4f                  	// #79
   82ad8:	b9000003 	str	w3, [x0]
   82adc:	52800aa4 	mov	w4, #0x55                  	// #85
   82ae0:	b9000004 	str	w4, [x0]
   82ae4:	52800a83 	mov	w3, #0x54                  	// #84
   82ae8:	b9000003 	str	w3, [x0]
   82aec:	52800a05 	mov	w5, #0x50                  	// #80
   82af0:	b9000005 	str	w5, [x0]
   82af4:	b9000004 	str	w4, [x0]
   82af8:	b9000003 	str	w3, [x0]
   82afc:	b9000002 	str	w2, [x0]
   82b00:	b9000001 	str	w1, [x0]
   82b04:	b9000001 	str	w1, [x0]
   82b08:	b9000001 	str	w1, [x0]
   82b0c:	528001a2 	mov	w2, #0xd                   	// #13
   82b10:	b9000002 	str	w2, [x0]
   82b14:	52800141 	mov	w1, #0xa                   	// #10
   82b18:	b9000001 	str	w1, [x0]
   82b1c:	b9000002 	str	w2, [x0]
   82b20:	b9000001 	str	w1, [x0]
   82b24:	b9000fff 	str	wzr, [sp, #12]
   82b28:	b9400fe1 	ldr	w1, [sp, #12]
   82b2c:	528c34e0 	mov	w0, #0x61a7                	// #24999
   82b30:	6b00003f 	cmp	w1, w0
   82b34:	5400010c 	b.gt	82b54 <uart_clear_screen+0xec>
   82b38:	2a0003e1 	mov	w1, w0
   82b3c:	b9400fe0 	ldr	w0, [sp, #12]
   82b40:	11000400 	add	w0, w0, #0x1
   82b44:	b9000fe0 	str	w0, [sp, #12]
   82b48:	b9400fe0 	ldr	w0, [sp, #12]
   82b4c:	6b01001f 	cmp	w0, w1
   82b50:	54ffff6d 	b.le	82b3c <uart_clear_screen+0xd4>
   82b54:	910043ff 	add	sp, sp, #0x10
   82b58:	d65f03c0 	ret

0000000000082b5c <get_mmu_msg_buffer>:
   82b5c:	b0007c20 	adrp	x0, 1007000 <mmu_msg>
   82b60:	91000000 	add	x0, x0, #0x0
   82b64:	d65f03c0 	ret

0000000000082b68 <uart_set_mmu_enabled>:
   82b68:	d5033f9f 	dsb	sy
   82b6c:	b0007c20 	adrp	x0, 1007000 <mmu_msg>
   82b70:	52800021 	mov	w1, #0x1                   	// #1
   82b74:	b9024001 	str	w1, [x0, #576]
   82b78:	d5033f9f 	dsb	sy
   82b7c:	d5033fdf 	isb
   82b80:	d2a12000 	mov	x0, #0x9000000             	// #150994944
   82b84:	f2ffffe0 	movk	x0, #0xffff, lsl #48
   82b88:	52800b61 	mov	w1, #0x5b                  	// #91
   82b8c:	b9000001 	str	w1, [x0]
   82b90:	528009a1 	mov	w1, #0x4d                  	// #77
   82b94:	b9000001 	str	w1, [x0]
   82b98:	b9000001 	str	w1, [x0]
   82b9c:	52800aa1 	mov	w1, #0x55                  	// #85
   82ba0:	b9000001 	str	w1, [x0]
   82ba4:	52800ba1 	mov	w1, #0x5d                  	// #93
   82ba8:	b9000001 	str	w1, [x0]
   82bac:	52800401 	mov	w1, #0x20                  	// #32
   82bb0:	b9000001 	str	w1, [x0]
   82bb4:	528008a1 	mov	w1, #0x45                  	// #69
   82bb8:	b9000001 	str	w1, [x0]
   82bbc:	52800dc1 	mov	w1, #0x6e                  	// #110
   82bc0:	b9000001 	str	w1, [x0]
   82bc4:	52800c21 	mov	w1, #0x61                  	// #97
   82bc8:	b9000001 	str	w1, [x0]
   82bcc:	52800c41 	mov	w1, #0x62                  	// #98
   82bd0:	b9000001 	str	w1, [x0]
   82bd4:	52800d81 	mov	w1, #0x6c                  	// #108
   82bd8:	b9000001 	str	w1, [x0]
   82bdc:	52800ca1 	mov	w1, #0x65                  	// #101
   82be0:	b9000001 	str	w1, [x0]
   82be4:	52800c81 	mov	w1, #0x64                  	// #100
   82be8:	b9000001 	str	w1, [x0]
   82bec:	528001a1 	mov	w1, #0xd                   	// #13
   82bf0:	b9000001 	str	w1, [x0]
   82bf4:	52800141 	mov	w1, #0xa                   	// #10
   82bf8:	b9000001 	str	w1, [x0]
   82bfc:	d65f03c0 	ret

0000000000082c00 <uart_putc_late>:
   82c00:	12001c00 	and	w0, w0, #0xff
   82c04:	90007c21 	adrp	x1, 1006000 <g_uart_base>
   82c08:	f9400022 	ldr	x2, [x1]
   82c0c:	b9401841 	ldr	w1, [x2, #24]
   82c10:	372fffe1 	tbnz	w1, #5, 82c0c <uart_putc_late+0xc>
   82c14:	b9000040 	str	w0, [x2]
   82c18:	d65f03c0 	ret

0000000000082c1c <uart_hex64_late>:
   82c1c:	a9be7bfd 	stp	x29, x30, [sp, #-32]!
   82c20:	910003fd 	mov	x29, sp
   82c24:	a90153f3 	stp	x19, x20, [sp, #16]
   82c28:	aa0003f4 	mov	x20, x0
   82c2c:	52800600 	mov	w0, #0x30                  	// #48
   82c30:	97fffff4 	bl	82c00 <uart_putc_late>
   82c34:	52800f00 	mov	w0, #0x78                  	// #120
   82c38:	97fffff2 	bl	82c00 <uart_putc_late>
   82c3c:	52800793 	mov	w19, #0x3c                  	// #60
   82c40:	9ad32681 	lsr	x1, x20, x19
   82c44:	12000c21 	and	w1, w1, #0xf
   82c48:	1100c022 	add	w2, w1, #0x30
   82c4c:	11015c20 	add	w0, w1, #0x57
   82c50:	7100243f 	cmp	w1, #0x9
   82c54:	1a828000 	csel	w0, w0, w2, hi	// hi = pmore
   82c58:	97ffffea 	bl	82c00 <uart_putc_late>
   82c5c:	51001273 	sub	w19, w19, #0x4
   82c60:	3100127f 	cmn	w19, #0x4
   82c64:	54fffee1 	b.ne	82c40 <uart_hex64_late+0x24>  // b.any
   82c68:	a94153f3 	ldp	x19, x20, [sp, #16]
   82c6c:	a8c27bfd 	ldp	x29, x30, [sp], #32
   82c70:	d65f03c0 	ret

0000000000082c74 <uart_debug_hex>:
   82c74:	52800782 	mov	w2, #0x3c                  	// #60
   82c78:	90007c25 	adrp	x5, 1006000 <g_uart_base>
   82c7c:	9ac22401 	lsr	x1, x0, x2
   82c80:	12000c21 	and	w1, w1, #0xf
   82c84:	1100c024 	add	w4, w1, #0x30
   82c88:	1100dc23 	add	w3, w1, #0x37
   82c8c:	7100243f 	cmp	w1, #0x9
   82c90:	1a848061 	csel	w1, w3, w4, hi	// hi = pmore
   82c94:	f94000a3 	ldr	x3, [x5]
   82c98:	b9000061 	str	w1, [x3]
   82c9c:	51001042 	sub	w2, w2, #0x4
   82ca0:	3100105f 	cmn	w2, #0x4
   82ca4:	54fffec1 	b.ne	82c7c <uart_debug_hex+0x8>  // b.any
   82ca8:	d65f03c0 	ret

0000000000082cac <uart_debug_marker_late>:
   82cac:	12001c00 	and	w0, w0, #0xff
   82cb0:	90007c21 	adrp	x1, 1006000 <g_uart_base>
   82cb4:	f9400022 	ldr	x2, [x1]
   82cb8:	528001a3 	mov	w3, #0xd                   	// #13
   82cbc:	b9000043 	str	w3, [x2]
   82cc0:	f9400024 	ldr	x4, [x1]
   82cc4:	52800142 	mov	w2, #0xa                   	// #10
   82cc8:	b9000082 	str	w2, [x4]
   82ccc:	f9400024 	ldr	x4, [x1]
   82cd0:	b9000083 	str	w3, [x4]
   82cd4:	f9400024 	ldr	x4, [x1]
   82cd8:	b9000082 	str	w2, [x4]
   82cdc:	f9400024 	ldr	x4, [x1]
   82ce0:	b9000083 	str	w3, [x4]
   82ce4:	f9400024 	ldr	x4, [x1]
   82ce8:	b9000082 	str	w2, [x4]
   82cec:	f9400025 	ldr	x5, [x1]
   82cf0:	52800464 	mov	w4, #0x23                  	// #35
   82cf4:	b90000a4 	str	w4, [x5]
   82cf8:	f9400025 	ldr	x5, [x1]
   82cfc:	b90000a4 	str	w4, [x5]
   82d00:	f9400025 	ldr	x5, [x1]
   82d04:	b90000a4 	str	w4, [x5]
   82d08:	f9400026 	ldr	x6, [x1]
   82d0c:	52800405 	mov	w5, #0x20                  	// #32
   82d10:	b90000c5 	str	w5, [x6]
   82d14:	f9400026 	ldr	x6, [x1]
   82d18:	52800a07 	mov	w7, #0x50                  	// #80
   82d1c:	b90000c7 	str	w7, [x6]
   82d20:	f9400026 	ldr	x6, [x1]
   82d24:	528009e7 	mov	w7, #0x4f                  	// #79
   82d28:	b90000c7 	str	w7, [x6]
   82d2c:	f9400026 	ldr	x6, [x1]
   82d30:	52800a67 	mov	w7, #0x53                  	// #83
   82d34:	b90000c7 	str	w7, [x6]
   82d38:	f9400026 	ldr	x6, [x1]
   82d3c:	52800a87 	mov	w7, #0x54                  	// #84
   82d40:	b90000c7 	str	w7, [x6]
   82d44:	f9400026 	ldr	x6, [x1]
   82d48:	528005a7 	mov	w7, #0x2d                  	// #45
   82d4c:	b90000c7 	str	w7, [x6]
   82d50:	f9400027 	ldr	x7, [x1]
   82d54:	528009a6 	mov	w6, #0x4d                  	// #77
   82d58:	b90000e6 	str	w6, [x7]
   82d5c:	f9400027 	ldr	x7, [x1]
   82d60:	b90000e6 	str	w6, [x7]
   82d64:	f9400026 	ldr	x6, [x1]
   82d68:	52800aa7 	mov	w7, #0x55                  	// #85
   82d6c:	b90000c7 	str	w7, [x6]
   82d70:	f9400026 	ldr	x6, [x1]
   82d74:	b90000c5 	str	w5, [x6]
   82d78:	f9400026 	ldr	x6, [x1]
   82d7c:	b90000c0 	str	w0, [x6]
   82d80:	f9400020 	ldr	x0, [x1]
   82d84:	b9000005 	str	w5, [x0]
   82d88:	f9400020 	ldr	x0, [x1]
   82d8c:	b9000004 	str	w4, [x0]
   82d90:	f9400020 	ldr	x0, [x1]
   82d94:	b9000004 	str	w4, [x0]
   82d98:	f9400020 	ldr	x0, [x1]
   82d9c:	b9000004 	str	w4, [x0]
   82da0:	f9400020 	ldr	x0, [x1]
   82da4:	b9000003 	str	w3, [x0]
   82da8:	f9400020 	ldr	x0, [x1]
   82dac:	b9000002 	str	w2, [x0]
   82db0:	f9400020 	ldr	x0, [x1]
   82db4:	b9000003 	str	w3, [x0]
   82db8:	f9400020 	ldr	x0, [x1]
   82dbc:	b9000002 	str	w2, [x0]
   82dc0:	f9400020 	ldr	x0, [x1]
   82dc4:	b9000003 	str	w3, [x0]
   82dc8:	f9400020 	ldr	x0, [x1]
   82dcc:	b9000002 	str	w2, [x0]
   82dd0:	f9400020 	ldr	x0, [x1]
   82dd4:	b9000003 	str	w3, [x0]
   82dd8:	f9400020 	ldr	x0, [x1]
   82ddc:	b9000002 	str	w2, [x0]
   82de0:	d65f03c0 	ret

0000000000082de4 <uart_emergency_output>:
   82de4:	12001c03 	and	w3, w0, #0xff
   82de8:	90007c20 	adrp	x0, 1006000 <g_uart_base>
   82dec:	f9400000 	ldr	x0, [x0]
   82df0:	f100001f 	cmp	x0, #0x0
   82df4:	d2a12001 	mov	x1, #0x9000000             	// #150994944
   82df8:	f2ffffe1 	movk	x1, #0xffff, lsl #48
   82dfc:	9a811000 	csel	x0, x0, x1, ne	// ne = any
   82e00:	91006001 	add	x1, x0, #0x18
   82e04:	b9400022 	ldr	w2, [x1]
   82e08:	721b005f 	tst	w2, #0x20
   82e0c:	54ffffc1 	b.ne	82e04 <uart_emergency_output+0x20>  // b.any
   82e10:	39000003 	strb	w3, [x0]
   82e14:	d65f03c0 	ret

0000000000082e18 <uart_emergency_puts>:
   82e18:	b40004a0 	cbz	x0, 82eac <uart_emergency_puts+0x94>
   82e1c:	a9be7bfd 	stp	x29, x30, [sp, #-32]!
   82e20:	910003fd 	mov	x29, sp
   82e24:	a90153f3 	stp	x19, x20, [sp, #16]
   82e28:	aa0003f3 	mov	x19, x0
   82e2c:	52800b60 	mov	w0, #0x5b                  	// #91
   82e30:	97ffffed 	bl	82de4 <uart_emergency_output>
   82e34:	528008a0 	mov	w0, #0x45                  	// #69
   82e38:	97ffffeb 	bl	82de4 <uart_emergency_output>
   82e3c:	528009a0 	mov	w0, #0x4d                  	// #77
   82e40:	97ffffe9 	bl	82de4 <uart_emergency_output>
   82e44:	528008e0 	mov	w0, #0x47                  	// #71
   82e48:	97ffffe7 	bl	82de4 <uart_emergency_output>
   82e4c:	52800ba0 	mov	w0, #0x5d                  	// #93
   82e50:	97ffffe5 	bl	82de4 <uart_emergency_output>
   82e54:	52800400 	mov	w0, #0x20                  	// #32
   82e58:	97ffffe3 	bl	82de4 <uart_emergency_output>
   82e5c:	39400260 	ldrb	w0, [x19]
   82e60:	34000180 	cbz	w0, 82e90 <uart_emergency_puts+0x78>
   82e64:	528001b4 	mov	w20, #0xd                   	// #13
   82e68:	14000005 	b	82e7c <uart_emergency_puts+0x64>
   82e6c:	38401660 	ldrb	w0, [x19], #1
   82e70:	97ffffdd 	bl	82de4 <uart_emergency_output>
   82e74:	39400260 	ldrb	w0, [x19]
   82e78:	340000c0 	cbz	w0, 82e90 <uart_emergency_puts+0x78>
   82e7c:	7100281f 	cmp	w0, #0xa
   82e80:	54ffff61 	b.ne	82e6c <uart_emergency_puts+0x54>  // b.any
   82e84:	2a1403e0 	mov	w0, w20
   82e88:	97ffffd7 	bl	82de4 <uart_emergency_output>
   82e8c:	17fffff8 	b	82e6c <uart_emergency_puts+0x54>
   82e90:	528001a0 	mov	w0, #0xd                   	// #13
   82e94:	97ffffd4 	bl	82de4 <uart_emergency_output>
   82e98:	52800140 	mov	w0, #0xa                   	// #10
   82e9c:	97ffffd2 	bl	82de4 <uart_emergency_output>
   82ea0:	a94153f3 	ldp	x19, x20, [sp, #16]
   82ea4:	a8c27bfd 	ldp	x29, x30, [sp], #32
   82ea8:	d65f03c0 	ret
   82eac:	d65f03c0 	ret

0000000000082eb0 <uart_emergency_hex64>:
   82eb0:	a9bd7bfd 	stp	x29, x30, [sp, #-48]!
   82eb4:	910003fd 	mov	x29, sp
   82eb8:	a90153f3 	stp	x19, x20, [sp, #16]
   82ebc:	f90013f5 	str	x21, [sp, #32]
   82ec0:	aa0003f5 	mov	x21, x0
   82ec4:	52800600 	mov	w0, #0x30                  	// #48
   82ec8:	97ffffc7 	bl	82de4 <uart_emergency_output>
   82ecc:	52800f00 	mov	w0, #0x78                  	// #120
   82ed0:	97ffffc5 	bl	82de4 <uart_emergency_output>
   82ed4:	52800793 	mov	w19, #0x3c                  	// #60
   82ed8:	f0007bf4 	adrp	x20, 1001000 <GLOBAL_UART>
   82edc:	91002294 	add	x20, x20, #0x8
   82ee0:	9ad326a1 	lsr	x1, x21, x19
   82ee4:	92400c21 	and	x1, x1, #0xf
   82ee8:	38616a80 	ldrb	w0, [x20, x1]
   82eec:	97ffffbe 	bl	82de4 <uart_emergency_output>
   82ef0:	51001273 	sub	w19, w19, #0x4
   82ef4:	3100127f 	cmn	w19, #0x4
   82ef8:	54ffff41 	b.ne	82ee0 <uart_emergency_hex64+0x30>  // b.any
   82efc:	a94153f3 	ldp	x19, x20, [sp, #16]
   82f00:	f94013f5 	ldr	x21, [sp, #32]
   82f04:	a8c37bfd 	ldp	x29, x30, [sp], #48
   82f08:	d65f03c0 	ret

0000000000082f0c <uart_puts_safe_indexed>:
   82f0c:	b4000f40 	cbz	x0, 830f4 <uart_puts_safe_indexed+0x1e8>
   82f10:	a9bd7bfd 	stp	x29, x30, [sp, #-48]!
   82f14:	910003fd 	mov	x29, sp
   82f18:	a90153f3 	stp	x19, x20, [sp, #16]
   82f1c:	aa0003f4 	mov	x20, x0
   82f20:	52800001 	mov	w1, #0x0                   	// #0
   82f24:	b0007c22 	adrp	x2, 1007000 <mmu_msg>
   82f28:	91000042 	add	x2, x2, #0x0
   82f2c:	3821c85f 	strb	wzr, [x2, w1, sxtw]
   82f30:	11000421 	add	w1, w1, #0x1
   82f34:	7101003f 	cmp	w1, #0x40
   82f38:	54ffffa1 	b.ne	82f2c <uart_puts_safe_indexed+0x20>  // b.any
   82f3c:	d5033f9f 	dsb	sy
   82f40:	b0007c26 	adrp	x6, 1007000 <mmu_msg>
   82f44:	910000c6 	add	x6, x6, #0x0
   82f48:	d5087626 	dc	ivac, x6
   82f4c:	d5033b9f 	dsb	ish
   82f50:	d2800021 	mov	x1, #0x1                   	// #1
   82f54:	d1000684 	sub	x4, x20, #0x1
   82f58:	aa0603e3 	mov	x3, x6
   82f5c:	d10004c5 	sub	x5, x6, #0x1
   82f60:	51000422 	sub	w2, w1, #0x1
   82f64:	38616880 	ldrb	w0, [x4, x1]
   82f68:	34000140 	cbz	w0, 82f90 <uart_puts_safe_indexed+0x84>
   82f6c:	3822c860 	strb	w0, [x3, w2, sxtw]
   82f70:	8b0100a0 	add	x0, x5, x1
   82f74:	d50b7e20 	dc	civac, x0
   82f78:	91000420 	add	x0, x1, #0x1
   82f7c:	f100fc3f 	cmp	x1, #0x3f
   82f80:	54000060 	b.eq	82f8c <uart_puts_safe_indexed+0x80>  // b.none
   82f84:	aa0003e1 	mov	x1, x0
   82f88:	17fffff6 	b	82f60 <uart_puts_safe_indexed+0x54>
   82f8c:	2a0103e2 	mov	w2, w1
   82f90:	b0007c20 	adrp	x0, 1007000 <mmu_msg>
   82f94:	91000000 	add	x0, x0, #0x0
   82f98:	3822c81f 	strb	wzr, [x0, w2, sxtw]
   82f9c:	8b22c002 	add	x2, x0, w2, sxtw
   82fa0:	d50b7e22 	dc	civac, x2
   82fa4:	d5033b9f 	dsb	ish
   82fa8:	d34cfcc6 	lsr	x6, x6, #12
   82fac:	d5088366 	tlbi	vaae1is, x6
   82fb0:	d34cfe80 	lsr	x0, x20, #12
   82fb4:	d5088360 	tlbi	vaae1is, x0
   82fb8:	d508711f 	ic	ialluis
   82fbc:	d5033b9f 	dsb	ish
   82fc0:	d5033fdf 	isb
   82fc4:	90007c20 	adrp	x0, 1006000 <g_uart_base>
   82fc8:	f9400013 	ldr	x19, [x0]
   82fcc:	b9401a60 	ldr	w0, [x19, #24]
   82fd0:	b9002fe0 	str	w0, [sp, #44]
   82fd4:	52800aa0 	mov	w0, #0x55                  	// #85
   82fd8:	97ffff83 	bl	82de4 <uart_emergency_output>
   82fdc:	52800820 	mov	w0, #0x41                  	// #65
   82fe0:	97ffff81 	bl	82de4 <uart_emergency_output>
   82fe4:	52800a40 	mov	w0, #0x52                  	// #82
   82fe8:	97ffff7f 	bl	82de4 <uart_emergency_output>
   82fec:	52800a80 	mov	w0, #0x54                  	// #84
   82ff0:	97ffff7d 	bl	82de4 <uart_emergency_output>
   82ff4:	52800400 	mov	w0, #0x20                  	// #32
   82ff8:	97ffff7b 	bl	82de4 <uart_emergency_output>
   82ffc:	528008c0 	mov	w0, #0x46                  	// #70
   83000:	97ffff79 	bl	82de4 <uart_emergency_output>
   83004:	52800a40 	mov	w0, #0x52                  	// #82
   83008:	97ffff77 	bl	82de4 <uart_emergency_output>
   8300c:	52800740 	mov	w0, #0x3a                  	// #58
   83010:	97ffff75 	bl	82de4 <uart_emergency_output>
   83014:	52800400 	mov	w0, #0x20                  	// #32
   83018:	97ffff73 	bl	82de4 <uart_emergency_output>
   8301c:	b9402fe0 	ldr	w0, [sp, #44]
   83020:	2a0003e0 	mov	w0, w0
   83024:	97ffffa3 	bl	82eb0 <uart_emergency_hex64>
   83028:	528001a0 	mov	w0, #0xd                   	// #13
   8302c:	97ffff6e 	bl	82de4 <uart_emergency_output>
   83030:	52800140 	mov	w0, #0xa                   	// #10
   83034:	97ffff6c 	bl	82de4 <uart_emergency_output>
   83038:	d5033b9f 	dsb	ish
   8303c:	52800002 	mov	w2, #0x0                   	// #0
   83040:	90007c24 	adrp	x4, 1007000 <mmu_msg>
   83044:	91000084 	add	x4, x4, #0x0
   83048:	f0007c05 	adrp	x5, 1006000 <g_uart_base>
   8304c:	528001a6 	mov	w6, #0xd                   	// #13
   83050:	14000009 	b	83074 <uart_puts_safe_indexed+0x168>
   83054:	b9401a61 	ldr	w1, [x19, #24]
   83058:	372fffe1 	tbnz	w1, #5, 83054 <uart_puts_safe_indexed+0x148>
   8305c:	f94000a0 	ldr	x0, [x5]
   83060:	b9000003 	str	w3, [x0]
   83064:	d5033bbf 	dmb	ish
   83068:	11000442 	add	w2, w2, #0x1
   8306c:	7101005f 	cmp	w2, #0x40
   83070:	540001c0 	b.eq	830a8 <uart_puts_safe_indexed+0x19c>  // b.none
   83074:	3862c880 	ldrb	w0, [x4, w2, sxtw]
   83078:	12001c00 	and	w0, w0, #0xff
   8307c:	34000160 	cbz	w0, 830a8 <uart_puts_safe_indexed+0x19c>
   83080:	3862c883 	ldrb	w3, [x4, w2, sxtw]
   83084:	12001c63 	and	w3, w3, #0xff
   83088:	7100287f 	cmp	w3, #0xa
   8308c:	54fffe41 	b.ne	83054 <uart_puts_safe_indexed+0x148>  // b.any
   83090:	b9401a60 	ldr	w0, [x19, #24]
   83094:	372fffe0 	tbnz	w0, #5, 83090 <uart_puts_safe_indexed+0x184>
   83098:	f94000a0 	ldr	x0, [x5]
   8309c:	b9000006 	str	w6, [x0]
   830a0:	d5033bbf 	dmb	ish
   830a4:	17ffffec 	b	83054 <uart_puts_safe_indexed+0x148>
   830a8:	d5033b9f 	dsb	ish
   830ac:	71000c5f 	cmp	w2, #0x3
   830b0:	5400012c 	b.gt	830d4 <uart_puts_safe_indexed+0x1c8>
   830b4:	39400280 	ldrb	w0, [x20]
   830b8:	340000e0 	cbz	w0, 830d4 <uart_puts_safe_indexed+0x1c8>
   830bc:	39400680 	ldrb	w0, [x20, #1]
   830c0:	340000a0 	cbz	w0, 830d4 <uart_puts_safe_indexed+0x1c8>
   830c4:	39400a80 	ldrb	w0, [x20, #2]
   830c8:	34000060 	cbz	w0, 830d4 <uart_puts_safe_indexed+0x1c8>
   830cc:	39400e80 	ldrb	w0, [x20, #3]
   830d0:	35000080 	cbnz	w0, 830e0 <uart_puts_safe_indexed+0x1d4>
   830d4:	a94153f3 	ldp	x19, x20, [sp, #16]
   830d8:	a8c37bfd 	ldp	x29, x30, [sp], #48
   830dc:	d65f03c0 	ret
   830e0:	52800840 	mov	w0, #0x42                  	// #66
   830e4:	97fffef2 	bl	82cac <uart_debug_marker_late>
   830e8:	aa1403e0 	mov	x0, x20
   830ec:	97ffff4b 	bl	82e18 <uart_emergency_puts>
   830f0:	17fffff9 	b	830d4 <uart_puts_safe_indexed+0x1c8>
   830f4:	d65f03c0 	ret

00000000000830f8 <uart_puts_late>:
   830f8:	b4000c40 	cbz	x0, 83280 <uart_puts_late+0x188>
   830fc:	a9bd7bfd 	stp	x29, x30, [sp, #-48]!
   83100:	910003fd 	mov	x29, sp
   83104:	a90153f3 	stp	x19, x20, [sp, #16]
   83108:	a9025bf5 	stp	x21, x22, [sp, #32]
   8310c:	aa0003f4 	mov	x20, x0
   83110:	52800820 	mov	w0, #0x41                  	// #65
   83114:	97ffff34 	bl	82de4 <uart_emergency_output>
   83118:	f0007c00 	adrp	x0, 1006000 <g_uart_base>
   8311c:	f9400000 	ldr	x0, [x0]
   83120:	97ffff64 	bl	82eb0 <uart_emergency_hex64>
   83124:	528001a0 	mov	w0, #0xd                   	// #13
   83128:	97ffff2f 	bl	82de4 <uart_emergency_output>
   8312c:	52800140 	mov	w0, #0xa                   	// #10
   83130:	97ffff2d 	bl	82de4 <uart_emergency_output>
   83134:	52800001 	mov	w1, #0x0                   	// #0
   83138:	90007c22 	adrp	x2, 1007000 <mmu_msg>
   8313c:	91000042 	add	x2, x2, #0x0
   83140:	91010042 	add	x2, x2, #0x40
   83144:	3821c85f 	strb	wzr, [x2, w1, sxtw]
   83148:	11000421 	add	w1, w1, #0x1
   8314c:	7104003f 	cmp	w1, #0x100
   83150:	54ffffa1 	b.ne	83144 <uart_puts_late+0x4c>  // b.any
   83154:	d2800001 	mov	x1, #0x0                   	// #0
   83158:	90007c23 	adrp	x3, 1007000 <mmu_msg>
   8315c:	91000063 	add	x3, x3, #0x0
   83160:	91010063 	add	x3, x3, #0x40
   83164:	2a0103e2 	mov	w2, w1
   83168:	38616a80 	ldrb	w0, [x20, x1]
   8316c:	34000120 	cbz	w0, 83190 <uart_puts_late+0x98>
   83170:	93407c22 	sxtw	x2, w1
   83174:	38226860 	strb	w0, [x3, x2]
   83178:	91000420 	add	x0, x1, #0x1
   8317c:	f103f83f 	cmp	x1, #0xfe
   83180:	54000060 	b.eq	8318c <uart_puts_late+0x94>  // b.none
   83184:	aa0003e1 	mov	x1, x0
   83188:	17fffff7 	b	83164 <uart_puts_late+0x6c>
   8318c:	11000422 	add	w2, w1, #0x1
   83190:	90007c21 	adrp	x1, 1007000 <mmu_msg>
   83194:	91000021 	add	x1, x1, #0x0
   83198:	91010023 	add	x3, x1, #0x40
   8319c:	3822c87f 	strb	wzr, [x3, w2, sxtw]
   831a0:	d5033b9f 	dsb	ish
   831a4:	aa0303e0 	mov	x0, x3
   831a8:	91050021 	add	x1, x1, #0x140
   831ac:	b104047f 	cmn	x3, #0x101
   831b0:	54000148 	b.hi	831d8 <uart_puts_late+0xe0>  // b.pmore
   831b4:	91010063 	add	x3, x3, #0x40
   831b8:	eb03003f 	cmp	x1, x3
   831bc:	d2800081 	mov	x1, #0x4                   	// #4
   831c0:	9a9f2421 	csinc	x1, x1, xzr, cs	// cs = hs, nlast
   831c4:	d5087620 	dc	ivac, x0
   831c8:	d50b7a20 	dc	cvac, x0
   831cc:	91010000 	add	x0, x0, #0x40
   831d0:	f1000421 	subs	x1, x1, #0x1
   831d4:	54ffff81 	b.ne	831c4 <uart_puts_late+0xcc>  // b.any
   831d8:	d5033b9f 	dsb	ish
   831dc:	d5033fdf 	isb
   831e0:	52800013 	mov	w19, #0x0                   	// #0
   831e4:	90007c35 	adrp	x21, 1007000 <mmu_msg>
   831e8:	910002b5 	add	x21, x21, #0x0
   831ec:	910102b5 	add	x21, x21, #0x40
   831f0:	528001b6 	mov	w22, #0xd                   	// #13
   831f4:	14000006 	b	8320c <uart_puts_late+0x114>
   831f8:	3873caa0 	ldrb	w0, [x21, w19, sxtw]
   831fc:	97fffe81 	bl	82c00 <uart_putc_late>
   83200:	11000673 	add	w19, w19, #0x1
   83204:	7103fe7f 	cmp	w19, #0xff
   83208:	540002a0 	b.eq	8325c <uart_puts_late+0x164>  // b.none
   8320c:	3873caa1 	ldrb	w1, [x21, w19, sxtw]
   83210:	12001c21 	and	w1, w1, #0xff
   83214:	34000101 	cbz	w1, 83234 <uart_puts_late+0x13c>
   83218:	3873caa1 	ldrb	w1, [x21, w19, sxtw]
   8321c:	12001c21 	and	w1, w1, #0xff
   83220:	7100283f 	cmp	w1, #0xa
   83224:	54fffea1 	b.ne	831f8 <uart_puts_late+0x100>  // b.any
   83228:	2a1603e0 	mov	w0, w22
   8322c:	97fffe75 	bl	82c00 <uart_putc_late>
   83230:	17fffff2 	b	831f8 <uart_puts_late+0x100>
   83234:	71000e7f 	cmp	w19, #0x3
   83238:	5400012c 	b.gt	8325c <uart_puts_late+0x164>
   8323c:	39400280 	ldrb	w0, [x20]
   83240:	340000e0 	cbz	w0, 8325c <uart_puts_late+0x164>
   83244:	39400680 	ldrb	w0, [x20, #1]
   83248:	340000a0 	cbz	w0, 8325c <uart_puts_late+0x164>
   8324c:	39400a80 	ldrb	w0, [x20, #2]
   83250:	34000060 	cbz	w0, 8325c <uart_puts_late+0x164>
   83254:	39400e80 	ldrb	w0, [x20, #3]
   83258:	350000a0 	cbnz	w0, 8326c <uart_puts_late+0x174>
   8325c:	a94153f3 	ldp	x19, x20, [sp, #16]
   83260:	a9425bf5 	ldp	x21, x22, [sp, #32]
   83264:	a8c37bfd 	ldp	x29, x30, [sp], #48
   83268:	d65f03c0 	ret
   8326c:	528008c0 	mov	w0, #0x46                  	// #70
   83270:	97fffe8f 	bl	82cac <uart_debug_marker_late>
   83274:	aa1403e0 	mov	x0, x20
   83278:	97fffee8 	bl	82e18 <uart_emergency_puts>
   8327c:	17fffff8 	b	8325c <uart_puts_late+0x164>
   83280:	d65f03c0 	ret

0000000000083284 <uart_puts_with_fallback>:
   83284:	b40000e0 	cbz	x0, 832a0 <uart_puts_with_fallback+0x1c>
   83288:	a9bf7bfd 	stp	x29, x30, [sp, #-16]!
   8328c:	910003fd 	mov	x29, sp
   83290:	97ffff9a 	bl	830f8 <uart_puts_late>
   83294:	52800020 	mov	w0, #0x1                   	// #1
   83298:	a8c17bfd 	ldp	x29, x30, [sp], #16
   8329c:	d65f03c0 	ret
   832a0:	52800000 	mov	w0, #0x0                   	// #0
   832a4:	d65f03c0 	ret

00000000000832a8 <uart_test_virt_mapping>:
   832a8:	a9be7bfd 	stp	x29, x30, [sp, #-32]!
   832ac:	910003fd 	mov	x29, sp
   832b0:	a90153f3 	stp	x19, x20, [sp, #16]
   832b4:	f0007be0 	adrp	x0, 1002000 <hex_chars.0+0xff8>
   832b8:	910f0000 	add	x0, x0, #0x3c0
   832bc:	97ffff8f 	bl	830f8 <uart_puts_late>
   832c0:	f0007be0 	adrp	x0, 1002000 <hex_chars.0+0xff8>
   832c4:	910fa000 	add	x0, x0, #0x3e8
   832c8:	97ffff8c 	bl	830f8 <uart_puts_late>
   832cc:	f0007be0 	adrp	x0, 1002000 <hex_chars.0+0xff8>
   832d0:	9110a000 	add	x0, x0, #0x428
   832d4:	97ffff89 	bl	830f8 <uart_puts_late>
   832d8:	d2a12000 	mov	x0, #0x9000000             	// #150994944
   832dc:	f2ffffe0 	movk	x0, #0xffff, lsl #48
   832e0:	97fffe4f 	bl	82c1c <uart_hex64_late>
   832e4:	d0007bf4 	adrp	x20, 1001000 <GLOBAL_UART>
   832e8:	91228294 	add	x20, x20, #0x8a0
   832ec:	aa1403e0 	mov	x0, x20
   832f0:	97ffff82 	bl	830f8 <uart_puts_late>
   832f4:	f0007be0 	adrp	x0, 1002000 <hex_chars.0+0xff8>
   832f8:	91112000 	add	x0, x0, #0x448
   832fc:	97ffff7f 	bl	830f8 <uart_puts_late>
   83300:	f0007c13 	adrp	x19, 1006000 <g_uart_base>
   83304:	f9400260 	ldr	x0, [x19]
   83308:	97fffe45 	bl	82c1c <uart_hex64_late>
   8330c:	aa1403e0 	mov	x0, x20
   83310:	97ffff7a 	bl	830f8 <uart_puts_late>
   83314:	f9400260 	ldr	x0, [x19]
   83318:	52800881 	mov	w1, #0x44                  	// #68
   8331c:	b9000001 	str	w1, [x0]
   83320:	f9400260 	ldr	x0, [x19]
   83324:	52800921 	mov	w1, #0x49                  	// #73
   83328:	b9000001 	str	w1, [x0]
   8332c:	f9400260 	ldr	x0, [x19]
   83330:	52800a41 	mov	w1, #0x52                  	// #82
   83334:	b9000001 	str	w1, [x0]
   83338:	f9400260 	ldr	x0, [x19]
   8333c:	528001a1 	mov	w1, #0xd                   	// #13
   83340:	b9000001 	str	w1, [x0]
   83344:	f9400260 	ldr	x0, [x19]
   83348:	52800141 	mov	w1, #0xa                   	// #10
   8334c:	b9000001 	str	w1, [x0]
   83350:	a94153f3 	ldp	x19, x20, [sp, #16]
   83354:	a8c27bfd 	ldp	x29, x30, [sp], #32
   83358:	d65f03c0 	ret

000000000008335c <uart_init>:
   8335c:	a9bf7bfd 	stp	x29, x30, [sp, #-16]!
   83360:	910003fd 	mov	x29, sp
   83364:	d2800000 	mov	x0, #0x0                   	// #0
   83368:	97fffda8 	bl	82a08 <uart_init_early>
   8336c:	a8c17bfd 	ldp	x29, x30, [sp], #16
   83370:	d65f03c0 	ret

0000000000083374 <uart_putc>:
   83374:	a9bf7bfd 	stp	x29, x30, [sp, #-16]!
   83378:	910003fd 	mov	x29, sp
   8337c:	12001c00 	and	w0, w0, #0xff
   83380:	d5381001 	mrs	x1, sctlr_el1
   83384:	36000081 	tbz	w1, #0, 83394 <uart_putc+0x20>
   83388:	97fffe1e 	bl	82c00 <uart_putc_late>
   8338c:	a8c17bfd 	ldp	x29, x30, [sp], #16
   83390:	d65f03c0 	ret
   83394:	97fffd25 	bl	82828 <uart_putc_early>
   83398:	17fffffd 	b	8338c <uart_putc+0x18>

000000000008339c <uart_puts>:
   8339c:	b4000140 	cbz	x0, 833c4 <uart_puts+0x28>
   833a0:	a9bf7bfd 	stp	x29, x30, [sp, #-16]!
   833a4:	910003fd 	mov	x29, sp
   833a8:	d5381001 	mrs	x1, sctlr_el1
   833ac:	36000081 	tbz	w1, #0, 833bc <uart_puts+0x20>
   833b0:	97ffff52 	bl	830f8 <uart_puts_late>
   833b4:	a8c17bfd 	ldp	x29, x30, [sp], #16
   833b8:	d65f03c0 	ret
   833bc:	97fffd23 	bl	82848 <uart_puts_early>
   833c0:	17fffffd 	b	833b4 <uart_puts+0x18>
   833c4:	d65f03c0 	ret

00000000000833c8 <uart_hex64>:
   833c8:	a9bf7bfd 	stp	x29, x30, [sp, #-16]!
   833cc:	910003fd 	mov	x29, sp
   833d0:	d5381001 	mrs	x1, sctlr_el1
   833d4:	36000081 	tbz	w1, #0, 833e4 <uart_hex64+0x1c>
   833d8:	97fffe11 	bl	82c1c <uart_hex64_late>
   833dc:	a8c17bfd 	ldp	x29, x30, [sp], #16
   833e0:	d65f03c0 	ret
   833e4:	97fffd2f 	bl	828a0 <uart_hex64_early>
   833e8:	17fffffd 	b	833dc <uart_hex64+0x14>

00000000000833ec <uart_puthex>:
   833ec:	a9be7bfd 	stp	x29, x30, [sp, #-32]!
   833f0:	910003fd 	mov	x29, sp
   833f4:	a90153f3 	stp	x19, x20, [sp, #16]
   833f8:	aa0003f4 	mov	x20, x0
   833fc:	d5381000 	mrs	x0, sctlr_el1
   83400:	36000260 	tbz	w0, #0, 8344c <uart_puthex+0x60>
   83404:	52800600 	mov	w0, #0x30                  	// #48
   83408:	97fffdfe 	bl	82c00 <uart_putc_late>
   8340c:	52800f00 	mov	w0, #0x78                  	// #120
   83410:	97fffdfc 	bl	82c00 <uart_putc_late>
   83414:	52800393 	mov	w19, #0x1c                  	// #28
   83418:	14000006 	b	83430 <uart_puthex+0x44>
   8341c:	11015c20 	add	w0, w1, #0x57
   83420:	97fffdf8 	bl	82c00 <uart_putc_late>
   83424:	51001273 	sub	w19, w19, #0x4
   83428:	3100127f 	cmn	w19, #0x4
   8342c:	54000340 	b.eq	83494 <uart_puthex+0xa8>  // b.none
   83430:	9ad32681 	lsr	x1, x20, x19
   83434:	12000c21 	and	w1, w1, #0xf
   83438:	7100243f 	cmp	w1, #0x9
   8343c:	54ffff08 	b.hi	8341c <uart_puthex+0x30>  // b.pmore
   83440:	1100c020 	add	w0, w1, #0x30
   83444:	97fffdef 	bl	82c00 <uart_putc_late>
   83448:	17fffff7 	b	83424 <uart_puthex+0x38>
   8344c:	52800600 	mov	w0, #0x30                  	// #48
   83450:	97fffcf6 	bl	82828 <uart_putc_early>
   83454:	52800f00 	mov	w0, #0x78                  	// #120
   83458:	97fffcf4 	bl	82828 <uart_putc_early>
   8345c:	52800393 	mov	w19, #0x1c                  	// #28
   83460:	14000006 	b	83478 <uart_puthex+0x8c>
   83464:	11015c20 	add	w0, w1, #0x57
   83468:	97fffcf0 	bl	82828 <uart_putc_early>
   8346c:	51001273 	sub	w19, w19, #0x4
   83470:	3100127f 	cmn	w19, #0x4
   83474:	54000100 	b.eq	83494 <uart_puthex+0xa8>  // b.none
   83478:	9ad32681 	lsr	x1, x20, x19
   8347c:	12000c21 	and	w1, w1, #0xf
   83480:	7100243f 	cmp	w1, #0x9
   83484:	54ffff08 	b.hi	83464 <uart_puthex+0x78>  // b.pmore
   83488:	1100c020 	add	w0, w1, #0x30
   8348c:	97fffce7 	bl	82828 <uart_putc_early>
   83490:	17fffff7 	b	8346c <uart_puthex+0x80>
   83494:	a94153f3 	ldp	x19, x20, [sp, #16]
   83498:	a8c27bfd 	ldp	x29, x30, [sp], #32
   8349c:	d65f03c0 	ret

00000000000834a0 <uart_print_hex>:
   834a0:	a9be7bfd 	stp	x29, x30, [sp, #-32]!
   834a4:	910003fd 	mov	x29, sp
   834a8:	a90153f3 	stp	x19, x20, [sp, #16]
   834ac:	aa0003f4 	mov	x20, x0
   834b0:	d5381000 	mrs	x0, sctlr_el1
   834b4:	360001e0 	tbz	w0, #0, 834f0 <uart_print_hex+0x50>
   834b8:	52800793 	mov	w19, #0x3c                  	// #60
   834bc:	9ad32681 	lsr	x1, x20, x19
   834c0:	12000c21 	and	w1, w1, #0xf
   834c4:	1100c020 	add	w0, w1, #0x30
   834c8:	1100dc22 	add	w2, w1, #0x37
   834cc:	7100243f 	cmp	w1, #0x9
   834d0:	1a808040 	csel	w0, w2, w0, hi	// hi = pmore
   834d4:	97fffdcb 	bl	82c00 <uart_putc_late>
   834d8:	51001273 	sub	w19, w19, #0x4
   834dc:	3100127f 	cmn	w19, #0x4
   834e0:	54fffee1 	b.ne	834bc <uart_print_hex+0x1c>  // b.any
   834e4:	a94153f3 	ldp	x19, x20, [sp, #16]
   834e8:	a8c27bfd 	ldp	x29, x30, [sp], #32
   834ec:	d65f03c0 	ret
   834f0:	52800793 	mov	w19, #0x3c                  	// #60
   834f4:	9ad32681 	lsr	x1, x20, x19
   834f8:	12000c21 	and	w1, w1, #0xf
   834fc:	1100c020 	add	w0, w1, #0x30
   83500:	1100dc22 	add	w2, w1, #0x37
   83504:	7100243f 	cmp	w1, #0x9
   83508:	1a808040 	csel	w0, w2, w0, hi	// hi = pmore
   8350c:	97fffcc7 	bl	82828 <uart_putc_early>
   83510:	51001273 	sub	w19, w19, #0x4
   83514:	3100127f 	cmn	w19, #0x4
   83518:	54fffee1 	b.ne	834f4 <uart_print_hex+0x54>  // b.any
   8351c:	17fffff2 	b	834e4 <uart_print_hex+0x44>

0000000000083520 <uart_putx>:
   83520:	a9be7bfd 	stp	x29, x30, [sp, #-32]!
   83524:	910003fd 	mov	x29, sp
   83528:	a90153f3 	stp	x19, x20, [sp, #16]
   8352c:	aa0003f4 	mov	x20, x0
   83530:	d5381000 	mrs	x0, sctlr_el1
   83534:	360001e0 	tbz	w0, #0, 83570 <uart_putx+0x50>
   83538:	52800393 	mov	w19, #0x1c                  	// #28
   8353c:	9ad32681 	lsr	x1, x20, x19
   83540:	12000c21 	and	w1, w1, #0xf
   83544:	1100c020 	add	w0, w1, #0x30
   83548:	1100dc22 	add	w2, w1, #0x37
   8354c:	7100243f 	cmp	w1, #0x9
   83550:	1a808040 	csel	w0, w2, w0, hi	// hi = pmore
   83554:	97fffdab 	bl	82c00 <uart_putc_late>
   83558:	51001273 	sub	w19, w19, #0x4
   8355c:	3100127f 	cmn	w19, #0x4
   83560:	54fffee1 	b.ne	8353c <uart_putx+0x1c>  // b.any
   83564:	a94153f3 	ldp	x19, x20, [sp, #16]
   83568:	a8c27bfd 	ldp	x29, x30, [sp], #32
   8356c:	d65f03c0 	ret
   83570:	52800393 	mov	w19, #0x1c                  	// #28
   83574:	9ad32681 	lsr	x1, x20, x19
   83578:	12000c21 	and	w1, w1, #0xf
   8357c:	1100c020 	add	w0, w1, #0x30
   83580:	1100dc22 	add	w2, w1, #0x37
   83584:	7100243f 	cmp	w1, #0x9
   83588:	1a808040 	csel	w0, w2, w0, hi	// hi = pmore
   8358c:	97fffca7 	bl	82828 <uart_putc_early>
   83590:	51001273 	sub	w19, w19, #0x4
   83594:	3100127f 	cmn	w19, #0x4
   83598:	54fffee1 	b.ne	83574 <uart_putx+0x54>  // b.any
   8359c:	17fffff2 	b	83564 <uart_putx+0x44>

00000000000835a0 <uart_putc_raw>:
   835a0:	a9bf7bfd 	stp	x29, x30, [sp, #-16]!
   835a4:	910003fd 	mov	x29, sp
   835a8:	97fffca0 	bl	82828 <uart_putc_early>
   835ac:	a8c17bfd 	ldp	x29, x30, [sp], #16
   835b0:	d65f03c0 	ret

00000000000835b4 <uart_panic>:
   835b4:	a9be7bfd 	stp	x29, x30, [sp, #-32]!
   835b8:	910003fd 	mov	x29, sp
   835bc:	f9000bf3 	str	x19, [sp, #16]
   835c0:	aa0003f3 	mov	x19, x0
   835c4:	f0007be0 	adrp	x0, 1002000 <hex_chars.0+0xff8>
   835c8:	9111a000 	add	x0, x0, #0x468
   835cc:	97fffc9f 	bl	82848 <uart_puts_early>
   835d0:	b40000f3 	cbz	x19, 835ec <uart_panic+0x38>
   835d4:	aa1303e0 	mov	x0, x19
   835d8:	97fffc9c 	bl	82848 <uart_puts_early>
   835dc:	f0007be0 	adrp	x0, 1002000 <hex_chars.0+0xff8>
   835e0:	91122000 	add	x0, x0, #0x488
   835e4:	97fffc99 	bl	82848 <uart_puts_early>
   835e8:	14000000 	b	835e8 <uart_panic+0x34>
   835ec:	f0007be0 	adrp	x0, 1002000 <hex_chars.0+0xff8>
   835f0:	9111e000 	add	x0, x0, #0x478
   835f4:	97fffc95 	bl	82848 <uart_puts_early>
   835f8:	17fffff9 	b	835dc <uart_panic+0x28>

00000000000835fc <uart_set_base>:
   835fc:	a9bf7bfd 	stp	x29, x30, [sp, #-16]!
   83600:	910003fd 	mov	x29, sp
   83604:	d5033f9f 	dsb	sy
   83608:	d5033fdf 	isb
   8360c:	f0007c01 	adrp	x1, 1006000 <g_uart_base>
   83610:	f9000020 	str	x0, [x1]
   83614:	97fffd55 	bl	82b68 <uart_set_mmu_enabled>
   83618:	d5033f9f 	dsb	sy
   8361c:	d5033fdf 	isb
   83620:	a8c17bfd 	ldp	x29, x30, [sp], #16
   83624:	d65f03c0 	ret

0000000000083628 <memset>:
   83628:	b40000c2 	cbz	x2, 83640 <memset+0x18>
   8362c:	8b020003 	add	x3, x0, x2
   83630:	aa0003e2 	mov	x2, x0
   83634:	38001441 	strb	w1, [x2], #1
   83638:	eb02007f 	cmp	x3, x2
   8363c:	54ffffc1 	b.ne	83634 <memset+0xc>  // b.any
   83640:	d65f03c0 	ret

0000000000083644 <memcpy>:
   83644:	b40000e2 	cbz	x2, 83660 <memcpy+0x1c>
   83648:	d2800003 	mov	x3, #0x0                   	// #0
   8364c:	38636824 	ldrb	w4, [x1, x3]
   83650:	38236804 	strb	w4, [x0, x3]
   83654:	91000463 	add	x3, x3, #0x1
   83658:	eb02007f 	cmp	x3, x2
   8365c:	54ffff81 	b.ne	8364c <memcpy+0x8>  // b.any
   83660:	d65f03c0 	ret

0000000000083664 <memcmp>:
   83664:	b40001a2 	cbz	x2, 83698 <memcmp+0x34>
   83668:	d2800003 	mov	x3, #0x0                   	// #0
   8366c:	38636804 	ldrb	w4, [x0, x3]
   83670:	38636825 	ldrb	w5, [x1, x3]
   83674:	6b05009f 	cmp	w4, w5
   83678:	540000c1 	b.ne	83690 <memcmp+0x2c>  // b.any
   8367c:	91000463 	add	x3, x3, #0x1
   83680:	eb03005f 	cmp	x2, x3
   83684:	54ffff41 	b.ne	8366c <memcmp+0x8>  // b.any
   83688:	52800000 	mov	w0, #0x0                   	// #0
   8368c:	14000002 	b	83694 <memcmp+0x30>
   83690:	4b050080 	sub	w0, w4, w5
   83694:	d65f03c0 	ret
   83698:	52800000 	mov	w0, #0x0                   	// #0
   8369c:	17fffffe 	b	83694 <memcmp+0x30>

00000000000836a0 <test_uart_string_early>:
   836a0:	a9bc7bfd 	stp	x29, x30, [sp, #-64]!
   836a4:	910003fd 	mov	x29, sp
   836a8:	f9000bf3 	str	x19, [sp, #16]
   836ac:	f0007be0 	adrp	x0, 1002000 <hex_chars.0+0xff8>
   836b0:	91124000 	add	x0, x0, #0x490
   836b4:	97fffc65 	bl	82848 <uart_puts_early>
   836b8:	f0007be0 	adrp	x0, 1002000 <hex_chars.0+0xff8>
   836bc:	91130000 	add	x0, x0, #0x4c0
   836c0:	97fffc62 	bl	82848 <uart_puts_early>
   836c4:	f0007be0 	adrp	x0, 1002000 <hex_chars.0+0xff8>
   836c8:	91136000 	add	x0, x0, #0x4d8
   836cc:	97fffc5f 	bl	82848 <uart_puts_early>
   836d0:	f0007be0 	adrp	x0, 1002000 <hex_chars.0+0xff8>
   836d4:	91160000 	add	x0, x0, #0x580
   836d8:	910083f3 	add	x19, sp, #0x20
   836dc:	3dc0001e 	ldr	q30, [x0]
   836e0:	3cc0c01f 	ldur	q31, [x0, #12]
   836e4:	3d800bfe 	str	q30, [sp, #32]
   836e8:	3c82c3ff 	stur	q31, [sp, #44]
   836ec:	f0007be0 	adrp	x0, 1002000 <hex_chars.0+0xff8>
   836f0:	91140000 	add	x0, x0, #0x500
   836f4:	97fffc55 	bl	82848 <uart_puts_early>
   836f8:	aa1303e0 	mov	x0, x19
   836fc:	97fffc53 	bl	82848 <uart_puts_early>
   83700:	f0007be0 	adrp	x0, 1002000 <hex_chars.0+0xff8>
   83704:	91146000 	add	x0, x0, #0x518
   83708:	97fffc50 	bl	82848 <uart_puts_early>
   8370c:	f0007be0 	adrp	x0, 1002000 <hex_chars.0+0xff8>
   83710:	91156000 	add	x0, x0, #0x558
   83714:	97fffc4d 	bl	82848 <uart_puts_early>
   83718:	f9400bf3 	ldr	x19, [sp, #16]
   8371c:	a8c47bfd 	ldp	x29, x30, [sp], #64
   83720:	d65f03c0 	ret

0000000000083724 <test_uart_string_late>:
   83724:	a9bb7bfd 	stp	x29, x30, [sp, #-80]!
   83728:	910003fd 	mov	x29, sp
   8372c:	f9000bf3 	str	x19, [sp, #16]
   83730:	f0007be0 	adrp	x0, 1002000 <hex_chars.0+0xff8>
   83734:	91168000 	add	x0, x0, #0x5a0
   83738:	97fffe70 	bl	830f8 <uart_puts_late>
   8373c:	f0007be0 	adrp	x0, 1002000 <hex_chars.0+0xff8>
   83740:	91130000 	add	x0, x0, #0x4c0
   83744:	97fffe6d 	bl	830f8 <uart_puts_late>
   83748:	f0007be0 	adrp	x0, 1002000 <hex_chars.0+0xff8>
   8374c:	91136000 	add	x0, x0, #0x4d8
   83750:	97fffe6a 	bl	830f8 <uart_puts_late>
   83754:	f0007be0 	adrp	x0, 1002000 <hex_chars.0+0xff8>
   83758:	911ba000 	add	x0, x0, #0x6e8
   8375c:	9100a3f3 	add	x19, sp, #0x28
   83760:	ad407c1e 	ldp	q30, q31, [x0]
   83764:	f841f000 	ldur	x0, [x0, #31]
   83768:	3c8283fe 	stur	q30, [sp, #40]
   8376c:	3c8383ff 	stur	q31, [sp, #56]
   83770:	f80473e0 	stur	x0, [sp, #71]
   83774:	f0007be0 	adrp	x0, 1002000 <hex_chars.0+0xff8>
   83778:	91174000 	add	x0, x0, #0x5d0
   8377c:	97fffe5f 	bl	830f8 <uart_puts_late>
   83780:	aa1303e0 	mov	x0, x19
   83784:	97fffe5d 	bl	830f8 <uart_puts_late>
   83788:	f0007be0 	adrp	x0, 1002000 <hex_chars.0+0xff8>
   8378c:	91146000 	add	x0, x0, #0x518
   83790:	97fffe5a 	bl	830f8 <uart_puts_late>
   83794:	f0007be0 	adrp	x0, 1002000 <hex_chars.0+0xff8>
   83798:	9117c000 	add	x0, x0, #0x5f0
   8379c:	97fffe57 	bl	830f8 <uart_puts_late>
   837a0:	f0007be0 	adrp	x0, 1002000 <hex_chars.0+0xff8>
   837a4:	911b0000 	add	x0, x0, #0x6c0
   837a8:	97fffe54 	bl	830f8 <uart_puts_late>
   837ac:	f9400bf3 	ldr	x19, [sp, #16]
   837b0:	a8c57bfd 	ldp	x29, x30, [sp], #80
   837b4:	d65f03c0 	ret

00000000000837b8 <test_uart_string_all>:
   837b8:	a9bf7bfd 	stp	x29, x30, [sp, #-16]!
   837bc:	910003fd 	mov	x29, sp
   837c0:	90007c20 	adrp	x0, 1007000 <mmu_msg>
   837c4:	b9424000 	ldr	w0, [x0, #576]
   837c8:	34000080 	cbz	w0, 837d8 <test_uart_string_all+0x20>
   837cc:	97ffffd6 	bl	83724 <test_uart_string_late>
   837d0:	a8c17bfd 	ldp	x29, x30, [sp], #16
   837d4:	d65f03c0 	ret
   837d8:	97ffffb2 	bl	836a0 <test_uart_string_early>
   837dc:	17fffffd 	b	837d0 <test_uart_string_all+0x18>

00000000000837e0 <is_page_used>:
   837e0:	b26287e1 	mov	x1, #0xffffffffc0000000    	// #-1073741824
   837e4:	8b010000 	add	x0, x0, x1
   837e8:	b2406be1 	mov	x1, #0x7ffffff             	// #134217727
   837ec:	eb01001f 	cmp	x0, x1
   837f0:	54000128 	b.hi	83814 <is_page_used+0x34>  // b.pmore
   837f4:	d34ffc01 	lsr	x1, x0, #15
   837f8:	90007c22 	adrp	x2, 1007000 <mmu_msg>
   837fc:	f9412442 	ldr	x2, [x2, #584]
   83800:	38616841 	ldrb	w1, [x2, x1]
   83804:	530c3800 	ubfx	w0, w0, #12, #3
   83808:	1ac02820 	asr	w0, w1, w0
   8380c:	12000000 	and	w0, w0, #0x1
   83810:	d65f03c0 	ret
   83814:	52800020 	mov	w0, #0x1                   	// #1
   83818:	17fffffe 	b	83810 <is_page_used+0x30>

000000000008381c <pmm_strcmp>:
   8381c:	39400002 	ldrb	w2, [x0]
   83820:	340000e2 	cbz	w2, 8383c <pmm_strcmp+0x20>
   83824:	39400023 	ldrb	w3, [x1]
   83828:	6b02007f 	cmp	w3, w2
   8382c:	54000081 	b.ne	8383c <pmm_strcmp+0x20>  // b.any
   83830:	91000421 	add	x1, x1, #0x1
   83834:	38401c02 	ldrb	w2, [x0, #1]!
   83838:	35ffff62 	cbnz	w2, 83824 <pmm_strcmp+0x8>
   8383c:	39400020 	ldrb	w0, [x1]
   83840:	4b000040 	sub	w0, w2, w0
   83844:	d65f03c0 	ret

0000000000083848 <set_page_bit>:
   83848:	a9bc7bfd 	stp	x29, x30, [sp, #-64]!
   8384c:	910003fd 	mov	x29, sp
   83850:	a90153f3 	stp	x19, x20, [sp, #16]
   83854:	aa0003f4 	mov	x20, x0
   83858:	b26287e2 	mov	x2, #0xffffffffc0000000    	// #-1073741824
   8385c:	8b020002 	add	x2, x0, x2
   83860:	b2406be0 	mov	x0, #0x7ffffff             	// #134217727
   83864:	eb00005f 	cmp	x2, x0
   83868:	54000348 	b.hi	838d0 <set_page_bit+0x88>  // b.pmore
   8386c:	a9025bf5 	stp	x21, x22, [sp, #32]
   83870:	f9001bf7 	str	x23, [sp, #48]
   83874:	2a0103f6 	mov	w22, w1
   83878:	d34cfc55 	lsr	x21, x2, #12
   8387c:	d34ffc53 	lsr	x19, x2, #15
   83880:	12000ab7 	and	w23, w21, #0x7
   83884:	90007c20 	adrp	x0, 1007000 <mmu_msg>
   83888:	f9412800 	ldr	x0, [x0, #592]
   8388c:	91001c00 	add	x0, x0, #0x7
   83890:	eb400e7f 	cmp	x19, x0, lsr #3
   83894:	54000242 	b.cs	838dc <set_page_bit+0x94>  // b.hs, b.nlast
   83898:	d10022a1 	sub	x1, x21, #0x8
   8389c:	b27c37e0 	mov	x0, #0x3fff0               	// #262128
   838a0:	eb00003f 	cmp	x1, x0
   838a4:	540003e8 	b.hi	83920 <set_page_bit+0xd8>  // b.pmore
   838a8:	34000676 	cbz	w22, 83974 <set_page_bit+0x12c>
   838ac:	90007c20 	adrp	x0, 1007000 <mmu_msg>
   838b0:	f9412401 	ldr	x1, [x0, #584]
   838b4:	52800020 	mov	w0, #0x1                   	// #1
   838b8:	1ad72000 	lsl	w0, w0, w23
   838bc:	38736822 	ldrb	w2, [x1, x19]
   838c0:	2a020000 	orr	w0, w0, w2
   838c4:	38336820 	strb	w0, [x1, x19]
   838c8:	a9425bf5 	ldp	x21, x22, [sp, #32]
   838cc:	f9401bf7 	ldr	x23, [sp, #48]
   838d0:	a94153f3 	ldp	x19, x20, [sp, #16]
   838d4:	a8c47bfd 	ldp	x29, x30, [sp], #64
   838d8:	d65f03c0 	ret
   838dc:	52800b00 	mov	w0, #0x58                  	// #88
   838e0:	97fffea5 	bl	83374 <uart_putc>
   838e4:	aa1303e1 	mov	x1, x19
   838e8:	f0007be0 	adrp	x0, 1002000 <hex_chars.0+0xff8>
   838ec:	911c4000 	add	x0, x0, #0x710
   838f0:	97fff5fb 	bl	810dc <debug_hex64>
   838f4:	aa1403e1 	mov	x1, x20
   838f8:	f0007be0 	adrp	x0, 1002000 <hex_chars.0+0xff8>
   838fc:	911d0000 	add	x0, x0, #0x740
   83900:	97fff5f7 	bl	810dc <debug_hex64>
   83904:	aa1503e1 	mov	x1, x21
   83908:	f0007be0 	adrp	x0, 1002000 <hex_chars.0+0xff8>
   8390c:	911ca000 	add	x0, x0, #0x728
   83910:	97fff5f3 	bl	810dc <debug_hex64>
   83914:	a9425bf5 	ldp	x21, x22, [sp, #32]
   83918:	f9401bf7 	ldr	x23, [sp, #48]
   8391c:	17ffffed 	b	838d0 <set_page_bit+0x88>
   83920:	aa1403e1 	mov	x1, x20
   83924:	f0007be0 	adrp	x0, 1002000 <hex_chars.0+0xff8>
   83928:	911ce000 	add	x0, x0, #0x738
   8392c:	97fff5ec 	bl	810dc <debug_hex64>
   83930:	aa1503e1 	mov	x1, x21
   83934:	f0007be0 	adrp	x0, 1002000 <hex_chars.0+0xff8>
   83938:	911d2000 	add	x0, x0, #0x748
   8393c:	97fff5e8 	bl	810dc <debug_hex64>
   83940:	aa1303e1 	mov	x1, x19
   83944:	f0007be0 	adrp	x0, 1002000 <hex_chars.0+0xff8>
   83948:	911d6000 	add	x0, x0, #0x758
   8394c:	97fff5e4 	bl	810dc <debug_hex64>
   83950:	92400ae1 	and	x1, x23, #0x7
   83954:	f0007be0 	adrp	x0, 1002000 <hex_chars.0+0xff8>
   83958:	911da000 	add	x0, x0, #0x768
   8395c:	97fff5e0 	bl	810dc <debug_hex64>
   83960:	93407ec1 	sxtw	x1, w22
   83964:	f0007be0 	adrp	x0, 1002000 <hex_chars.0+0xff8>
   83968:	911de000 	add	x0, x0, #0x778
   8396c:	97fff5dc 	bl	810dc <debug_hex64>
   83970:	17ffffce 	b	838a8 <set_page_bit+0x60>
   83974:	90007c20 	adrp	x0, 1007000 <mmu_msg>
   83978:	f9412401 	ldr	x1, [x0, #584]
   8397c:	52800020 	mov	w0, #0x1                   	// #1
   83980:	1ad72000 	lsl	w0, w0, w23
   83984:	38736822 	ldrb	w2, [x1, x19]
   83988:	0a200040 	bic	w0, w2, w0
   8398c:	38336820 	strb	w0, [x1, x19]
   83990:	a9425bf5 	ldp	x21, x22, [sp, #32]
   83994:	f9401bf7 	ldr	x23, [sp, #48]
   83998:	17ffffce 	b	838d0 <set_page_bit+0x88>

000000000008399c <get_timestamp>:
   8399c:	90007c21 	adrp	x1, 1007000 <mmu_msg>
   839a0:	91092021 	add	x1, x1, #0x248
   839a4:	f9400820 	ldr	x0, [x1, #16]
   839a8:	91000402 	add	x2, x0, #0x1
   839ac:	f9000822 	str	x2, [x1, #16]
   839b0:	d65f03c0 	ret

00000000000839b4 <test_return>:
   839b4:	d2a12009 	mov	x9, #0x9000000             	// #150994944
   839b8:	5280082a 	mov	w10, #0x41                  	// #65
   839bc:	b900012a 	str	w10, [x9]
   839c0:	d65f03c0 	ret
   839c4:	d65f03c0 	ret

00000000000839c8 <reserve_pages_for_page_tables>:
   839c8:	a9bc7bfd 	stp	x29, x30, [sp, #-64]!
   839cc:	910003fd 	mov	x29, sp
   839d0:	a90153f3 	stp	x19, x20, [sp, #16]
   839d4:	a9025bf5 	stp	x21, x22, [sp, #32]
   839d8:	aa0003f5 	mov	x21, x0
   839dc:	b0007c33 	adrp	x19, 1008000 <__kernel_end>
   839e0:	91000273 	add	x19, x19, #0x0
   839e4:	f100001f 	cmp	x0, #0x0
   839e8:	12b70000 	mov	w0, #0x47ffffff            	// #1207959551
   839ec:	fa401262 	ccmp	x19, x0, #0x2, ne	// ne = any
   839f0:	54000268 	b.hi	83a3c <reserve_pages_for_page_tables+0x74>  // b.pmore
   839f4:	f9001bf7 	str	x23, [sp, #48]
   839f8:	d2800014 	mov	x20, #0x0                   	// #0
   839fc:	52800037 	mov	w23, #0x1                   	// #1
   83a00:	aa0003f6 	mov	x22, x0
   83a04:	14000005 	b	83a18 <reserve_pages_for_page_tables+0x50>
   83a08:	91400673 	add	x19, x19, #0x1, lsl #12
   83a0c:	eb16027f 	cmp	x19, x22
   83a10:	fa559282 	ccmp	x20, x21, #0x2, ls	// ls = plast
   83a14:	54000122 	b.cs	83a38 <reserve_pages_for_page_tables+0x70>  // b.hs, b.nlast
   83a18:	aa1303e0 	mov	x0, x19
   83a1c:	97ffff71 	bl	837e0 <is_page_used>
   83a20:	35ffff40 	cbnz	w0, 83a08 <reserve_pages_for_page_tables+0x40>
   83a24:	2a1703e1 	mov	w1, w23
   83a28:	aa1303e0 	mov	x0, x19
   83a2c:	97ffff87 	bl	83848 <set_page_bit>
   83a30:	91000694 	add	x20, x20, #0x1
   83a34:	17fffff5 	b	83a08 <reserve_pages_for_page_tables+0x40>
   83a38:	f9401bf7 	ldr	x23, [sp, #48]
   83a3c:	a94153f3 	ldp	x19, x20, [sp, #16]
   83a40:	a9425bf5 	ldp	x21, x22, [sp, #32]
   83a44:	a8c47bfd 	ldp	x29, x30, [sp], #64
   83a48:	d65f03c0 	ret

0000000000083a4c <pmm_print_memory_map>:
   83a4c:	a9b27bfd 	stp	x29, x30, [sp, #-224]!
   83a50:	910003fd 	mov	x29, sp
   83a54:	a90153f3 	stp	x19, x20, [sp, #16]
   83a58:	a9025bf5 	stp	x21, x22, [sp, #32]
   83a5c:	a90363f7 	stp	x23, x24, [sp, #48]
   83a60:	a9046bf9 	stp	x25, x26, [sp, #64]
   83a64:	a90573fb 	stp	x27, x28, [sp, #80]
   83a68:	f0007be0 	adrp	x0, 1002000 <hex_chars.0+0xff8>
   83a6c:	911e2000 	add	x0, x0, #0x788
   83a70:	97fffe4b 	bl	8339c <uart_puts>
   83a74:	90007c35 	adrp	x21, 1007000 <mmu_msg>
   83a78:	910922b3 	add	x19, x21, #0x248
   83a7c:	f9400661 	ldr	x1, [x19, #8]
   83a80:	f0007be0 	adrp	x0, 1002000 <hex_chars.0+0xff8>
   83a84:	911e8000 	add	x0, x0, #0x7a0
   83a88:	97fff595 	bl	810dc <debug_hex64>
   83a8c:	f9400661 	ldr	x1, [x19, #8]
   83a90:	f9401260 	ldr	x0, [x19, #32]
   83a94:	cb000021 	sub	x1, x1, x0
   83a98:	f0007be0 	adrp	x0, 1002000 <hex_chars.0+0xff8>
   83a9c:	911ec000 	add	x0, x0, #0x7b0
   83aa0:	97fff58f 	bl	810dc <debug_hex64>
   83aa4:	f9401261 	ldr	x1, [x19, #32]
   83aa8:	f0007be0 	adrp	x0, 1002000 <hex_chars.0+0xff8>
   83aac:	911f0000 	add	x0, x0, #0x7c0
   83ab0:	97fff58b 	bl	810dc <debug_hex64>
   83ab4:	f9401661 	ldr	x1, [x19, #40]
   83ab8:	f0007be0 	adrp	x0, 1002000 <hex_chars.0+0xff8>
   83abc:	911f4000 	add	x0, x0, #0x7d0
   83ac0:	97fff587 	bl	810dc <debug_hex64>
   83ac4:	f0007be0 	adrp	x0, 1002000 <hex_chars.0+0xff8>
   83ac8:	911f8000 	add	x0, x0, #0x7e0
   83acc:	97fffe34 	bl	8339c <uart_puts>
   83ad0:	f94126a1 	ldr	x1, [x21, #584]
   83ad4:	f0007be0 	adrp	x0, 1002000 <hex_chars.0+0xff8>
   83ad8:	91200000 	add	x0, x0, #0x800
   83adc:	97fff580 	bl	810dc <debug_hex64>
   83ae0:	f0007be0 	adrp	x0, 1002000 <hex_chars.0+0xff8>
   83ae4:	91204000 	add	x0, x0, #0x810
   83ae8:	97fffe2d 	bl	8339c <uart_puts>
   83aec:	9101e3f4 	add	x20, sp, #0x78
   83af0:	4f00041f 	movi	v31.4s, #0x0
   83af4:	ad007e9f 	stp	q31, q31, [x20]
   83af8:	ad017e9f 	stp	q31, q31, [x20, #32]
   83afc:	ad027e9f 	stp	q31, q31, [x20, #64]
   83b00:	f805d29f 	stur	xzr, [x20, #93]
   83b04:	f940067c 	ldr	x28, [x19, #8]
   83b08:	f94126b6 	ldr	x22, [x21, #584]
   83b0c:	914006c0 	add	x0, x22, #0x1, lsl #12
   83b10:	f90037e0 	str	x0, [sp, #104]
   83b14:	910373fb 	add	x27, sp, #0xdc
   83b18:	d2800015 	mov	x21, #0x0                   	// #0
   83b1c:	d29eb87a 	mov	x26, #0xf5c3                	// #62915
   83b20:	f2ab851a 	movk	x26, #0x5c28, lsl #16
   83b24:	f2d851fa 	movk	x26, #0xc28f, lsl #32
   83b28:	f2e51eba 	movk	x26, #0x28f5, lsl #48
   83b2c:	528008d9 	mov	w25, #0x46                  	// #70
   83b30:	52800838 	mov	w24, #0x41                  	// #65
   83b34:	b2404ff7 	mov	x23, #0xfffff               	// #1048575
   83b38:	14000005 	b	83b4c <pmm_print_memory_map+0x100>
   83b3c:	8b1c02b5 	add	x21, x21, x28
   83b40:	91000694 	add	x20, x20, #0x1
   83b44:	eb1b029f 	cmp	x20, x27
   83b48:	54000320 	b.eq	83bac <pmm_print_memory_map+0x160>  // b.none
   83b4c:	d342feb3 	lsr	x19, x21, #2
   83b50:	9bda7e73 	umulh	x19, x19, x26
   83b54:	d342fe73 	lsr	x19, x19, #2
   83b58:	91410273 	add	x19, x19, #0x40, lsl #12
   83b5c:	d374ce73 	lsl	x19, x19, #12
   83b60:	aa1303e0 	mov	x0, x19
   83b64:	97ffff1f 	bl	837e0 <is_page_used>
   83b68:	7100001f 	cmp	w0, #0x0
   83b6c:	1a980320 	csel	w0, w25, w24, eq	// eq = none
   83b70:	aa1403e1 	mov	x1, x20
   83b74:	39000280 	strb	w0, [x20]
   83b78:	52800960 	mov	w0, #0x4b                  	// #75
   83b7c:	eb17027f 	cmp	x19, x23
   83b80:	54000049 	b.ls	83b88 <pmm_print_memory_map+0x13c>  // b.plast
   83b84:	39400280 	ldrb	w0, [x20]
   83b88:	39000020 	strb	w0, [x1]
   83b8c:	eb1302df 	cmp	x22, x19
   83b90:	54fffd68 	b.hi	83b3c <pmm_print_memory_map+0xf0>  // b.pmore
   83b94:	f94037e0 	ldr	x0, [sp, #104]
   83b98:	eb13001f 	cmp	x0, x19
   83b9c:	54fffd09 	b.ls	83b3c <pmm_print_memory_map+0xf0>  // b.plast
   83ba0:	52800840 	mov	w0, #0x42                  	// #66
   83ba4:	39000020 	strb	w0, [x1]
   83ba8:	17ffffe5 	b	83b3c <pmm_print_memory_map+0xf0>
   83bac:	390373ff 	strb	wzr, [sp, #220]
   83bb0:	9101e3e0 	add	x0, sp, #0x78
   83bb4:	97fffdfa 	bl	8339c <uart_puts>
   83bb8:	f0007be0 	adrp	x0, 1002000 <hex_chars.0+0xff8>
   83bbc:	91210000 	add	x0, x0, #0x840
   83bc0:	97fffdf7 	bl	8339c <uart_puts>
   83bc4:	a94153f3 	ldp	x19, x20, [sp, #16]
   83bc8:	a9425bf5 	ldp	x21, x22, [sp, #32]
   83bcc:	a94363f7 	ldp	x23, x24, [sp, #48]
   83bd0:	a9446bf9 	ldp	x25, x26, [sp, #64]
   83bd4:	a94573fb 	ldp	x27, x28, [sp, #80]
   83bd8:	a8ce7bfd 	ldp	x29, x30, [sp], #224
   83bdc:	d65f03c0 	ret

0000000000083be0 <record_allocation>:
   83be0:	a9bf7bfd 	stp	x29, x30, [sp, #-16]!
   83be4:	910003fd 	mov	x29, sp
   83be8:	97ffff6d 	bl	8399c <get_timestamp>
   83bec:	90007c22 	adrp	x2, 1007000 <mmu_msg>
   83bf0:	91092042 	add	x2, x2, #0x248
   83bf4:	b9403840 	ldr	w0, [x2, #56]
   83bf8:	11000400 	add	w0, w0, #0x1
   83bfc:	6b0003e1 	negs	w1, w0
   83c00:	12001000 	and	w0, w0, #0x1f
   83c04:	12001021 	and	w1, w1, #0x1f
   83c08:	5a814400 	csneg	w0, w0, w1, mi	// mi = first
   83c0c:	b9003840 	str	w0, [x2, #56]
   83c10:	a8c17bfd 	ldp	x29, x30, [sp], #16
   83c14:	d65f03c0 	ret

0000000000083c18 <alloc_page>:
   83c18:	a9bd7bfd 	stp	x29, x30, [sp, #-48]!
   83c1c:	910003fd 	mov	x29, sp
   83c20:	a90153f3 	stp	x19, x20, [sp, #16]
   83c24:	f90013f5 	str	x21, [sp, #32]
   83c28:	90007c20 	adrp	x0, 1007000 <mmu_msg>
   83c2c:	f9412815 	ldr	x21, [x0, #592]
   83c30:	b4000155 	cbz	x21, 83c58 <alloc_page+0x40>
   83c34:	d2a80013 	mov	x19, #0x40000000            	// #1073741824
   83c38:	d2800014 	mov	x20, #0x0                   	// #0
   83c3c:	aa1303e0 	mov	x0, x19
   83c40:	97fffee8 	bl	837e0 <is_page_used>
   83c44:	34000260 	cbz	w0, 83c90 <alloc_page+0x78>
   83c48:	91000694 	add	x20, x20, #0x1
   83c4c:	91400673 	add	x19, x19, #0x1, lsl #12
   83c50:	eb15029f 	cmp	x20, x21
   83c54:	54ffff41 	b.ne	83c3c <alloc_page+0x24>  // b.any
   83c58:	f0007be0 	adrp	x0, 1002000 <hex_chars.0+0xff8>
   83c5c:	91220000 	add	x0, x0, #0x880
   83c60:	97fffdcf 	bl	8339c <uart_puts>
   83c64:	90007c20 	adrp	x0, 1007000 <mmu_msg>
   83c68:	91092000 	add	x0, x0, #0x248
   83c6c:	f9401801 	ldr	x1, [x0, #48]
   83c70:	91000421 	add	x1, x1, #0x1
   83c74:	f9001801 	str	x1, [x0, #48]
   83c78:	d2800014 	mov	x20, #0x0                   	// #0
   83c7c:	aa1403e0 	mov	x0, x20
   83c80:	a94153f3 	ldp	x19, x20, [sp, #16]
   83c84:	f94013f5 	ldr	x21, [sp, #32]
   83c88:	a8c37bfd 	ldp	x29, x30, [sp], #48
   83c8c:	d65f03c0 	ret
   83c90:	52800021 	mov	w1, #0x1                   	// #1
   83c94:	aa1303e0 	mov	x0, x19
   83c98:	97fffeec 	bl	83848 <set_page_bit>
   83c9c:	aa1303f4 	mov	x20, x19
   83ca0:	d2820002 	mov	x2, #0x1000                	// #4096
   83ca4:	52800001 	mov	w1, #0x0                   	// #0
   83ca8:	aa1303e0 	mov	x0, x19
   83cac:	97fffe5f 	bl	83628 <memset>
   83cb0:	90007c20 	adrp	x0, 1007000 <mmu_msg>
   83cb4:	91092000 	add	x0, x0, #0x248
   83cb8:	a9418402 	ldp	x2, x1, [x0, #24]
   83cbc:	91000442 	add	x2, x2, #0x1
   83cc0:	91000421 	add	x1, x1, #0x1
   83cc4:	a9018402 	stp	x2, x1, [x0, #24]
   83cc8:	f9401400 	ldr	x0, [x0, #40]
   83ccc:	eb00003f 	cmp	x1, x0
   83cd0:	54000069 	b.ls	83cdc <alloc_page+0xc4>  // b.plast
   83cd4:	90007c20 	adrp	x0, 1007000 <mmu_msg>
   83cd8:	f9013801 	str	x1, [x0, #624]
   83cdc:	d2800021 	mov	x1, #0x1                   	// #1
   83ce0:	aa1303e0 	mov	x0, x19
   83ce4:	97ffffbf 	bl	83be0 <record_allocation>
   83ce8:	aa1303e1 	mov	x1, x19
   83cec:	f0007be0 	adrp	x0, 1002000 <hex_chars.0+0xff8>
   83cf0:	91216000 	add	x0, x0, #0x858
   83cf4:	97fff4fa 	bl	810dc <debug_hex64>
   83cf8:	90007c20 	adrp	x0, 1007000 <mmu_msg>
   83cfc:	f9413001 	ldr	x1, [x0, #608]
   83d00:	f0007be0 	adrp	x0, 1002000 <hex_chars.0+0xff8>
   83d04:	9121c000 	add	x0, x0, #0x870
   83d08:	97fff4f5 	bl	810dc <debug_hex64>
   83d0c:	17ffffdc 	b	83c7c <alloc_page+0x64>

0000000000083d10 <free_page>:
   83d10:	b40005a0 	cbz	x0, 83dc4 <free_page+0xb4>
   83d14:	a9be7bfd 	stp	x29, x30, [sp, #-32]!
   83d18:	910003fd 	mov	x29, sp
   83d1c:	f9000bf3 	str	x19, [sp, #16]
   83d20:	aa0003f3 	mov	x19, x0
   83d24:	92402c00 	and	x0, x0, #0xfff
   83d28:	b5000360 	cbnz	x0, 83d94 <free_page+0x84>
   83d2c:	b26287e0 	mov	x0, #0xffffffffc0000000    	// #-1073741824
   83d30:	8b000260 	add	x0, x19, x0
   83d34:	b2406be1 	mov	x1, #0x7ffffff             	// #134217727
   83d38:	eb01001f 	cmp	x0, x1
   83d3c:	54000348 	b.hi	83da4 <free_page+0x94>  // b.pmore
   83d40:	aa1303e0 	mov	x0, x19
   83d44:	97fffea7 	bl	837e0 <is_page_used>
   83d48:	34000360 	cbz	w0, 83db4 <free_page+0xa4>
   83d4c:	52800001 	mov	w1, #0x0                   	// #0
   83d50:	aa1303e0 	mov	x0, x19
   83d54:	97fffebd 	bl	83848 <set_page_bit>
   83d58:	90007c20 	adrp	x0, 1007000 <mmu_msg>
   83d5c:	91092000 	add	x0, x0, #0x248
   83d60:	f9401001 	ldr	x1, [x0, #32]
   83d64:	d1000421 	sub	x1, x1, #0x1
   83d68:	f9001001 	str	x1, [x0, #32]
   83d6c:	d2800001 	mov	x1, #0x0                   	// #0
   83d70:	aa1303e0 	mov	x0, x19
   83d74:	97ffff9b 	bl	83be0 <record_allocation>
   83d78:	aa1303e1 	mov	x1, x19
   83d7c:	f0007be0 	adrp	x0, 1002000 <hex_chars.0+0xff8>
   83d80:	91248000 	add	x0, x0, #0x920
   83d84:	97fff4d6 	bl	810dc <debug_hex64>
   83d88:	f9400bf3 	ldr	x19, [sp, #16]
   83d8c:	a8c27bfd 	ldp	x29, x30, [sp], #32
   83d90:	d65f03c0 	ret
   83d94:	f0007be0 	adrp	x0, 1002000 <hex_chars.0+0xff8>
   83d98:	91228000 	add	x0, x0, #0x8a0
   83d9c:	97fffd80 	bl	8339c <uart_puts>
   83da0:	17fffffa 	b	83d88 <free_page+0x78>
   83da4:	f0007be0 	adrp	x0, 1002000 <hex_chars.0+0xff8>
   83da8:	91232000 	add	x0, x0, #0x8c8
   83dac:	97fffd7c 	bl	8339c <uart_puts>
   83db0:	17fffff6 	b	83d88 <free_page+0x78>
   83db4:	f0007be0 	adrp	x0, 1002000 <hex_chars.0+0xff8>
   83db8:	9123c000 	add	x0, x0, #0x8f0
   83dbc:	97fffd78 	bl	8339c <uart_puts>
   83dc0:	17fffff2 	b	83d88 <free_page+0x78>
   83dc4:	d65f03c0 	ret

0000000000083dc8 <pmm_command>:
   83dc8:	a9be7bfd 	stp	x29, x30, [sp, #-32]!
   83dcc:	910003fd 	mov	x29, sp
   83dd0:	f9000bf3 	str	x19, [sp, #16]
   83dd4:	aa0003f3 	mov	x19, x0
   83dd8:	f0007be1 	adrp	x1, 1002000 <hex_chars.0+0xff8>
   83ddc:	9124c021 	add	x1, x1, #0x930
   83de0:	97fffe8f 	bl	8381c <pmm_strcmp>
   83de4:	350002e0 	cbnz	w0, 83e40 <pmm_command+0x78>
   83de8:	90007c20 	adrp	x0, 1007000 <mmu_msg>
   83dec:	91092000 	add	x0, x0, #0x248
   83df0:	91006013 	add	x19, x0, #0x18
   83df4:	f9400c01 	ldr	x1, [x0, #24]
   83df8:	f0007be0 	adrp	x0, 1002000 <hex_chars.0+0xff8>
   83dfc:	9124e000 	add	x0, x0, #0x938
   83e00:	97fff4b7 	bl	810dc <debug_hex64>
   83e04:	f9400661 	ldr	x1, [x19, #8]
   83e08:	f0007be0 	adrp	x0, 1002000 <hex_chars.0+0xff8>
   83e0c:	91254000 	add	x0, x0, #0x950
   83e10:	97fff4b3 	bl	810dc <debug_hex64>
   83e14:	f9400a61 	ldr	x1, [x19, #16]
   83e18:	f0007be0 	adrp	x0, 1002000 <hex_chars.0+0xff8>
   83e1c:	911f4000 	add	x0, x0, #0x7d0
   83e20:	97fff4af 	bl	810dc <debug_hex64>
   83e24:	f9400e61 	ldr	x1, [x19, #24]
   83e28:	f0007be0 	adrp	x0, 1002000 <hex_chars.0+0xff8>
   83e2c:	9125a000 	add	x0, x0, #0x968
   83e30:	97fff4ab 	bl	810dc <debug_hex64>
   83e34:	f9400bf3 	ldr	x19, [sp, #16]
   83e38:	a8c27bfd 	ldp	x29, x30, [sp], #32
   83e3c:	d65f03c0 	ret
   83e40:	f0007be1 	adrp	x1, 1002000 <hex_chars.0+0xff8>
   83e44:	91260021 	add	x1, x1, #0x980
   83e48:	aa1303e0 	mov	x0, x19
   83e4c:	97fffe74 	bl	8381c <pmm_strcmp>
   83e50:	35000060 	cbnz	w0, 83e5c <pmm_command+0x94>
   83e54:	97fffefe 	bl	83a4c <pmm_print_memory_map>
   83e58:	17fffff7 	b	83e34 <pmm_command+0x6c>
   83e5c:	f0007be1 	adrp	x1, 1002000 <hex_chars.0+0xff8>
   83e60:	91262021 	add	x1, x1, #0x988
   83e64:	aa1303e0 	mov	x0, x19
   83e68:	97fffe6d 	bl	8381c <pmm_strcmp>
   83e6c:	17fffff2 	b	83e34 <pmm_command+0x6c>

0000000000083e70 <test_memory_writability>:
   83e70:	a9be7bfd 	stp	x29, x30, [sp, #-32]!
   83e74:	910003fd 	mov	x29, sp
   83e78:	a90153f3 	stp	x19, x20, [sp, #16]
   83e7c:	f0007be0 	adrp	x0, 1002000 <hex_chars.0+0xff8>
   83e80:	9126c000 	add	x0, x0, #0x9b0
   83e84:	97fffd46 	bl	8339c <uart_puts>
   83e88:	d2a80013 	mov	x19, #0x40000000            	// #1073741824
   83e8c:	d297ddf4 	mov	x20, #0xbeef                	// #48879
   83e90:	f2bbd5b4 	movk	x20, #0xdead, lsl #16
   83e94:	f2d757d4 	movk	x20, #0xbabe, lsl #32
   83e98:	f2f95fd4 	movk	x20, #0xcafe, lsl #48
   83e9c:	f9000274 	str	x20, [x19]
   83ea0:	d2a80200 	mov	x0, #0x40100000            	// #1074790400
   83ea4:	d299bde1 	mov	x1, #0xcdef                	// #52719
   83ea8:	f2b13561 	movk	x1, #0x89ab, lsl #16
   83eac:	f2c8ace1 	movk	x1, #0x4567, lsl #32
   83eb0:	f2e02461 	movk	x1, #0x123, lsl #48
   83eb4:	f9000001 	str	x1, [x0]
   83eb8:	d2a80401 	mov	x1, #0x40200000            	// #1075838976
   83ebc:	d2864202 	mov	x2, #0x3210                	// #12816
   83ec0:	f2aeca82 	movk	x2, #0x7654, lsl #16
   83ec4:	f2d75302 	movk	x2, #0xba98, lsl #32
   83ec8:	f2ffdb82 	movk	x2, #0xfedc, lsl #48
   83ecc:	f9000022 	str	x2, [x1]
   83ed0:	d50b7a33 	dc	cvac, x19
   83ed4:	d50b7a20 	dc	cvac, x0
   83ed8:	d50b7a21 	dc	cvac, x1
   83edc:	d5033b9f 	dsb	ish
   83ee0:	d5033fdf 	isb
   83ee4:	f0007be0 	adrp	x0, 1002000 <hex_chars.0+0xff8>
   83ee8:	91276000 	add	x0, x0, #0x9d8
   83eec:	97fffd2c 	bl	8339c <uart_puts>
   83ef0:	aa1403e0 	mov	x0, x20
   83ef4:	97fffd35 	bl	833c8 <uart_hex64>
   83ef8:	f0007be0 	adrp	x0, 1002000 <hex_chars.0+0xff8>
   83efc:	9127e000 	add	x0, x0, #0x9f8
   83f00:	97fffd27 	bl	8339c <uart_puts>
   83f04:	f9400260 	ldr	x0, [x19]
   83f08:	97fffd30 	bl	833c8 <uart_hex64>
   83f0c:	f9400262 	ldr	x2, [x19]
   83f10:	f0007be1 	adrp	x1, 1002000 <hex_chars.0+0xff8>
   83f14:	91264021 	add	x1, x1, #0x990
   83f18:	f0007be0 	adrp	x0, 1002000 <hex_chars.0+0xff8>
   83f1c:	91268000 	add	x0, x0, #0x9a0
   83f20:	eb14005f 	cmp	x2, x20
   83f24:	9a811000 	csel	x0, x0, x1, ne	// ne = any
   83f28:	97fffd1d 	bl	8339c <uart_puts>
   83f2c:	f0007be0 	adrp	x0, 1002000 <hex_chars.0+0xff8>
   83f30:	91282000 	add	x0, x0, #0xa08
   83f34:	97fffd1a 	bl	8339c <uart_puts>
   83f38:	d299bdf3 	mov	x19, #0xcdef                	// #52719
   83f3c:	f2b13573 	movk	x19, #0x89ab, lsl #16
   83f40:	f2c8acf3 	movk	x19, #0x4567, lsl #32
   83f44:	f2e02473 	movk	x19, #0x123, lsl #48
   83f48:	aa1303e0 	mov	x0, x19
   83f4c:	97fffd1f 	bl	833c8 <uart_hex64>
   83f50:	f0007be0 	adrp	x0, 1002000 <hex_chars.0+0xff8>
   83f54:	9127e000 	add	x0, x0, #0x9f8
   83f58:	97fffd11 	bl	8339c <uart_puts>
   83f5c:	d2a80214 	mov	x20, #0x40100000            	// #1074790400
   83f60:	f9400280 	ldr	x0, [x20]
   83f64:	97fffd19 	bl	833c8 <uart_hex64>
   83f68:	f9400282 	ldr	x2, [x20]
   83f6c:	f0007be1 	adrp	x1, 1002000 <hex_chars.0+0xff8>
   83f70:	91264021 	add	x1, x1, #0x990
   83f74:	f0007be0 	adrp	x0, 1002000 <hex_chars.0+0xff8>
   83f78:	91268000 	add	x0, x0, #0x9a0
   83f7c:	eb13005f 	cmp	x2, x19
   83f80:	9a811000 	csel	x0, x0, x1, ne	// ne = any
   83f84:	97fffd06 	bl	8339c <uart_puts>
   83f88:	f0007be0 	adrp	x0, 1002000 <hex_chars.0+0xff8>
   83f8c:	9128a000 	add	x0, x0, #0xa28
   83f90:	97fffd03 	bl	8339c <uart_puts>
   83f94:	d2864213 	mov	x19, #0x3210                	// #12816
   83f98:	f2aeca93 	movk	x19, #0x7654, lsl #16
   83f9c:	f2d75313 	movk	x19, #0xba98, lsl #32
   83fa0:	f2ffdb93 	movk	x19, #0xfedc, lsl #48
   83fa4:	aa1303e0 	mov	x0, x19
   83fa8:	97fffd08 	bl	833c8 <uart_hex64>
   83fac:	f0007be0 	adrp	x0, 1002000 <hex_chars.0+0xff8>
   83fb0:	9127e000 	add	x0, x0, #0x9f8
   83fb4:	97fffcfa 	bl	8339c <uart_puts>
   83fb8:	d2a80414 	mov	x20, #0x40200000            	// #1075838976
   83fbc:	f9400280 	ldr	x0, [x20]
   83fc0:	97fffd02 	bl	833c8 <uart_hex64>
   83fc4:	f9400282 	ldr	x2, [x20]
   83fc8:	f0007be1 	adrp	x1, 1002000 <hex_chars.0+0xff8>
   83fcc:	91264021 	add	x1, x1, #0x990
   83fd0:	f0007be0 	adrp	x0, 1002000 <hex_chars.0+0xff8>
   83fd4:	91268000 	add	x0, x0, #0x9a0
   83fd8:	eb13005f 	cmp	x2, x19
   83fdc:	9a811000 	csel	x0, x0, x1, ne	// ne = any
   83fe0:	97fffcef 	bl	8339c <uart_puts>
   83fe4:	d2a80000 	mov	x0, #0x40000000            	// #1073741824
   83fe8:	f9400001 	ldr	x1, [x0]
   83fec:	d297dde0 	mov	x0, #0xbeef                	// #48879
   83ff0:	f2bbd5a0 	movk	x0, #0xdead, lsl #16
   83ff4:	f2d757c0 	movk	x0, #0xbabe, lsl #32
   83ff8:	f2f95fc0 	movk	x0, #0xcafe, lsl #48
   83ffc:	eb00003f 	cmp	x1, x0
   84000:	54000121 	b.ne	84024 <test_memory_writability+0x1b4>  // b.any
   84004:	d2a80200 	mov	x0, #0x40100000            	// #1074790400
   84008:	f9400001 	ldr	x1, [x0]
   8400c:	d299bde0 	mov	x0, #0xcdef                	// #52719
   84010:	f2b13560 	movk	x0, #0x89ab, lsl #16
   84014:	f2c8ace0 	movk	x0, #0x4567, lsl #32
   84018:	f2e02460 	movk	x0, #0x123, lsl #48
   8401c:	eb00003f 	cmp	x1, x0
   84020:	54000140 	b.eq	84048 <test_memory_writability+0x1d8>  // b.none
   84024:	d0007be0 	adrp	x0, 1002000 <hex_chars.0+0xff8>
   84028:	9129c000 	add	x0, x0, #0xa70
   8402c:	97fffcdc 	bl	8339c <uart_puts>
   84030:	d0007be0 	adrp	x0, 1002000 <hex_chars.0+0xff8>
   84034:	912a6000 	add	x0, x0, #0xa98
   84038:	97fffcd9 	bl	8339c <uart_puts>
   8403c:	a94153f3 	ldp	x19, x20, [sp, #16]
   84040:	a8c27bfd 	ldp	x29, x30, [sp], #32
   84044:	d65f03c0 	ret
   84048:	f9400281 	ldr	x1, [x20]
   8404c:	eb13003f 	cmp	x1, x19
   84050:	54fffea1 	b.ne	84024 <test_memory_writability+0x1b4>  // b.any
   84054:	d0007be0 	adrp	x0, 1002000 <hex_chars.0+0xff8>
   84058:	91292000 	add	x0, x0, #0xa48
   8405c:	97fffcd0 	bl	8339c <uart_puts>
   84060:	17fffff7 	b	8403c <test_memory_writability+0x1cc>

0000000000084064 <init_pmm_impl>:
   84064:	a9bd7bfd 	stp	x29, x30, [sp, #-48]!
   84068:	910003fd 	mov	x29, sp
   8406c:	a90153f3 	stp	x19, x20, [sp, #16]
   84070:	52800820 	mov	w0, #0x41                  	// #65
   84074:	97fffcc0 	bl	83374 <uart_putc>
   84078:	97ffff7e 	bl	83e70 <test_memory_writability>
   8407c:	d0007be0 	adrp	x0, 1002000 <hex_chars.0+0xff8>
   84080:	912b8000 	add	x0, x0, #0xae0
   84084:	97fffcc6 	bl	8339c <uart_puts>
   84088:	90007c34 	adrp	x20, 1008000 <__kernel_end>
   8408c:	91000294 	add	x20, x20, #0x0
   84090:	91400680 	add	x0, x20, #0x1, lsl #12
   84094:	f0007c01 	adrp	x1, 1007000 <mmu_msg>
   84098:	f9012420 	str	x0, [x1, #584]
   8409c:	12b70001 	mov	w1, #0x47ffffff            	// #1207959551
   840a0:	eb01001f 	cmp	x0, x1
   840a4:	54000c48 	b.hi	8422c <init_pmm_impl+0x1c8>  // b.pmore
   840a8:	a9025bf5 	stp	x21, x22, [sp, #32]
   840ac:	52800840 	mov	w0, #0x42                  	// #66
   840b0:	97fffcb1 	bl	83374 <uart_putc>
   840b4:	f0007c13 	adrp	x19, 1007000 <mmu_msg>
   840b8:	91092275 	add	x21, x19, #0x248
   840bc:	d2900000 	mov	x0, #0x8000                	// #32768
   840c0:	f90006a0 	str	x0, [x21, #8]
   840c4:	f9412661 	ldr	x1, [x19, #584]
   840c8:	d0007be0 	adrp	x0, 1002000 <hex_chars.0+0xff8>
   840cc:	912c4000 	add	x0, x0, #0xb10
   840d0:	97fff403 	bl	810dc <debug_hex64>
   840d4:	d2820001 	mov	x1, #0x1000                	// #4096
   840d8:	d0007be0 	adrp	x0, 1002000 <hex_chars.0+0xff8>
   840dc:	912c8000 	add	x0, x0, #0xb20
   840e0:	97fff3ff 	bl	810dc <debug_hex64>
   840e4:	aa1403e1 	mov	x1, x20
   840e8:	d0007be0 	adrp	x0, 1002000 <hex_chars.0+0xff8>
   840ec:	912d8000 	add	x0, x0, #0xb60
   840f0:	97fff3fb 	bl	810dc <debug_hex64>
   840f4:	f94006a1 	ldr	x1, [x21, #8]
   840f8:	d0007be0 	adrp	x0, 1002000 <hex_chars.0+0xff8>
   840fc:	912cc000 	add	x0, x0, #0xb30
   84100:	97fff3f7 	bl	810dc <debug_hex64>
   84104:	52800860 	mov	w0, #0x43                  	// #67
   84108:	97fffc9b 	bl	83374 <uart_putc>
   8410c:	f9412661 	ldr	x1, [x19, #584]
   84110:	d2800000 	mov	x0, #0x0                   	// #0
   84114:	3820683f 	strb	wzr, [x1, x0]
   84118:	91000400 	add	x0, x0, #0x1
   8411c:	f140041f 	cmp	x0, #0x1, lsl #12
   84120:	54ffffa1 	b.ne	84114 <init_pmm_impl+0xb0>  // b.any
   84124:	52800880 	mov	w0, #0x44                  	// #68
   84128:	97fffc93 	bl	83374 <uart_putc>
   8412c:	f0007c13 	adrp	x19, 1007000 <mmu_msg>
   84130:	f9412675 	ldr	x21, [x19, #584]
   84134:	914006b5 	add	x21, x21, #0x1, lsl #12
   84138:	913ffeb5 	add	x21, x21, #0xfff
   8413c:	9274ceb5 	and	x21, x21, #0xfffffffffffff000
   84140:	d2a80001 	mov	x1, #0x40000000            	// #1073741824
   84144:	d0007be0 	adrp	x0, 1002000 <hex_chars.0+0xff8>
   84148:	912d0000 	add	x0, x0, #0xb40
   8414c:	97fff3e4 	bl	810dc <debug_hex64>
   84150:	aa1403e1 	mov	x1, x20
   84154:	d0007be0 	adrp	x0, 1002000 <hex_chars.0+0xff8>
   84158:	912d6000 	add	x0, x0, #0xb58
   8415c:	97fff3e0 	bl	810dc <debug_hex64>
   84160:	f9412661 	ldr	x1, [x19, #584]
   84164:	d0007be0 	adrp	x0, 1002000 <hex_chars.0+0xff8>
   84168:	912dc000 	add	x0, x0, #0xb70
   8416c:	97fff3dc 	bl	810dc <debug_hex64>
   84170:	aa1503e1 	mov	x1, x21
   84174:	d0007be0 	adrp	x0, 1002000 <hex_chars.0+0xff8>
   84178:	912e2000 	add	x0, x0, #0xb88
   8417c:	97fff3d8 	bl	810dc <debug_hex64>
   84180:	52800960 	mov	w0, #0x4b                  	// #75
   84184:	97fffc7c 	bl	83374 <uart_putc>
   84188:	d2800001 	mov	x1, #0x0                   	// #0
   8418c:	d0007be0 	adrp	x0, 1002000 <hex_chars.0+0xff8>
   84190:	912e6000 	add	x0, x0, #0xb98
   84194:	97fff3d2 	bl	810dc <debug_hex64>
   84198:	528009a0 	mov	w0, #0x4d                  	// #77
   8419c:	97fffc76 	bl	83374 <uart_putc>
   841a0:	f9412673 	ldr	x19, [x19, #584]
   841a4:	9274ce73 	and	x19, x19, #0xfffffffffffff000
   841a8:	eb1302bf 	cmp	x21, x19
   841ac:	54000469 	b.ls	84238 <init_pmm_impl+0x1d4>  // b.plast
   841b0:	d2800014 	mov	x20, #0x0                   	// #0
   841b4:	52800036 	mov	w22, #0x1                   	// #1
   841b8:	2a1603e1 	mov	w1, w22
   841bc:	aa1303e0 	mov	x0, x19
   841c0:	97fffda2 	bl	83848 <set_page_bit>
   841c4:	91000694 	add	x20, x20, #0x1
   841c8:	91400673 	add	x19, x19, #0x1, lsl #12
   841cc:	eb1302bf 	cmp	x21, x19
   841d0:	54ffff48 	b.hi	841b8 <init_pmm_impl+0x154>  // b.pmore
   841d4:	aa1403e1 	mov	x1, x20
   841d8:	d0007be0 	adrp	x0, 1002000 <hex_chars.0+0xff8>
   841dc:	912ec000 	add	x0, x0, #0xbb0
   841e0:	97fff3bf 	bl	810dc <debug_hex64>
   841e4:	52800ac0 	mov	w0, #0x56                  	// #86
   841e8:	97fffc63 	bl	83374 <uart_putc>
   841ec:	d2800013 	mov	x19, #0x0                   	// #0
   841f0:	f0007c15 	adrp	x21, 1007000 <mmu_msg>
   841f4:	d0007bf4 	adrp	x20, 1002000 <hex_chars.0+0xff8>
   841f8:	912f2294 	add	x20, x20, #0xbc8
   841fc:	f94126a0 	ldr	x0, [x21, #584]
   84200:	38736801 	ldrb	w1, [x0, x19]
   84204:	aa1403e0 	mov	x0, x20
   84208:	97fff3b5 	bl	810dc <debug_hex64>
   8420c:	91000673 	add	x19, x19, #0x1
   84210:	f100127f 	cmp	x19, #0x4
   84214:	54ffff41 	b.ne	841fc <init_pmm_impl+0x198>  // b.any
   84218:	d2a80013 	mov	x19, #0x40000000            	// #1073741824
   8421c:	d2800014 	mov	x20, #0x0                   	// #0
   84220:	d2800015 	mov	x21, #0x0                   	// #0
   84224:	d2a90016 	mov	x22, #0x48000000            	// #1207959552
   84228:	1400000a 	b	84250 <init_pmm_impl+0x1ec>
   8422c:	528008a0 	mov	w0, #0x45                  	// #69
   84230:	97fffc51 	bl	83374 <uart_putc>
   84234:	1400001c 	b	842a4 <init_pmm_impl+0x240>
   84238:	d2800014 	mov	x20, #0x0                   	// #0
   8423c:	17ffffe6 	b	841d4 <init_pmm_impl+0x170>
   84240:	910006b5 	add	x21, x21, #0x1
   84244:	91400673 	add	x19, x19, #0x1, lsl #12
   84248:	eb16027f 	cmp	x19, x22
   8424c:	540000c0 	b.eq	84264 <init_pmm_impl+0x200>  // b.none
   84250:	aa1303e0 	mov	x0, x19
   84254:	97fffd63 	bl	837e0 <is_page_used>
   84258:	34ffff40 	cbz	w0, 84240 <init_pmm_impl+0x1dc>
   8425c:	91000694 	add	x20, x20, #0x1
   84260:	17fffff9 	b	84244 <init_pmm_impl+0x1e0>
   84264:	f0007c00 	adrp	x0, 1007000 <mmu_msg>
   84268:	f9412801 	ldr	x1, [x0, #592]
   8426c:	d0007be0 	adrp	x0, 1002000 <hex_chars.0+0xff8>
   84270:	912cc000 	add	x0, x0, #0xb30
   84274:	97fff39a 	bl	810dc <debug_hex64>
   84278:	aa1503e1 	mov	x1, x21
   8427c:	d0007be0 	adrp	x0, 1002000 <hex_chars.0+0xff8>
   84280:	912f6000 	add	x0, x0, #0xbd8
   84284:	97fff396 	bl	810dc <debug_hex64>
   84288:	aa1403e1 	mov	x1, x20
   8428c:	d0007be0 	adrp	x0, 1002000 <hex_chars.0+0xff8>
   84290:	912fa000 	add	x0, x0, #0xbe8
   84294:	97fff392 	bl	810dc <debug_hex64>
   84298:	52800a00 	mov	w0, #0x50                  	// #80
   8429c:	97fffc36 	bl	83374 <uart_putc>
   842a0:	a9425bf5 	ldp	x21, x22, [sp, #32]
   842a4:	a94153f3 	ldp	x19, x20, [sp, #16]
   842a8:	a8c37bfd 	ldp	x29, x30, [sp], #48
   842ac:	d65f03c0 	ret

00000000000842b0 <init_pmm>:
   842b0:	a9bf7bfd 	stp	x29, x30, [sp, #-16]!
   842b4:	910003fd 	mov	x29, sp
   842b8:	a9bf7bfd 	stp	x29, x30, [sp, #-16]!
   842bc:	910003fd 	mov	x29, sp
   842c0:	97ffff69 	bl	84064 <init_pmm_impl>
   842c4:	a8c17bfd 	ldp	x29, x30, [sp], #16
   842c8:	d65f03c0 	ret
   842cc:	a8c17bfd 	ldp	x29, x30, [sp], #16
   842d0:	d65f03c0 	ret

00000000000842d4 <read_ttbr1_el1>:
   842d4:	d5382020 	mrs	x0, ttbr1_el1
   842d8:	d65f03c0 	ret

00000000000842dc <read_vbar_el1>:
   842dc:	d538c000 	mrs	x0, vbar_el1
   842e0:	d65f03c0 	ret

00000000000842e4 <debug_dump_pte>:
   842e4:	a9bd7bfd 	stp	x29, x30, [sp, #-48]!
   842e8:	910003fd 	mov	x29, sp
   842ec:	a90153f3 	stp	x19, x20, [sp, #16]
   842f0:	aa0003f3 	mov	x19, x0
   842f4:	f0007c00 	adrp	x0, 1007000 <mmu_msg>
   842f8:	f9414414 	ldr	x20, [x0, #648]
   842fc:	b40004b4 	cbz	x20, 84390 <debug_dump_pte+0xac>
   84300:	f90013f5 	str	x21, [sp, #32]
   84304:	d35e9a75 	ubfx	x21, x19, #30, #9
   84308:	d0007be0 	adrp	x0, 1002000 <hex_chars.0+0xff8>
   8430c:	9134a000 	add	x0, x0, #0xd28
   84310:	97fffc23 	bl	8339c <uart_puts>
   84314:	aa1303e0 	mov	x0, x19
   84318:	97fffc2c 	bl	833c8 <uart_hex64>
   8431c:	b0007be0 	adrp	x0, 1001000 <GLOBAL_UART>
   84320:	91218000 	add	x0, x0, #0x860
   84324:	97fffc1e 	bl	8339c <uart_puts>
   84328:	d367be60 	ubfx	x0, x19, #39, #9
   8432c:	f8607a80 	ldr	x0, [x20, x0, lsl #3]
   84330:	36000380 	tbz	w0, #0, 843a0 <debug_dump_pte+0xbc>
   84334:	9274cc00 	and	x0, x0, #0xfffffffffffff000
   84338:	f8757800 	ldr	x0, [x0, x21, lsl #3]
   8433c:	360003c0 	tbz	w0, #0, 843b4 <debug_dump_pte+0xd0>
   84340:	9274cc00 	and	x0, x0, #0xfffffffffffff000
   84344:	d3557661 	ubfx	x1, x19, #21, #9
   84348:	f8617800 	ldr	x0, [x0, x1, lsl #3]
   8434c:	360003e0 	tbz	w0, #0, 843c8 <debug_dump_pte+0xe4>
   84350:	9274cc00 	and	x0, x0, #0xfffffffffffff000
   84354:	d34c5273 	ubfx	x19, x19, #12, #9
   84358:	f8737813 	ldr	x19, [x0, x19, lsl #3]
   8435c:	36000413 	tbz	w19, #0, 843dc <debug_dump_pte+0xf8>
   84360:	d0007be0 	adrp	x0, 1002000 <hex_chars.0+0xff8>
   84364:	9135e000 	add	x0, x0, #0xd78
   84368:	97fffc0d 	bl	8339c <uart_puts>
   8436c:	aa1303e0 	mov	x0, x19
   84370:	97fffc16 	bl	833c8 <uart_hex64>
   84374:	b0007be0 	adrp	x0, 1001000 <GLOBAL_UART>
   84378:	91228000 	add	x0, x0, #0x8a0
   8437c:	97fffc08 	bl	8339c <uart_puts>
   84380:	f94013f5 	ldr	x21, [sp, #32]
   84384:	a94153f3 	ldp	x19, x20, [sp, #16]
   84388:	a8c37bfd 	ldp	x29, x30, [sp], #48
   8438c:	d65f03c0 	ret
   84390:	d0007be0 	adrp	x0, 1002000 <hex_chars.0+0xff8>
   84394:	91340000 	add	x0, x0, #0xd00
   84398:	97fffc01 	bl	8339c <uart_puts>
   8439c:	17fffffa 	b	84384 <debug_dump_pte+0xa0>
   843a0:	d0007be0 	adrp	x0, 1002000 <hex_chars.0+0xff8>
   843a4:	9134e000 	add	x0, x0, #0xd38
   843a8:	97fffbfd 	bl	8339c <uart_puts>
   843ac:	f94013f5 	ldr	x21, [sp, #32]
   843b0:	17fffff5 	b	84384 <debug_dump_pte+0xa0>
   843b4:	d0007be0 	adrp	x0, 1002000 <hex_chars.0+0xff8>
   843b8:	91352000 	add	x0, x0, #0xd48
   843bc:	97fffbf8 	bl	8339c <uart_puts>
   843c0:	f94013f5 	ldr	x21, [sp, #32]
   843c4:	17fffff0 	b	84384 <debug_dump_pte+0xa0>
   843c8:	d0007be0 	adrp	x0, 1002000 <hex_chars.0+0xff8>
   843cc:	91356000 	add	x0, x0, #0xd58
   843d0:	97fffbf3 	bl	8339c <uart_puts>
   843d4:	f94013f5 	ldr	x21, [sp, #32]
   843d8:	17ffffeb 	b	84384 <debug_dump_pte+0xa0>
   843dc:	d0007be0 	adrp	x0, 1002000 <hex_chars.0+0xff8>
   843e0:	9135a000 	add	x0, x0, #0xd68
   843e4:	97fffbee 	bl	8339c <uart_puts>
   843e8:	f94013f5 	ldr	x21, [sp, #32]
   843ec:	17ffffe6 	b	84384 <debug_dump_pte+0xa0>

00000000000843f0 <print_pte_flags>:
   843f0:	a9bd7bfd 	stp	x29, x30, [sp, #-48]!
   843f4:	910003fd 	mov	x29, sp
   843f8:	a90153f3 	stp	x19, x20, [sp, #16]
   843fc:	aa0003f3 	mov	x19, x0
   84400:	f0007c00 	adrp	x0, 1007000 <mmu_msg>
   84404:	f9414414 	ldr	x20, [x0, #648]
   84408:	b4000bf4 	cbz	x20, 84584 <print_pte_flags+0x194>
   8440c:	f90013f5 	str	x21, [sp, #32]
   84410:	d0007be0 	adrp	x0, 1002000 <hex_chars.0+0xff8>
   84414:	91362000 	add	x0, x0, #0xd88
   84418:	97fffbe1 	bl	8339c <uart_puts>
   8441c:	aa1303e0 	mov	x0, x19
   84420:	97fffbea 	bl	833c8 <uart_hex64>
   84424:	52800140 	mov	w0, #0xa                   	// #10
   84428:	97fffbd3 	bl	83374 <uart_putc>
   8442c:	d367be75 	ubfx	x21, x19, #39, #9
   84430:	f8757a80 	ldr	x0, [x20, x21, lsl #3]
   84434:	36000b00 	tbz	w0, #0, 84594 <print_pte_flags+0x1a4>
   84438:	d0007be0 	adrp	x0, 1002000 <hex_chars.0+0xff8>
   8443c:	91370000 	add	x0, x0, #0xdc0
   84440:	97fffbd7 	bl	8339c <uart_puts>
   84444:	f8757a80 	ldr	x0, [x20, x21, lsl #3]
   84448:	97fffbe0 	bl	833c8 <uart_hex64>
   8444c:	52800140 	mov	w0, #0xa                   	// #10
   84450:	97fffbc9 	bl	83374 <uart_putc>
   84454:	f8757a94 	ldr	x20, [x20, x21, lsl #3]
   84458:	9274ce94 	and	x20, x20, #0xfffffffffffff000
   8445c:	d35e9a75 	ubfx	x21, x19, #30, #9
   84460:	f8757a80 	ldr	x0, [x20, x21, lsl #3]
   84464:	36000a60 	tbz	w0, #0, 845b0 <print_pte_flags+0x1c0>
   84468:	d0007be0 	adrp	x0, 1002000 <hex_chars.0+0xff8>
   8446c:	9137a000 	add	x0, x0, #0xde8
   84470:	97fffbcb 	bl	8339c <uart_puts>
   84474:	f8757a80 	ldr	x0, [x20, x21, lsl #3]
   84478:	97fffbd4 	bl	833c8 <uart_hex64>
   8447c:	52800140 	mov	w0, #0xa                   	// #10
   84480:	97fffbbd 	bl	83374 <uart_putc>
   84484:	f8757a94 	ldr	x20, [x20, x21, lsl #3]
   84488:	9274ce94 	and	x20, x20, #0xfffffffffffff000
   8448c:	d3557675 	ubfx	x21, x19, #21, #9
   84490:	f8757a80 	ldr	x0, [x20, x21, lsl #3]
   84494:	36000980 	tbz	w0, #0, 845c4 <print_pte_flags+0x1d4>
   84498:	d0007be0 	adrp	x0, 1002000 <hex_chars.0+0xff8>
   8449c:	91384000 	add	x0, x0, #0xe10
   844a0:	97fffbbf 	bl	8339c <uart_puts>
   844a4:	f8757a80 	ldr	x0, [x20, x21, lsl #3]
   844a8:	97fffbc8 	bl	833c8 <uart_hex64>
   844ac:	52800140 	mov	w0, #0xa                   	// #10
   844b0:	97fffbb1 	bl	83374 <uart_putc>
   844b4:	f8757a80 	ldr	x0, [x20, x21, lsl #3]
   844b8:	9274cc00 	and	x0, x0, #0xfffffffffffff000
   844bc:	d34c5273 	ubfx	x19, x19, #12, #9
   844c0:	f8737813 	ldr	x19, [x0, x19, lsl #3]
   844c4:	360008b3 	tbz	w19, #0, 845d8 <print_pte_flags+0x1e8>
   844c8:	d0007be0 	adrp	x0, 1002000 <hex_chars.0+0xff8>
   844cc:	9138e000 	add	x0, x0, #0xe38
   844d0:	97fffbb3 	bl	8339c <uart_puts>
   844d4:	aa1303e0 	mov	x0, x19
   844d8:	97fffbbc 	bl	833c8 <uart_hex64>
   844dc:	52800140 	mov	w0, #0xa                   	// #10
   844e0:	97fffba5 	bl	83374 <uart_putc>
   844e4:	d0007be0 	adrp	x0, 1002000 <hex_chars.0+0xff8>
   844e8:	91394000 	add	x0, x0, #0xe50
   844ec:	97fffbac 	bl	8339c <uart_puts>
   844f0:	52800620 	mov	w0, #0x31                  	// #49
   844f4:	97fffba0 	bl	83374 <uart_putc>
   844f8:	52800140 	mov	w0, #0xa                   	// #10
   844fc:	97fffb9e 	bl	83374 <uart_putc>
   84500:	d0007be0 	adrp	x0, 1002000 <hex_chars.0+0xff8>
   84504:	91398000 	add	x0, x0, #0xe60
   84508:	97fffba5 	bl	8339c <uart_puts>
   8450c:	d375d660 	ubfx	x0, x19, #53, #1
   84510:	1100c000 	add	w0, w0, #0x30
   84514:	97fffb98 	bl	83374 <uart_putc>
   84518:	52800140 	mov	w0, #0xa                   	// #10
   8451c:	97fffb96 	bl	83374 <uart_putc>
   84520:	d0007be0 	adrp	x0, 1002000 <hex_chars.0+0xff8>
   84524:	9139a000 	add	x0, x0, #0xe68
   84528:	97fffb9d 	bl	8339c <uart_puts>
   8452c:	d376da60 	ubfx	x0, x19, #54, #1
   84530:	1100c000 	add	w0, w0, #0x30
   84534:	97fffb90 	bl	83374 <uart_putc>
   84538:	52800140 	mov	w0, #0xa                   	// #10
   8453c:	97fffb8e 	bl	83374 <uart_putc>
   84540:	d0007be0 	adrp	x0, 1002000 <hex_chars.0+0xff8>
   84544:	9139c000 	add	x0, x0, #0xe70
   84548:	97fffb95 	bl	8339c <uart_puts>
   8454c:	530a2a60 	ubfx	w0, w19, #10, #1
   84550:	1100c000 	add	w0, w0, #0x30
   84554:	97fffb88 	bl	83374 <uart_putc>
   84558:	52800140 	mov	w0, #0xa                   	// #10
   8455c:	97fffb86 	bl	83374 <uart_putc>
   84560:	d0007be0 	adrp	x0, 1002000 <hex_chars.0+0xff8>
   84564:	9139e000 	add	x0, x0, #0xe78
   84568:	97fffb8d 	bl	8339c <uart_puts>
   8456c:	d3421260 	ubfx	x0, x19, #2, #3
   84570:	97fffb96 	bl	833c8 <uart_hex64>
   84574:	52800140 	mov	w0, #0xa                   	// #10
   84578:	97fffb7f 	bl	83374 <uart_putc>
   8457c:	f94013f5 	ldr	x21, [sp, #32]
   84580:	14000009 	b	845a4 <print_pte_flags+0x1b4>
   84584:	d0007be0 	adrp	x0, 1002000 <hex_chars.0+0xff8>
   84588:	91340000 	add	x0, x0, #0xd00
   8458c:	97fffb84 	bl	8339c <uart_puts>
   84590:	14000005 	b	845a4 <print_pte_flags+0x1b4>
   84594:	d0007be0 	adrp	x0, 1002000 <hex_chars.0+0xff8>
   84598:	9136a000 	add	x0, x0, #0xda8
   8459c:	97fffb80 	bl	8339c <uart_puts>
   845a0:	f94013f5 	ldr	x21, [sp, #32]
   845a4:	a94153f3 	ldp	x19, x20, [sp, #16]
   845a8:	a8c37bfd 	ldp	x29, x30, [sp], #48
   845ac:	d65f03c0 	ret
   845b0:	d0007be0 	adrp	x0, 1002000 <hex_chars.0+0xff8>
   845b4:	91374000 	add	x0, x0, #0xdd0
   845b8:	97fffb79 	bl	8339c <uart_puts>
   845bc:	f94013f5 	ldr	x21, [sp, #32]
   845c0:	17fffff9 	b	845a4 <print_pte_flags+0x1b4>
   845c4:	d0007be0 	adrp	x0, 1002000 <hex_chars.0+0xff8>
   845c8:	9137e000 	add	x0, x0, #0xdf8
   845cc:	97fffb74 	bl	8339c <uart_puts>
   845d0:	f94013f5 	ldr	x21, [sp, #32]
   845d4:	17fffff4 	b	845a4 <print_pte_flags+0x1b4>
   845d8:	d0007be0 	adrp	x0, 1002000 <hex_chars.0+0xff8>
   845dc:	91388000 	add	x0, x0, #0xe20
   845e0:	97fffb6f 	bl	8339c <uart_puts>
   845e4:	f94013f5 	ldr	x21, [sp, #32]
   845e8:	17ffffef 	b	845a4 <print_pte_flags+0x1b4>

00000000000845ec <debug_check_mapping>:
   845ec:	a9bd7bfd 	stp	x29, x30, [sp, #-48]!
   845f0:	910003fd 	mov	x29, sp
   845f4:	a90153f3 	stp	x19, x20, [sp, #16]
   845f8:	f90013f5 	str	x21, [sp, #32]
   845fc:	aa0003f3 	mov	x19, x0
   84600:	aa0103f4 	mov	x20, x1
   84604:	d0007be0 	adrp	x0, 1002000 <hex_chars.0+0xff8>
   84608:	913a2000 	add	x0, x0, #0xe88
   8460c:	97fffb64 	bl	8339c <uart_puts>
   84610:	aa1403e0 	mov	x0, x20
   84614:	97fffb62 	bl	8339c <uart_puts>
   84618:	d0007be0 	adrp	x0, 1002000 <hex_chars.0+0xff8>
   8461c:	913aa000 	add	x0, x0, #0xea8
   84620:	97fffb5f 	bl	8339c <uart_puts>
   84624:	aa1303e0 	mov	x0, x19
   84628:	97fffb68 	bl	833c8 <uart_hex64>
   8462c:	b0007be0 	adrp	x0, 1001000 <GLOBAL_UART>
   84630:	91228000 	add	x0, x0, #0x8a0
   84634:	97fffb5a 	bl	8339c <uart_puts>
   84638:	f0007c00 	adrp	x0, 1007000 <mmu_msg>
   8463c:	f9414415 	ldr	x21, [x0, #648]
   84640:	b4000ab5 	cbz	x21, 84794 <debug_check_mapping+0x1a8>
   84644:	d367be74 	ubfx	x20, x19, #39, #9
   84648:	d0007be0 	adrp	x0, 1002000 <hex_chars.0+0xff8>
   8464c:	913b8000 	add	x0, x0, #0xee0
   84650:	97fffb53 	bl	8339c <uart_puts>
   84654:	aa1403e0 	mov	x0, x20
   84658:	97fffb5c 	bl	833c8 <uart_hex64>
   8465c:	b0007be0 	adrp	x0, 1001000 <GLOBAL_UART>
   84660:	91228000 	add	x0, x0, #0x8a0
   84664:	97fffb4e 	bl	8339c <uart_puts>
   84668:	f8747aa0 	ldr	x0, [x21, x20, lsl #3]
   8466c:	360009c0 	tbz	w0, #0, 847a4 <debug_check_mapping+0x1b8>
   84670:	9274cc14 	and	x20, x0, #0xfffffffffffff000
   84674:	d0007be0 	adrp	x0, 1002000 <hex_chars.0+0xff8>
   84678:	913c2000 	add	x0, x0, #0xf08
   8467c:	97fffb48 	bl	8339c <uart_puts>
   84680:	aa1403e0 	mov	x0, x20
   84684:	97fffb51 	bl	833c8 <uart_hex64>
   84688:	b0007be0 	adrp	x0, 1001000 <GLOBAL_UART>
   8468c:	91228000 	add	x0, x0, #0x8a0
   84690:	97fffb43 	bl	8339c <uart_puts>
   84694:	d35e9a60 	ubfx	x0, x19, #30, #9
   84698:	f8607a80 	ldr	x0, [x20, x0, lsl #3]
   8469c:	36000920 	tbz	w0, #0, 847c0 <debug_check_mapping+0x1d4>
   846a0:	9274cc14 	and	x20, x0, #0xfffffffffffff000
   846a4:	d0007be0 	adrp	x0, 1002000 <hex_chars.0+0xff8>
   846a8:	913ce000 	add	x0, x0, #0xf38
   846ac:	97fffb3c 	bl	8339c <uart_puts>
   846b0:	aa1403e0 	mov	x0, x20
   846b4:	97fffb45 	bl	833c8 <uart_hex64>
   846b8:	b0007be0 	adrp	x0, 1001000 <GLOBAL_UART>
   846bc:	91228000 	add	x0, x0, #0x8a0
   846c0:	97fffb37 	bl	8339c <uart_puts>
   846c4:	d3557660 	ubfx	x0, x19, #21, #9
   846c8:	f8607a80 	ldr	x0, [x20, x0, lsl #3]
   846cc:	36000820 	tbz	w0, #0, 847d0 <debug_check_mapping+0x1e4>
   846d0:	9274cc14 	and	x20, x0, #0xfffffffffffff000
   846d4:	d0007be0 	adrp	x0, 1002000 <hex_chars.0+0xff8>
   846d8:	913da000 	add	x0, x0, #0xf68
   846dc:	97fffb30 	bl	8339c <uart_puts>
   846e0:	aa1403e0 	mov	x0, x20
   846e4:	97fffb39 	bl	833c8 <uart_hex64>
   846e8:	b0007be0 	adrp	x0, 1001000 <GLOBAL_UART>
   846ec:	91228000 	add	x0, x0, #0x8a0
   846f0:	97fffb2b 	bl	8339c <uart_puts>
   846f4:	d34c5273 	ubfx	x19, x19, #12, #9
   846f8:	f8737a93 	ldr	x19, [x20, x19, lsl #3]
   846fc:	36000733 	tbz	w19, #0, 847e0 <debug_check_mapping+0x1f4>
   84700:	d0007be0 	adrp	x0, 1002000 <hex_chars.0+0xff8>
   84704:	913e6000 	add	x0, x0, #0xf98
   84708:	97fffb25 	bl	8339c <uart_puts>
   8470c:	aa1303e0 	mov	x0, x19
   84710:	97fffb2e 	bl	833c8 <uart_hex64>
   84714:	b0007bf4 	adrp	x20, 1001000 <GLOBAL_UART>
   84718:	91228294 	add	x20, x20, #0x8a0
   8471c:	aa1403e0 	mov	x0, x20
   84720:	97fffb1f 	bl	8339c <uart_puts>
   84724:	d0007be0 	adrp	x0, 1002000 <hex_chars.0+0xff8>
   84728:	913ea000 	add	x0, x0, #0xfa8
   8472c:	97fffb1c 	bl	8339c <uart_puts>
   84730:	9274ce60 	and	x0, x19, #0xfffffffffffff000
   84734:	97fffb25 	bl	833c8 <uart_hex64>
   84738:	aa1403e0 	mov	x0, x20
   8473c:	97fffb18 	bl	8339c <uart_puts>
   84740:	d0007be0 	adrp	x0, 1002000 <hex_chars.0+0xff8>
   84744:	913f0000 	add	x0, x0, #0xfc0
   84748:	97fffb15 	bl	8339c <uart_puts>
   8474c:	b7b00533 	tbnz	x19, #54, 847f0 <debug_check_mapping+0x204>
   84750:	b7a80593 	tbnz	x19, #53, 84800 <debug_check_mapping+0x214>
   84754:	f27a0660 	ands	x0, x19, #0xc0
   84758:	540005c0 	b.eq	84810 <debug_check_mapping+0x224>  // b.none
   8475c:	f101001f 	cmp	x0, #0x40
   84760:	54000600 	b.eq	84820 <debug_check_mapping+0x234>  // b.none
   84764:	b0007be0 	adrp	x0, 1001000 <GLOBAL_UART>
   84768:	91228000 	add	x0, x0, #0x8a0
   8476c:	97fffb0c 	bl	8339c <uart_puts>
   84770:	d0007be0 	adrp	x0, 1002000 <hex_chars.0+0xff8>
   84774:	913fc000 	add	x0, x0, #0xff0
   84778:	97fffb09 	bl	8339c <uart_puts>
   8477c:	f24b067f 	tst	x19, #0x60000000000000
   84780:	54000581 	b.ne	84830 <debug_check_mapping+0x244>  // b.any
   84784:	f0007be0 	adrp	x0, 1003000 <hex_chars.0+0x1ff8>
   84788:	91000000 	add	x0, x0, #0x0
   8478c:	97fffb04 	bl	8339c <uart_puts>
   84790:	14000008 	b	847b0 <debug_check_mapping+0x1c4>
   84794:	d0007be0 	adrp	x0, 1002000 <hex_chars.0+0xff8>
   84798:	913ac000 	add	x0, x0, #0xeb0
   8479c:	97fffb00 	bl	8339c <uart_puts>
   847a0:	14000004 	b	847b0 <debug_check_mapping+0x1c4>
   847a4:	d0007be0 	adrp	x0, 1002000 <hex_chars.0+0xff8>
   847a8:	913bc000 	add	x0, x0, #0xef0
   847ac:	97fffafc 	bl	8339c <uart_puts>
   847b0:	a94153f3 	ldp	x19, x20, [sp, #16]
   847b4:	f94013f5 	ldr	x21, [sp, #32]
   847b8:	a8c37bfd 	ldp	x29, x30, [sp], #48
   847bc:	d65f03c0 	ret
   847c0:	d0007be0 	adrp	x0, 1002000 <hex_chars.0+0xff8>
   847c4:	913c8000 	add	x0, x0, #0xf20
   847c8:	97fffaf5 	bl	8339c <uart_puts>
   847cc:	17fffff9 	b	847b0 <debug_check_mapping+0x1c4>
   847d0:	d0007be0 	adrp	x0, 1002000 <hex_chars.0+0xff8>
   847d4:	913d4000 	add	x0, x0, #0xf50
   847d8:	97fffaf1 	bl	8339c <uart_puts>
   847dc:	17fffff5 	b	847b0 <debug_check_mapping+0x1c4>
   847e0:	d0007be0 	adrp	x0, 1002000 <hex_chars.0+0xff8>
   847e4:	913e0000 	add	x0, x0, #0xf80
   847e8:	97fffaed 	bl	8339c <uart_puts>
   847ec:	17fffff1 	b	847b0 <debug_check_mapping+0x1c4>
   847f0:	d0007be0 	adrp	x0, 1002000 <hex_chars.0+0xff8>
   847f4:	913f4000 	add	x0, x0, #0xfd0
   847f8:	97fffae9 	bl	8339c <uart_puts>
   847fc:	17ffffd5 	b	84750 <debug_check_mapping+0x164>
   84800:	d0007be0 	adrp	x0, 1002000 <hex_chars.0+0xff8>
   84804:	913f6000 	add	x0, x0, #0xfd8
   84808:	97fffae5 	bl	8339c <uart_puts>
   8480c:	17ffffd2 	b	84754 <debug_check_mapping+0x168>
   84810:	d0007be0 	adrp	x0, 1002000 <hex_chars.0+0xff8>
   84814:	913f8000 	add	x0, x0, #0xfe0
   84818:	97fffae1 	bl	8339c <uart_puts>
   8481c:	17ffffd2 	b	84764 <debug_check_mapping+0x178>
   84820:	d0007be0 	adrp	x0, 1002000 <hex_chars.0+0xff8>
   84824:	913fa000 	add	x0, x0, #0xfe8
   84828:	97fffadd 	bl	8339c <uart_puts>
   8482c:	17ffffce 	b	84764 <debug_check_mapping+0x178>
   84830:	f0007be0 	adrp	x0, 1003000 <hex_chars.0+0x1ff8>
   84834:	91002000 	add	x0, x0, #0x8
   84838:	97fffad9 	bl	8339c <uart_puts>
   8483c:	17ffffdd 	b	847b0 <debug_check_mapping+0x1c4>

0000000000084840 <create_page_table>:
   84840:	a9be7bfd 	stp	x29, x30, [sp, #-32]!
   84844:	910003fd 	mov	x29, sp
   84848:	f9000bf3 	str	x19, [sp, #16]
   8484c:	97fffcf3 	bl	83c18 <alloc_page>
   84850:	aa0003f3 	mov	x19, x0
   84854:	b4000100 	cbz	x0, 84874 <create_page_table+0x34>
   84858:	d2820002 	mov	x2, #0x1000                	// #4096
   8485c:	52800001 	mov	w1, #0x0                   	// #0
   84860:	97fffb72 	bl	83628 <memset>
   84864:	aa1303e0 	mov	x0, x19
   84868:	f9400bf3 	ldr	x19, [sp, #16]
   8486c:	a8c27bfd 	ldp	x29, x30, [sp], #32
   84870:	d65f03c0 	ret
   84874:	f0007be0 	adrp	x0, 1003000 <hex_chars.0+0x1ff8>
   84878:	91004000 	add	x0, x0, #0x10
   8487c:	97fffac8 	bl	8339c <uart_puts>
   84880:	17fffff9 	b	84864 <create_page_table+0x24>

0000000000084884 <map_page>:
   84884:	a9be7bfd 	stp	x29, x30, [sp, #-32]!
   84888:	910003fd 	mov	x29, sp
   8488c:	b4000280 	cbz	x0, 848dc <map_page+0x58>
   84890:	a90153f3 	stp	x19, x20, [sp, #16]
   84894:	aa0103f4 	mov	x20, x1
   84898:	aa0203f3 	mov	x19, x2
   8489c:	929fffe2 	mov	x2, #0xffffffffffff0000    	// #-65536
   848a0:	f2bee002 	movk	x2, #0xf700, lsl #16
   848a4:	8b020262 	add	x2, x19, x2
   848a8:	f13ffc5f 	cmp	x2, #0xfff
   848ac:	54000209 	b.ls	848ec <map_page+0x68>  // b.plast
   848b0:	929fffe2 	mov	x2, #0xffffffffffff0000    	// #-65536
   848b4:	f2bee002 	movk	x2, #0xf700, lsl #16
   848b8:	8b020022 	add	x2, x1, x2
   848bc:	f13ffc5f 	cmp	x2, #0xfff
   848c0:	54000169 	b.ls	848ec <map_page+0x68>  // b.plast
   848c4:	d34c5021 	ubfx	x1, x1, #12, #9
   848c8:	aa030263 	orr	x3, x19, x3
   848cc:	f8217803 	str	x3, [x0, x1, lsl #3]
   848d0:	a94153f3 	ldp	x19, x20, [sp, #16]
   848d4:	a8c27bfd 	ldp	x29, x30, [sp], #32
   848d8:	d65f03c0 	ret
   848dc:	f0007be0 	adrp	x0, 1003000 <hex_chars.0+0x1ff8>
   848e0:	9100e000 	add	x0, x0, #0x38
   848e4:	97fff7d9 	bl	82848 <uart_puts_early>
   848e8:	17fffffb 	b	848d4 <map_page+0x50>
   848ec:	f0007be0 	adrp	x0, 1003000 <hex_chars.0+0x1ff8>
   848f0:	9101a000 	add	x0, x0, #0x68
   848f4:	97fff7d5 	bl	82848 <uart_puts_early>
   848f8:	aa1303e0 	mov	x0, x19
   848fc:	97fff7e9 	bl	828a0 <uart_hex64_early>
   84900:	f0007be0 	adrp	x0, 1003000 <hex_chars.0+0x1ff8>
   84904:	91026000 	add	x0, x0, #0x98
   84908:	97fff7d0 	bl	82848 <uart_puts_early>
   8490c:	aa1403e0 	mov	x0, x20
   84910:	97fff7e4 	bl	828a0 <uart_hex64_early>
   84914:	b0007be0 	adrp	x0, 1001000 <GLOBAL_UART>
   84918:	91228000 	add	x0, x0, #0x8a0
   8491c:	97fff7cb 	bl	82848 <uart_puts_early>
   84920:	a94153f3 	ldp	x19, x20, [sp, #16]
   84924:	17ffffec 	b	848d4 <map_page+0x50>

0000000000084928 <eret_test_pattern>:
   84928:	d10043ff 	sub	sp, sp, #0x10
   8492c:	52800a00 	mov	w0, #0x50                  	// #80
   84930:	d2a12002 	mov	x2, #0x9000000             	// #150994944
   84934:	528007a1 	mov	w1, #0x3d                  	// #61
   84938:	b9000041 	str	w1, [x2]
   8493c:	71000400 	subs	w0, w0, #0x1
   84940:	54ffffc1 	b.ne	84938 <eret_test_pattern+0x10>  // b.any
   84944:	d2a12000 	mov	x0, #0x9000000             	// #150994944
   84948:	528001a4 	mov	w4, #0xd                   	// #13
   8494c:	b9000004 	str	w4, [x0]
   84950:	52800143 	mov	w3, #0xa                   	// #10
   84954:	b9000003 	str	w3, [x0]
   84958:	52800a61 	mov	w1, #0x53                  	// #83
   8495c:	b9000001 	str	w1, [x0]
   84960:	52800aa2 	mov	w2, #0x55                  	// #85
   84964:	b9000002 	str	w2, [x0]
   84968:	52800862 	mov	w2, #0x43                  	// #67
   8496c:	b9000002 	str	w2, [x0]
   84970:	b9000002 	str	w2, [x0]
   84974:	528008a2 	mov	w2, #0x45                  	// #69
   84978:	b9000002 	str	w2, [x0]
   8497c:	b9000001 	str	w1, [x0]
   84980:	b9000001 	str	w1, [x0]
   84984:	52800425 	mov	w5, #0x21                  	// #33
   84988:	b9000005 	str	w5, [x0]
   8498c:	52800407 	mov	w7, #0x20                  	// #32
   84990:	b9000007 	str	w7, [x0]
   84994:	b9000002 	str	w2, [x0]
   84998:	52800a46 	mov	w6, #0x52                  	// #82
   8499c:	b9000006 	str	w6, [x0]
   849a0:	b9000002 	str	w2, [x0]
   849a4:	52800a82 	mov	w2, #0x54                  	// #84
   849a8:	b9000002 	str	w2, [x0]
   849ac:	b9000007 	str	w7, [x0]
   849b0:	52800ae2 	mov	w2, #0x57                  	// #87
   849b4:	b9000002 	str	w2, [x0]
   849b8:	528009e2 	mov	w2, #0x4f                  	// #79
   849bc:	b9000002 	str	w2, [x0]
   849c0:	b9000006 	str	w6, [x0]
   849c4:	52800962 	mov	w2, #0x4b                  	// #75
   849c8:	b9000002 	str	w2, [x0]
   849cc:	b9000001 	str	w1, [x0]
   849d0:	b9000005 	str	w5, [x0]
   849d4:	b9000004 	str	w4, [x0]
   849d8:	b9000003 	str	w3, [x0]
   849dc:	52800001 	mov	w1, #0x0                   	// #0
   849e0:	5280078b 	mov	w11, #0x3c                  	// #60
   849e4:	5280066a 	mov	w10, #0x33                  	// #51
   849e8:	2a0703e9 	mov	w9, w7
   849ec:	52800605 	mov	w5, #0x30                  	// #48
   849f0:	52800624 	mov	w4, #0x31                  	// #49
   849f4:	528001a8 	mov	w8, #0xd                   	// #13
   849f8:	2a0303e7 	mov	w7, w3
   849fc:	5290d3e3 	mov	w3, #0x869f                	// #34463
   84a00:	72a00023 	movk	w3, #0x1, lsl #16
   84a04:	52986a06 	mov	w6, #0xc350                	// #50000
   84a08:	528005cc 	mov	w12, #0x2e                  	// #46
   84a0c:	14000013 	b	84a58 <eret_test_pattern+0x130>
   84a10:	b9000005 	str	w5, [x0]
   84a14:	14000016 	b	84a6c <eret_test_pattern+0x144>
   84a18:	b9000005 	str	w5, [x0]
   84a1c:	14000016 	b	84a74 <eret_test_pattern+0x14c>
   84a20:	b9000005 	str	w5, [x0]
   84a24:	14000016 	b	84a7c <eret_test_pattern+0x154>
   84a28:	b9000005 	str	w5, [x0]
   84a2c:	14000016 	b	84a84 <eret_test_pattern+0x15c>
   84a30:	b9400fe2 	ldr	w2, [sp, #12]
   84a34:	6b06005f 	cmp	w2, w6
   84a38:	54000340 	b.eq	84aa0 <eret_test_pattern+0x178>  // b.none
   84a3c:	b9400fe2 	ldr	w2, [sp, #12]
   84a40:	11000442 	add	w2, w2, #0x1
   84a44:	b9000fe2 	str	w2, [sp, #12]
   84a48:	b9400fe2 	ldr	w2, [sp, #12]
   84a4c:	6b03005f 	cmp	w2, w3
   84a50:	54ffff0d 	b.le	84a30 <eret_test_pattern+0x108>
   84a54:	11000421 	add	w1, w1, #0x1
   84a58:	b900000b 	str	w11, [x0]
   84a5c:	b900000a 	str	w10, [x0]
   84a60:	b9000009 	str	w9, [x0]
   84a64:	3607fd61 	tbz	w1, #0, 84a10 <eret_test_pattern+0xe8>
   84a68:	b9000004 	str	w4, [x0]
   84a6c:	360ffd61 	tbz	w1, #1, 84a18 <eret_test_pattern+0xf0>
   84a70:	b9000004 	str	w4, [x0]
   84a74:	3617fd61 	tbz	w1, #2, 84a20 <eret_test_pattern+0xf8>
   84a78:	b9000004 	str	w4, [x0]
   84a7c:	361ffd61 	tbz	w1, #3, 84a28 <eret_test_pattern+0x100>
   84a80:	b9000004 	str	w4, [x0]
   84a84:	b9000008 	str	w8, [x0]
   84a88:	b9000007 	str	w7, [x0]
   84a8c:	b9000fff 	str	wzr, [sp, #12]
   84a90:	b9400fe2 	ldr	w2, [sp, #12]
   84a94:	6b03005f 	cmp	w2, w3
   84a98:	54fffdec 	b.gt	84a54 <eret_test_pattern+0x12c>
   84a9c:	17ffffe5 	b	84a30 <eret_test_pattern+0x108>
   84aa0:	b900000c 	str	w12, [x0]
   84aa4:	17ffffe6 	b	84a3c <eret_test_pattern+0x114>

0000000000084aa8 <print_text_section_info>:
   84aa8:	d2a12000 	mov	x0, #0x9000000             	// #150994944
   84aac:	52800a81 	mov	w1, #0x54                  	// #84
   84ab0:	b9000001 	str	w1, [x0]
   84ab4:	52800b02 	mov	w2, #0x58                  	// #88
   84ab8:	b9000002 	str	w2, [x0]
   84abc:	b9000001 	str	w1, [x0]
   84ac0:	52800741 	mov	w1, #0x3a                  	// #58
   84ac4:	b9000001 	str	w1, [x0]
   84ac8:	52800401 	mov	w1, #0x20                  	// #32
   84acc:	b9000001 	str	w1, [x0]
   84ad0:	90ffffe0 	adrp	x0, 80000 <__text_start>
   84ad4:	91000000 	add	x0, x0, #0x0
   84ad8:	531c7c02 	lsr	w2, w0, #28
   84adc:	1100c043 	add	w3, w2, #0x30
   84ae0:	1100dc41 	add	w1, w2, #0x37
   84ae4:	7100245f 	cmp	w2, #0x9
   84ae8:	1a838021 	csel	w1, w1, w3, hi	// hi = pmore
   84aec:	d2a12002 	mov	x2, #0x9000000             	// #150994944
   84af0:	b9000041 	str	w1, [x2]
   84af4:	53186c00 	ubfx	w0, w0, #24, #4
   84af8:	1100c002 	add	w2, w0, #0x30
   84afc:	1100dc01 	add	w1, w0, #0x37
   84b00:	7100241f 	cmp	w0, #0x9
   84b04:	1a828020 	csel	w0, w1, w2, hi	// hi = pmore
   84b08:	d2a12001 	mov	x1, #0x9000000             	// #150994944
   84b0c:	b9000020 	str	w0, [x1]
   84b10:	528005a0 	mov	w0, #0x2d                  	// #45
   84b14:	b9000020 	str	w0, [x1]
   84b18:	f0000020 	adrp	x0, 8b000 <mmu_continuation_point>
   84b1c:	9105c000 	add	x0, x0, #0x170
   84b20:	531c7c02 	lsr	w2, w0, #28
   84b24:	1100c043 	add	w3, w2, #0x30
   84b28:	1100dc41 	add	w1, w2, #0x37
   84b2c:	7100245f 	cmp	w2, #0x9
   84b30:	1a838021 	csel	w1, w1, w3, hi	// hi = pmore
   84b34:	d2a12002 	mov	x2, #0x9000000             	// #150994944
   84b38:	b9000041 	str	w1, [x2]
   84b3c:	53186c00 	ubfx	w0, w0, #24, #4
   84b40:	1100c002 	add	w2, w0, #0x30
   84b44:	1100dc01 	add	w1, w0, #0x37
   84b48:	7100241f 	cmp	w0, #0x9
   84b4c:	1a828021 	csel	w1, w1, w2, hi	// hi = pmore
   84b50:	d2a12000 	mov	x0, #0x9000000             	// #150994944
   84b54:	b9000001 	str	w1, [x0]
   84b58:	528001a1 	mov	w1, #0xd                   	// #13
   84b5c:	b9000001 	str	w1, [x0]
   84b60:	52800141 	mov	w1, #0xa                   	// #10
   84b64:	b9000001 	str	w1, [x0]
   84b68:	d65f03c0 	ret

0000000000084b6c <debug_memory_permissions>:
   84b6c:	d2a12000 	mov	x0, #0x9000000             	// #150994944
   84b70:	528009a1 	mov	w1, #0x4d                  	// #77
   84b74:	b9000001 	str	w1, [x0]
   84b78:	b9000001 	str	w1, [x0]
   84b7c:	52800aa1 	mov	w1, #0x55                  	// #85
   84b80:	b9000001 	str	w1, [x0]
   84b84:	52800741 	mov	w1, #0x3a                  	// #58
   84b88:	b9000001 	str	w1, [x0]
   84b8c:	52800401 	mov	w1, #0x20                  	// #32
   84b90:	b9000001 	str	w1, [x0]
   84b94:	528009e1 	mov	w1, #0x4f                  	// #79
   84b98:	b9000001 	str	w1, [x0]
   84b9c:	52800961 	mov	w1, #0x4b                  	// #75
   84ba0:	b9000001 	str	w1, [x0]
   84ba4:	528001a1 	mov	w1, #0xd                   	// #13
   84ba8:	b9000001 	str	w1, [x0]
   84bac:	52800141 	mov	w1, #0xa                   	// #10
   84bb0:	b9000001 	str	w1, [x0]
   84bb4:	d65f03c0 	ret

0000000000084bb8 <verify_executable_address>:
   84bb8:	a9bc7bfd 	stp	x29, x30, [sp, #-64]!
   84bbc:	910003fd 	mov	x29, sp
   84bc0:	a90153f3 	stp	x19, x20, [sp, #16]
   84bc4:	a9025bf5 	stp	x21, x22, [sp, #32]
   84bc8:	a90363f7 	stp	x23, x24, [sp, #48]
   84bcc:	aa0003f4 	mov	x20, x0
   84bd0:	aa0103f3 	mov	x19, x1
   84bd4:	aa0203f5 	mov	x21, x2
   84bd8:	f0007be0 	adrp	x0, 1003000 <hex_chars.0+0x1ff8>
   84bdc:	91028000 	add	x0, x0, #0xa0
   84be0:	97fff9ef 	bl	8339c <uart_puts>
   84be4:	aa1503e0 	mov	x0, x21
   84be8:	97fff9ed 	bl	8339c <uart_puts>
   84bec:	f0007be0 	adrp	x0, 1003000 <hex_chars.0+0x1ff8>
   84bf0:	91032000 	add	x0, x0, #0xc8
   84bf4:	97fff9ea 	bl	8339c <uart_puts>
   84bf8:	aa1303e0 	mov	x0, x19
   84bfc:	97fff9f3 	bl	833c8 <uart_hex64>
   84c00:	f0007be0 	adrp	x0, 1003000 <hex_chars.0+0x1ff8>
   84c04:	91034000 	add	x0, x0, #0xd0
   84c08:	97fff9e5 	bl	8339c <uart_puts>
   84c0c:	d367be78 	ubfx	x24, x19, #39, #9
   84c10:	d35e9a77 	ubfx	x23, x19, #30, #9
   84c14:	d3557676 	ubfx	x22, x19, #21, #9
   84c18:	d34c5273 	ubfx	x19, x19, #12, #9
   84c1c:	f0007be0 	adrp	x0, 1003000 <hex_chars.0+0x1ff8>
   84c20:	91036000 	add	x0, x0, #0xd8
   84c24:	97fff9de 	bl	8339c <uart_puts>
   84c28:	aa1803e0 	mov	x0, x24
   84c2c:	97fff9e7 	bl	833c8 <uart_hex64>
   84c30:	f0007be0 	adrp	x0, 1003000 <hex_chars.0+0x1ff8>
   84c34:	9103a000 	add	x0, x0, #0xe8
   84c38:	97fff9d9 	bl	8339c <uart_puts>
   84c3c:	aa1703e0 	mov	x0, x23
   84c40:	97fff9e2 	bl	833c8 <uart_hex64>
   84c44:	f0007be0 	adrp	x0, 1003000 <hex_chars.0+0x1ff8>
   84c48:	9103e000 	add	x0, x0, #0xf8
   84c4c:	97fff9d4 	bl	8339c <uart_puts>
   84c50:	aa1603e0 	mov	x0, x22
   84c54:	97fff9dd 	bl	833c8 <uart_hex64>
   84c58:	f0007be0 	adrp	x0, 1003000 <hex_chars.0+0x1ff8>
   84c5c:	91042000 	add	x0, x0, #0x108
   84c60:	97fff9cf 	bl	8339c <uart_puts>
   84c64:	aa1303e0 	mov	x0, x19
   84c68:	97fff9d8 	bl	833c8 <uart_hex64>
   84c6c:	b0007bf5 	adrp	x21, 1001000 <GLOBAL_UART>
   84c70:	912282b5 	add	x21, x21, #0x8a0
   84c74:	aa1503e0 	mov	x0, x21
   84c78:	97fff9c9 	bl	8339c <uart_puts>
   84c7c:	f8787a94 	ldr	x20, [x20, x24, lsl #3]
   84c80:	f0007be0 	adrp	x0, 1003000 <hex_chars.0+0x1ff8>
   84c84:	91046000 	add	x0, x0, #0x118
   84c88:	97fff9c5 	bl	8339c <uart_puts>
   84c8c:	aa1403e0 	mov	x0, x20
   84c90:	97fff9ce 	bl	833c8 <uart_hex64>
   84c94:	aa1503e0 	mov	x0, x21
   84c98:	97fff9c1 	bl	8339c <uart_puts>
   84c9c:	36000854 	tbz	w20, #0, 84da4 <verify_executable_address+0x1ec>
   84ca0:	9274ce94 	and	x20, x20, #0xfffffffffffff000
   84ca4:	f0007be0 	adrp	x0, 1003000 <hex_chars.0+0x1ff8>
   84ca8:	91052000 	add	x0, x0, #0x148
   84cac:	97fff9bc 	bl	8339c <uart_puts>
   84cb0:	aa1403e0 	mov	x0, x20
   84cb4:	97fff9c5 	bl	833c8 <uart_hex64>
   84cb8:	b0007bf5 	adrp	x21, 1001000 <GLOBAL_UART>
   84cbc:	912282b5 	add	x21, x21, #0x8a0
   84cc0:	aa1503e0 	mov	x0, x21
   84cc4:	97fff9b6 	bl	8339c <uart_puts>
   84cc8:	f8777a94 	ldr	x20, [x20, x23, lsl #3]
   84ccc:	f0007be0 	adrp	x0, 1003000 <hex_chars.0+0x1ff8>
   84cd0:	91056000 	add	x0, x0, #0x158
   84cd4:	97fff9b2 	bl	8339c <uart_puts>
   84cd8:	aa1403e0 	mov	x0, x20
   84cdc:	97fff9bb 	bl	833c8 <uart_hex64>
   84ce0:	aa1503e0 	mov	x0, x21
   84ce4:	97fff9ae 	bl	8339c <uart_puts>
   84ce8:	36000714 	tbz	w20, #0, 84dc8 <verify_executable_address+0x210>
   84cec:	9274ce94 	and	x20, x20, #0xfffffffffffff000
   84cf0:	f0007be0 	adrp	x0, 1003000 <hex_chars.0+0x1ff8>
   84cf4:	91062000 	add	x0, x0, #0x188
   84cf8:	97fff9a9 	bl	8339c <uart_puts>
   84cfc:	aa1403e0 	mov	x0, x20
   84d00:	97fff9b2 	bl	833c8 <uart_hex64>
   84d04:	b0007bf5 	adrp	x21, 1001000 <GLOBAL_UART>
   84d08:	912282b5 	add	x21, x21, #0x8a0
   84d0c:	aa1503e0 	mov	x0, x21
   84d10:	97fff9a3 	bl	8339c <uart_puts>
   84d14:	f8767a94 	ldr	x20, [x20, x22, lsl #3]
   84d18:	f0007be0 	adrp	x0, 1003000 <hex_chars.0+0x1ff8>
   84d1c:	91066000 	add	x0, x0, #0x198
   84d20:	97fff99f 	bl	8339c <uart_puts>
   84d24:	aa1403e0 	mov	x0, x20
   84d28:	97fff9a8 	bl	833c8 <uart_hex64>
   84d2c:	aa1503e0 	mov	x0, x21
   84d30:	97fff99b 	bl	8339c <uart_puts>
   84d34:	36000554 	tbz	w20, #0, 84ddc <verify_executable_address+0x224>
   84d38:	9274ce94 	and	x20, x20, #0xfffffffffffff000
   84d3c:	f0007be0 	adrp	x0, 1003000 <hex_chars.0+0x1ff8>
   84d40:	91072000 	add	x0, x0, #0x1c8
   84d44:	97fff996 	bl	8339c <uart_puts>
   84d48:	aa1403e0 	mov	x0, x20
   84d4c:	97fff99f 	bl	833c8 <uart_hex64>
   84d50:	b0007be0 	adrp	x0, 1001000 <GLOBAL_UART>
   84d54:	91228000 	add	x0, x0, #0x8a0
   84d58:	97fff991 	bl	8339c <uart_puts>
   84d5c:	b40004b4 	cbz	x20, 84df0 <verify_executable_address+0x238>
   84d60:	f8737a93 	ldr	x19, [x20, x19, lsl #3]
   84d64:	f0007be0 	adrp	x0, 1003000 <hex_chars.0+0x1ff8>
   84d68:	9107e000 	add	x0, x0, #0x1f8
   84d6c:	97fff98c 	bl	8339c <uart_puts>
   84d70:	aa1303e0 	mov	x0, x19
   84d74:	97fff995 	bl	833c8 <uart_hex64>
   84d78:	b0007be0 	adrp	x0, 1001000 <GLOBAL_UART>
   84d7c:	91228000 	add	x0, x0, #0x8a0
   84d80:	97fff987 	bl	8339c <uart_puts>
   84d84:	36000413 	tbz	w19, #0, 84e04 <verify_executable_address+0x24c>
   84d88:	b7a80493 	tbnz	x19, #53, 84e18 <verify_executable_address+0x260>
   84d8c:	36500513 	tbz	w19, #10, 84e2c <verify_executable_address+0x274>
   84d90:	f0007be0 	adrp	x0, 1003000 <hex_chars.0+0x1ff8>
   84d94:	910a6000 	add	x0, x0, #0x298
   84d98:	97fff981 	bl	8339c <uart_puts>
   84d9c:	52800020 	mov	w0, #0x1                   	// #1
   84da0:	14000005 	b	84db4 <verify_executable_address+0x1fc>
   84da4:	f0007be0 	adrp	x0, 1003000 <hex_chars.0+0x1ff8>
   84da8:	9104a000 	add	x0, x0, #0x128
   84dac:	97fff97c 	bl	8339c <uart_puts>
   84db0:	52800000 	mov	w0, #0x0                   	// #0
   84db4:	a94153f3 	ldp	x19, x20, [sp, #16]
   84db8:	a9425bf5 	ldp	x21, x22, [sp, #32]
   84dbc:	a94363f7 	ldp	x23, x24, [sp, #48]
   84dc0:	a8c47bfd 	ldp	x29, x30, [sp], #64
   84dc4:	d65f03c0 	ret
   84dc8:	f0007be0 	adrp	x0, 1003000 <hex_chars.0+0x1ff8>
   84dcc:	9105a000 	add	x0, x0, #0x168
   84dd0:	97fff973 	bl	8339c <uart_puts>
   84dd4:	52800000 	mov	w0, #0x0                   	// #0
   84dd8:	17fffff7 	b	84db4 <verify_executable_address+0x1fc>
   84ddc:	f0007be0 	adrp	x0, 1003000 <hex_chars.0+0x1ff8>
   84de0:	9106a000 	add	x0, x0, #0x1a8
   84de4:	97fff96e 	bl	8339c <uart_puts>
   84de8:	52800000 	mov	w0, #0x0                   	// #0
   84dec:	17fffff2 	b	84db4 <verify_executable_address+0x1fc>
   84df0:	f0007be0 	adrp	x0, 1003000 <hex_chars.0+0x1ff8>
   84df4:	91076000 	add	x0, x0, #0x1d8
   84df8:	97fff969 	bl	8339c <uart_puts>
   84dfc:	52800000 	mov	w0, #0x0                   	// #0
   84e00:	17ffffed 	b	84db4 <verify_executable_address+0x1fc>
   84e04:	f0007be0 	adrp	x0, 1003000 <hex_chars.0+0x1ff8>
   84e08:	91082000 	add	x0, x0, #0x208
   84e0c:	97fff964 	bl	8339c <uart_puts>
   84e10:	52800000 	mov	w0, #0x0                   	// #0
   84e14:	17ffffe8 	b	84db4 <verify_executable_address+0x1fc>
   84e18:	f0007be0 	adrp	x0, 1003000 <hex_chars.0+0x1ff8>
   84e1c:	9108a000 	add	x0, x0, #0x228
   84e20:	97fff95f 	bl	8339c <uart_puts>
   84e24:	52800000 	mov	w0, #0x0                   	// #0
   84e28:	17ffffe3 	b	84db4 <verify_executable_address+0x1fc>
   84e2c:	f0007be0 	adrp	x0, 1003000 <hex_chars.0+0x1ff8>
   84e30:	91098000 	add	x0, x0, #0x260
   84e34:	97fff95a 	bl	8339c <uart_puts>
   84e38:	52800000 	mov	w0, #0x0                   	// #0
   84e3c:	17ffffde 	b	84db4 <verify_executable_address+0x1fc>

0000000000084e40 <get_l3_table_for_addr>:
   84e40:	a9bb7bfd 	stp	x29, x30, [sp, #-80]!
   84e44:	910003fd 	mov	x29, sp
   84e48:	a90153f3 	stp	x19, x20, [sp, #16]
   84e4c:	aa0003f4 	mov	x20, x0
   84e50:	b40003c0 	cbz	x0, 84ec8 <get_l3_table_for_addr+0x88>
   84e54:	a9025bf5 	stp	x21, x22, [sp, #32]
   84e58:	a90363f7 	stp	x23, x24, [sp, #48]
   84e5c:	f90023f9 	str	x25, [sp, #64]
   84e60:	aa0103f5 	mov	x21, x1
   84e64:	d35e9838 	ubfx	x24, x1, #30, #9
   84e68:	d3557436 	ubfx	x22, x1, #21, #9
   84e6c:	d367bc37 	ubfx	x23, x1, #39, #9
   84e70:	8b170c19 	add	x25, x0, x23, lsl #3
   84e74:	f8777800 	ldr	x0, [x0, x23, lsl #3]
   84e78:	36000320 	tbz	w0, #0, 84edc <get_l3_table_for_addr+0x9c>
   84e7c:	f8777a94 	ldr	x20, [x20, x23, lsl #3]
   84e80:	9274ce94 	and	x20, x20, #0xfffffffffffff000
   84e84:	8b180e97 	add	x23, x20, x24, lsl #3
   84e88:	f8787a80 	ldr	x0, [x20, x24, lsl #3]
   84e8c:	360005e0 	tbz	w0, #0, 84f48 <get_l3_table_for_addr+0x108>
   84e90:	f8787a94 	ldr	x20, [x20, x24, lsl #3]
   84e94:	9274ce94 	and	x20, x20, #0xfffffffffffff000
   84e98:	8b160e97 	add	x23, x20, x22, lsl #3
   84e9c:	f8767a80 	ldr	x0, [x20, x22, lsl #3]
   84ea0:	360008a0 	tbz	w0, #0, 84fb4 <get_l3_table_for_addr+0x174>
   84ea4:	f8767a93 	ldr	x19, [x20, x22, lsl #3]
   84ea8:	9274ce73 	and	x19, x19, #0xfffffffffffff000
   84eac:	a9425bf5 	ldp	x21, x22, [sp, #32]
   84eb0:	a94363f7 	ldp	x23, x24, [sp, #48]
   84eb4:	f94023f9 	ldr	x25, [sp, #64]
   84eb8:	aa1303e0 	mov	x0, x19
   84ebc:	a94153f3 	ldp	x19, x20, [sp, #16]
   84ec0:	a8c57bfd 	ldp	x29, x30, [sp], #80
   84ec4:	d65f03c0 	ret
   84ec8:	f0007be0 	adrp	x0, 1003000 <hex_chars.0+0x1ff8>
   84ecc:	910b4000 	add	x0, x0, #0x2d0
   84ed0:	97fff933 	bl	8339c <uart_puts>
   84ed4:	aa1403f3 	mov	x19, x20
   84ed8:	17fffff8 	b	84eb8 <get_l3_table_for_addr+0x78>
   84edc:	f0007be0 	adrp	x0, 1003000 <hex_chars.0+0x1ff8>
   84ee0:	910c2000 	add	x0, x0, #0x308
   84ee4:	97fff92e 	bl	8339c <uart_puts>
   84ee8:	aa1503e0 	mov	x0, x21
   84eec:	97fff937 	bl	833c8 <uart_hex64>
   84ef0:	f0007be0 	adrp	x0, 1003000 <hex_chars.0+0x1ff8>
   84ef4:	910ca000 	add	x0, x0, #0x328
   84ef8:	97fff929 	bl	8339c <uart_puts>
   84efc:	97fffb47 	bl	83c18 <alloc_page>
   84f00:	aa0003f3 	mov	x19, x0
   84f04:	b4000140 	cbz	x0, 84f2c <get_l3_table_for_addr+0xec>
   84f08:	d2820002 	mov	x2, #0x1000                	// #4096
   84f0c:	52800001 	mov	w1, #0x0                   	// #0
   84f10:	97fff9c6 	bl	83628 <memset>
   84f14:	b2400673 	orr	x19, x19, #0x3
   84f18:	f8377a93 	str	x19, [x20, x23, lsl #3]
   84f1c:	d50b7a39 	dc	cvac, x25
   84f20:	d5033b9f 	dsb	ish
   84f24:	d5033fdf 	isb
   84f28:	17ffffd5 	b	84e7c <get_l3_table_for_addr+0x3c>
   84f2c:	f0007be0 	adrp	x0, 1003000 <hex_chars.0+0x1ff8>
   84f30:	910d2000 	add	x0, x0, #0x348
   84f34:	97fff91a 	bl	8339c <uart_puts>
   84f38:	a9425bf5 	ldp	x21, x22, [sp, #32]
   84f3c:	a94363f7 	ldp	x23, x24, [sp, #48]
   84f40:	f94023f9 	ldr	x25, [sp, #64]
   84f44:	17ffffdd 	b	84eb8 <get_l3_table_for_addr+0x78>
   84f48:	f0007be0 	adrp	x0, 1003000 <hex_chars.0+0x1ff8>
   84f4c:	910de000 	add	x0, x0, #0x378
   84f50:	97fff913 	bl	8339c <uart_puts>
   84f54:	aa1503e0 	mov	x0, x21
   84f58:	97fff91c 	bl	833c8 <uart_hex64>
   84f5c:	f0007be0 	adrp	x0, 1003000 <hex_chars.0+0x1ff8>
   84f60:	910e6000 	add	x0, x0, #0x398
   84f64:	97fff90e 	bl	8339c <uart_puts>
   84f68:	97fffb2c 	bl	83c18 <alloc_page>
   84f6c:	aa0003f3 	mov	x19, x0
   84f70:	b4000140 	cbz	x0, 84f98 <get_l3_table_for_addr+0x158>
   84f74:	d2820002 	mov	x2, #0x1000                	// #4096
   84f78:	52800001 	mov	w1, #0x0                   	// #0
   84f7c:	97fff9ab 	bl	83628 <memset>
   84f80:	b2400673 	orr	x19, x19, #0x3
   84f84:	f8387a93 	str	x19, [x20, x24, lsl #3]
   84f88:	d50b7a37 	dc	cvac, x23
   84f8c:	d5033b9f 	dsb	ish
   84f90:	d5033fdf 	isb
   84f94:	17ffffbf 	b	84e90 <get_l3_table_for_addr+0x50>
   84f98:	f0007be0 	adrp	x0, 1003000 <hex_chars.0+0x1ff8>
   84f9c:	910ee000 	add	x0, x0, #0x3b8
   84fa0:	97fff8ff 	bl	8339c <uart_puts>
   84fa4:	a9425bf5 	ldp	x21, x22, [sp, #32]
   84fa8:	a94363f7 	ldp	x23, x24, [sp, #48]
   84fac:	f94023f9 	ldr	x25, [sp, #64]
   84fb0:	17ffffc2 	b	84eb8 <get_l3_table_for_addr+0x78>
   84fb4:	f0007be0 	adrp	x0, 1003000 <hex_chars.0+0x1ff8>
   84fb8:	910fa000 	add	x0, x0, #0x3e8
   84fbc:	97fff8f8 	bl	8339c <uart_puts>
   84fc0:	aa1503e0 	mov	x0, x21
   84fc4:	97fff901 	bl	833c8 <uart_hex64>
   84fc8:	f0007be0 	adrp	x0, 1003000 <hex_chars.0+0x1ff8>
   84fcc:	91102000 	add	x0, x0, #0x408
   84fd0:	97fff8f3 	bl	8339c <uart_puts>
   84fd4:	97fffb11 	bl	83c18 <alloc_page>
   84fd8:	aa0003f3 	mov	x19, x0
   84fdc:	b4000140 	cbz	x0, 85004 <get_l3_table_for_addr+0x1c4>
   84fe0:	d2820002 	mov	x2, #0x1000                	// #4096
   84fe4:	52800001 	mov	w1, #0x0                   	// #0
   84fe8:	97fff990 	bl	83628 <memset>
   84fec:	b2400673 	orr	x19, x19, #0x3
   84ff0:	f8367a93 	str	x19, [x20, x22, lsl #3]
   84ff4:	d50b7a37 	dc	cvac, x23
   84ff8:	d5033b9f 	dsb	ish
   84ffc:	d5033fdf 	isb
   85000:	17ffffa9 	b	84ea4 <get_l3_table_for_addr+0x64>
   85004:	d0007be0 	adrp	x0, 1003000 <hex_chars.0+0x1ff8>
   85008:	9110a000 	add	x0, x0, #0x428
   8500c:	97fff8e4 	bl	8339c <uart_puts>
   85010:	a9425bf5 	ldp	x21, x22, [sp, #32]
   85014:	a94363f7 	ldp	x23, x24, [sp, #48]
   85018:	f94023f9 	ldr	x25, [sp, #64]
   8501c:	17ffffa7 	b	84eb8 <get_l3_table_for_addr+0x78>

0000000000085020 <verify_code_is_executable>:
   85020:	a9b87bfd 	stp	x29, x30, [sp, #-128]!
   85024:	910003fd 	mov	x29, sp
   85028:	a9025bf5 	stp	x21, x22, [sp, #32]
   8502c:	d2a12000 	mov	x0, #0x9000000             	// #150994944
   85030:	528008c1 	mov	w1, #0x46                  	// #70
   85034:	b9000001 	str	w1, [x0]
   85038:	52800921 	mov	w1, #0x49                  	// #73
   8503c:	b9000001 	str	w1, [x0]
   85040:	52800b01 	mov	w1, #0x58                  	// #88
   85044:	b9000001 	str	w1, [x0]
   85048:	b9000001 	str	w1, [x0]
   8504c:	52800741 	mov	w1, #0x3a                  	// #58
   85050:	b9000001 	str	w1, [x0]
   85054:	d0007c00 	adrp	x0, 1007000 <mmu_msg>
   85058:	f9414416 	ldr	x22, [x0, #648]
   8505c:	b4000296 	cbz	x22, 850ac <verify_code_is_executable+0x8c>
   85060:	a90153f3 	stp	x19, x20, [sp, #16]
   85064:	90007be0 	adrp	x0, 1001000 <GLOBAL_UART>
   85068:	91008000 	add	x0, x0, #0x20
   8506c:	910143e1 	add	x1, sp, #0x50
   85070:	ad40741f 	ldp	q31, q29, [x0]
   85074:	3dc0081e 	ldr	q30, [x0, #32]
   85078:	ad00743f 	stp	q31, q29, [x1]
   8507c:	3d801ffe 	str	q30, [sp, #112]
   85080:	9e6603f3 	fmov	x19, d31
   85084:	b40004f3 	cbz	x19, 85120 <verify_code_is_executable+0x100>
   85088:	a90363f7 	stp	x23, x24, [sp, #48]
   8508c:	a9046bf9 	stp	x25, x26, [sp, #64]
   85090:	d2800014 	mov	x20, #0x0                   	// #0
   85094:	d2a12015 	mov	x21, #0x9000000             	// #150994944
   85098:	52800b17 	mov	w23, #0x58                  	// #88
   8509c:	5280099a 	mov	w26, #0x4c                  	// #76
   850a0:	52800679 	mov	w25, #0x33                  	// #51
   850a4:	52800438 	mov	w24, #0x21                  	// #33
   850a8:	14000010 	b	850e8 <verify_code_is_executable+0xc8>
   850ac:	d2a12000 	mov	x0, #0x9000000             	// #150994944
   850b0:	52800981 	mov	w1, #0x4c                  	// #76
   850b4:	b9000001 	str	w1, [x0]
   850b8:	52800601 	mov	w1, #0x30                  	// #48
   850bc:	b9000001 	str	w1, [x0]
   850c0:	52800421 	mov	w1, #0x21                  	// #33
   850c4:	b9000001 	str	w1, [x0]
   850c8:	14000024 	b	85158 <verify_code_is_executable+0x138>
   850cc:	b90002ba 	str	w26, [x21]
   850d0:	b90002b9 	str	w25, [x21]
   850d4:	b90002b8 	str	w24, [x21]
   850d8:	91000694 	add	x20, x20, #0x1
   850dc:	910143e0 	add	x0, sp, #0x50
   850e0:	f8747813 	ldr	x19, [x0, x20, lsl #3]
   850e4:	b40001b3 	cbz	x19, 85118 <verify_code_is_executable+0xf8>
   850e8:	aa1303e1 	mov	x1, x19
   850ec:	aa1603e0 	mov	x0, x22
   850f0:	97ffff54 	bl	84e40 <get_l3_table_for_addr>
   850f4:	b4fffec0 	cbz	x0, 850cc <verify_code_is_executable+0xac>
   850f8:	d34c5273 	ubfx	x19, x19, #12, #9
   850fc:	f8737801 	ldr	x1, [x0, x19, lsl #3]
   85100:	9249f421 	and	x1, x1, #0xff9fffffffffffff
   85104:	f8337801 	str	x1, [x0, x19, lsl #3]
   85108:	b90002b7 	str	w23, [x21]
   8510c:	1100c280 	add	w0, w20, #0x30
   85110:	b90002a0 	str	w0, [x21]
   85114:	17fffff1 	b	850d8 <verify_code_is_executable+0xb8>
   85118:	a94363f7 	ldp	x23, x24, [sp, #48]
   8511c:	a9446bf9 	ldp	x25, x26, [sp, #64]
   85120:	d5033a9f 	dsb	ishst
   85124:	d508831f 	tlbi	vmalle1is
   85128:	d5033b9f 	dsb	ish
   8512c:	d5033fdf 	isb
   85130:	d2a12000 	mov	x0, #0x9000000             	// #150994944
   85134:	528009e1 	mov	w1, #0x4f                  	// #79
   85138:	b9000001 	str	w1, [x0]
   8513c:	52800961 	mov	w1, #0x4b                  	// #75
   85140:	b9000001 	str	w1, [x0]
   85144:	528001a1 	mov	w1, #0xd                   	// #13
   85148:	b9000001 	str	w1, [x0]
   8514c:	52800141 	mov	w1, #0xa                   	// #10
   85150:	b9000001 	str	w1, [x0]
   85154:	a94153f3 	ldp	x19, x20, [sp, #16]
   85158:	a9425bf5 	ldp	x21, x22, [sp, #32]
   8515c:	a8c87bfd 	ldp	x29, x30, [sp], #128
   85160:	d65f03c0 	ret

0000000000085164 <map_page_direct>:
   85164:	a9bc7bfd 	stp	x29, x30, [sp, #-64]!
   85168:	910003fd 	mov	x29, sp
   8516c:	a90153f3 	stp	x19, x20, [sp, #16]
   85170:	aa0003f4 	mov	x20, x0
   85174:	d0007c00 	adrp	x0, 1007000 <mmu_msg>
   85178:	f9414400 	ldr	x0, [x0, #648]
   8517c:	b4000320 	cbz	x0, 851e0 <map_page_direct+0x7c>
   85180:	a9025bf5 	stp	x21, x22, [sp, #32]
   85184:	a90363f7 	stp	x23, x24, [sp, #48]
   85188:	aa0103f7 	mov	x23, x1
   8518c:	aa0203f5 	mov	x21, x2
   85190:	aa0303f8 	mov	x24, x3
   85194:	aa1403e1 	mov	x1, x20
   85198:	97ffff2a 	bl	84e40 <get_l3_table_for_addr>
   8519c:	aa0003f6 	mov	x22, x0
   851a0:	b40002e0 	cbz	x0, 851fc <map_page_direct+0x98>
   851a4:	d2800013 	mov	x19, #0x0                   	// #0
   851a8:	b4000255 	cbz	x21, 851f0 <map_page_direct+0x8c>
   851ac:	aa1803e3 	mov	x3, x24
   851b0:	8b1302e2 	add	x2, x23, x19
   851b4:	8b130281 	add	x1, x20, x19
   851b8:	aa1603e0 	mov	x0, x22
   851bc:	97fffdb2 	bl	84884 <map_page>
   851c0:	91400673 	add	x19, x19, #0x1, lsl #12
   851c4:	eb1302bf 	cmp	x21, x19
   851c8:	54ffff28 	b.hi	851ac <map_page_direct+0x48>  // b.pmore
   851cc:	a9425bf5 	ldp	x21, x22, [sp, #32]
   851d0:	a94363f7 	ldp	x23, x24, [sp, #48]
   851d4:	a94153f3 	ldp	x19, x20, [sp, #16]
   851d8:	a8c47bfd 	ldp	x29, x30, [sp], #64
   851dc:	d65f03c0 	ret
   851e0:	d0007be0 	adrp	x0, 1003000 <hex_chars.0+0x1ff8>
   851e4:	91116000 	add	x0, x0, #0x458
   851e8:	97fff86d 	bl	8339c <uart_puts>
   851ec:	17fffffa 	b	851d4 <map_page_direct+0x70>
   851f0:	a9425bf5 	ldp	x21, x22, [sp, #32]
   851f4:	a94363f7 	ldp	x23, x24, [sp, #48]
   851f8:	17fffff7 	b	851d4 <map_page_direct+0x70>
   851fc:	d0007be0 	adrp	x0, 1003000 <hex_chars.0+0x1ff8>
   85200:	91126000 	add	x0, x0, #0x498
   85204:	97fff866 	bl	8339c <uart_puts>
   85208:	aa1403e0 	mov	x0, x20
   8520c:	97fff86f 	bl	833c8 <uart_hex64>
   85210:	90007be0 	adrp	x0, 1001000 <GLOBAL_UART>
   85214:	91228000 	add	x0, x0, #0x8a0
   85218:	97fff861 	bl	8339c <uart_puts>
   8521c:	a9425bf5 	ldp	x21, x22, [sp, #32]
   85220:	a94363f7 	ldp	x23, x24, [sp, #48]
   85224:	17ffffec 	b	851d4 <map_page_direct+0x70>

0000000000085228 <map_page_region>:
   85228:	a9bc7bfd 	stp	x29, x30, [sp, #-64]!
   8522c:	910003fd 	mov	x29, sp
   85230:	a90153f3 	stp	x19, x20, [sp, #16]
   85234:	aa0003f4 	mov	x20, x0
   85238:	d0007c00 	adrp	x0, 1007000 <mmu_msg>
   8523c:	f9414400 	ldr	x0, [x0, #648]
   85240:	b4000320 	cbz	x0, 852a4 <map_page_region+0x7c>
   85244:	a9025bf5 	stp	x21, x22, [sp, #32]
   85248:	a90363f7 	stp	x23, x24, [sp, #48]
   8524c:	aa0103f7 	mov	x23, x1
   85250:	aa0203f5 	mov	x21, x2
   85254:	aa0303f8 	mov	x24, x3
   85258:	aa1403e1 	mov	x1, x20
   8525c:	97fffef9 	bl	84e40 <get_l3_table_for_addr>
   85260:	aa0003f6 	mov	x22, x0
   85264:	b40002e0 	cbz	x0, 852c0 <map_page_region+0x98>
   85268:	d2800013 	mov	x19, #0x0                   	// #0
   8526c:	b4000255 	cbz	x21, 852b4 <map_page_region+0x8c>
   85270:	aa1803e3 	mov	x3, x24
   85274:	8b1302e2 	add	x2, x23, x19
   85278:	8b130281 	add	x1, x20, x19
   8527c:	aa1603e0 	mov	x0, x22
   85280:	97fffd81 	bl	84884 <map_page>
   85284:	91400673 	add	x19, x19, #0x1, lsl #12
   85288:	eb1302bf 	cmp	x21, x19
   8528c:	54ffff28 	b.hi	85270 <map_page_region+0x48>  // b.pmore
   85290:	a9425bf5 	ldp	x21, x22, [sp, #32]
   85294:	a94363f7 	ldp	x23, x24, [sp, #48]
   85298:	a94153f3 	ldp	x19, x20, [sp, #16]
   8529c:	a8c47bfd 	ldp	x29, x30, [sp], #64
   852a0:	d65f03c0 	ret
   852a4:	d0007be0 	adrp	x0, 1003000 <hex_chars.0+0x1ff8>
   852a8:	91116000 	add	x0, x0, #0x458
   852ac:	97fff83c 	bl	8339c <uart_puts>
   852b0:	17fffffa 	b	85298 <map_page_region+0x70>
   852b4:	a9425bf5 	ldp	x21, x22, [sp, #32]
   852b8:	a94363f7 	ldp	x23, x24, [sp, #48]
   852bc:	17fffff7 	b	85298 <map_page_region+0x70>
   852c0:	d0007be0 	adrp	x0, 1003000 <hex_chars.0+0x1ff8>
   852c4:	91126000 	add	x0, x0, #0x498
   852c8:	97fff835 	bl	8339c <uart_puts>
   852cc:	aa1403e0 	mov	x0, x20
   852d0:	97fff83e 	bl	833c8 <uart_hex64>
   852d4:	90007be0 	adrp	x0, 1001000 <GLOBAL_UART>
   852d8:	91228000 	add	x0, x0, #0x8a0
   852dc:	97fff830 	bl	8339c <uart_puts>
   852e0:	a9425bf5 	ldp	x21, x22, [sp, #32]
   852e4:	a94363f7 	ldp	x23, x24, [sp, #48]
   852e8:	17ffffec 	b	85298 <map_page_region+0x70>

00000000000852ec <init_mmu_after_el1>:
   852ec:	a9be7bfd 	stp	x29, x30, [sp, #-32]!
   852f0:	910003fd 	mov	x29, sp
   852f4:	97fffa49 	bl	83c18 <alloc_page>
   852f8:	d0007c01 	adrp	x1, 1007000 <mmu_msg>
   852fc:	f9014420 	str	x0, [x1, #648]
   85300:	b4000600 	cbz	x0, 853c0 <init_mmu_after_el1+0xd4>
   85304:	a90153f3 	stp	x19, x20, [sp, #16]
   85308:	d0007be0 	adrp	x0, 1003000 <hex_chars.0+0x1ff8>
   8530c:	91140000 	add	x0, x0, #0x500
   85310:	97fff823 	bl	8339c <uart_puts>
   85314:	d0007c13 	adrp	x19, 1007000 <mmu_msg>
   85318:	f9414660 	ldr	x0, [x19, #648]
   8531c:	97fff82b 	bl	833c8 <uart_hex64>
   85320:	90007be0 	adrp	x0, 1001000 <GLOBAL_UART>
   85324:	91228000 	add	x0, x0, #0x8a0
   85328:	97fff81d 	bl	8339c <uart_puts>
   8532c:	d2820002 	mov	x2, #0x1000                	// #4096
   85330:	52800001 	mov	w1, #0x0                   	// #0
   85334:	f9414660 	ldr	x0, [x19, #648]
   85338:	97fff8bc 	bl	83628 <memset>
   8533c:	97fffa37 	bl	83c18 <alloc_page>
   85340:	aa0003f3 	mov	x19, x0
   85344:	b4000460 	cbz	x0, 853d0 <init_mmu_after_el1+0xe4>
   85348:	d0007be0 	adrp	x0, 1003000 <hex_chars.0+0x1ff8>
   8534c:	91156000 	add	x0, x0, #0x558
   85350:	97fff813 	bl	8339c <uart_puts>
   85354:	aa1303e0 	mov	x0, x19
   85358:	97fff81c 	bl	833c8 <uart_hex64>
   8535c:	90007bf4 	adrp	x20, 1001000 <GLOBAL_UART>
   85360:	91228294 	add	x20, x20, #0x8a0
   85364:	aa1403e0 	mov	x0, x20
   85368:	97fff80d 	bl	8339c <uart_puts>
   8536c:	d2820002 	mov	x2, #0x1000                	// #4096
   85370:	52800001 	mov	w1, #0x0                   	// #0
   85374:	aa1303e0 	mov	x0, x19
   85378:	97fff8ac 	bl	83628 <memset>
   8537c:	b2400673 	orr	x19, x19, #0x3
   85380:	d0007c00 	adrp	x0, 1007000 <mmu_msg>
   85384:	f9414400 	ldr	x0, [x0, #648]
   85388:	f9000013 	str	x19, [x0]
   8538c:	d50b7a20 	dc	cvac, x0
   85390:	d5033f9f 	dsb	sy
   85394:	d5033fdf 	isb
   85398:	d0007be0 	adrp	x0, 1003000 <hex_chars.0+0x1ff8>
   8539c:	91160000 	add	x0, x0, #0x580
   853a0:	97fff7ff 	bl	8339c <uart_puts>
   853a4:	aa1303e0 	mov	x0, x19
   853a8:	97fff808 	bl	833c8 <uart_hex64>
   853ac:	aa1403e0 	mov	x0, x20
   853b0:	97fff7fb 	bl	8339c <uart_puts>
   853b4:	a94153f3 	ldp	x19, x20, [sp, #16]
   853b8:	a8c27bfd 	ldp	x29, x30, [sp], #32
   853bc:	d65f03c0 	ret
   853c0:	d0007be0 	adrp	x0, 1003000 <hex_chars.0+0x1ff8>
   853c4:	91134000 	add	x0, x0, #0x4d0
   853c8:	97fff7f5 	bl	8339c <uart_puts>
   853cc:	17fffffb 	b	853b8 <init_mmu_after_el1+0xcc>
   853d0:	d0007be0 	adrp	x0, 1003000 <hex_chars.0+0x1ff8>
   853d4:	9114a000 	add	x0, x0, #0x528
   853d8:	97fff7f1 	bl	8339c <uart_puts>
   853dc:	a94153f3 	ldp	x19, x20, [sp, #16]
   853e0:	17fffff6 	b	853b8 <init_mmu_after_el1+0xcc>

00000000000853e4 <map_code_section>:
   853e4:	a9bd7bfd 	stp	x29, x30, [sp, #-48]!
   853e8:	910003fd 	mov	x29, sp
   853ec:	a90153f3 	stp	x19, x20, [sp, #16]
   853f0:	a9025bf5 	stp	x21, x22, [sp, #32]
   853f4:	d0007be0 	adrp	x0, 1003000 <hex_chars.0+0x1ff8>
   853f8:	91168000 	add	x0, x0, #0x5a0
   853fc:	97fff7e8 	bl	8339c <uart_puts>
   85400:	d2a80113 	mov	x19, #0x40080000            	// #1074266112
   85404:	d0007c14 	adrp	x20, 1007000 <mmu_msg>
   85408:	d0007bf6 	adrp	x22, 1003000 <hex_chars.0+0x1ff8>
   8540c:	911782d6 	add	x22, x22, #0x5e0
   85410:	90007bf5 	adrp	x21, 1001000 <GLOBAL_UART>
   85414:	912282b5 	add	x21, x21, #0x8a0
   85418:	1400000b 	b	85444 <map_code_section+0x60>
   8541c:	aa1603e0 	mov	x0, x22
   85420:	97fff7df 	bl	8339c <uart_puts>
   85424:	aa1303e0 	mov	x0, x19
   85428:	97fff7e8 	bl	833c8 <uart_hex64>
   8542c:	aa1503e0 	mov	x0, x21
   85430:	97fff7db 	bl	8339c <uart_puts>
   85434:	91400673 	add	x19, x19, #0x1, lsl #12
   85438:	d2a80120 	mov	x0, #0x40090000            	// #1074331648
   8543c:	eb00027f 	cmp	x19, x0
   85440:	540001c0 	b.eq	85478 <map_code_section+0x94>  // b.none
   85444:	aa1303e1 	mov	x1, x19
   85448:	f9414680 	ldr	x0, [x20, #648]
   8544c:	97fffe7d 	bl	84e40 <get_l3_table_for_addr>
   85450:	b4fffe60 	cbz	x0, 8541c <map_code_section+0x38>
   85454:	d34c5262 	ubfx	x2, x19, #12, #9
   85458:	8b020c03 	add	x3, x0, x2, lsl #3
   8545c:	d280e0a1 	mov	x1, #0x705                 	// #1797
   85460:	aa010261 	orr	x1, x19, x1
   85464:	f8227801 	str	x1, [x0, x2, lsl #3]
   85468:	d50b7a23 	dc	cvac, x3
   8546c:	d5033b9f 	dsb	ish
   85470:	d5033fdf 	isb
   85474:	17fffff0 	b	85434 <map_code_section+0x50>
   85478:	d0007be0 	adrp	x0, 1003000 <hex_chars.0+0x1ff8>
   8547c:	91188000 	add	x0, x0, #0x620
   85480:	97fff7c7 	bl	8339c <uart_puts>
   85484:	d5033a9f 	dsb	ishst
   85488:	d508831f 	tlbi	vmalle1is
   8548c:	d5033b9f 	dsb	ish
   85490:	d5033fdf 	isb
   85494:	a94153f3 	ldp	x19, x20, [sp, #16]
   85498:	a9425bf5 	ldp	x21, x22, [sp, #32]
   8549c:	a8c37bfd 	ldp	x29, x30, [sp], #48
   854a0:	d65f03c0 	ret

00000000000854a4 <map_kernel_page>:
   854a4:	a9bd7bfd 	stp	x29, x30, [sp, #-48]!
   854a8:	910003fd 	mov	x29, sp
   854ac:	a90153f3 	stp	x19, x20, [sp, #16]
   854b0:	a9025bf5 	stp	x21, x22, [sp, #32]
   854b4:	aa0003f3 	mov	x19, x0
   854b8:	aa0103f5 	mov	x21, x1
   854bc:	aa0203f6 	mov	x22, x2
   854c0:	d0007be0 	adrp	x0, 1003000 <hex_chars.0+0x1ff8>
   854c4:	91192000 	add	x0, x0, #0x648
   854c8:	97ffeef0 	bl	81088 <debug_print>
   854cc:	90007c14 	adrp	x20, 1005000 <hex_chars.0+0x3ff8>
   854d0:	91034294 	add	x20, x20, #0xd0
   854d4:	aa1303e1 	mov	x1, x19
   854d8:	aa1403e0 	mov	x0, x20
   854dc:	97ffef00 	bl	810dc <debug_hex64>
   854e0:	d0007be0 	adrp	x0, 1003000 <hex_chars.0+0x1ff8>
   854e4:	9119a000 	add	x0, x0, #0x668
   854e8:	97ffeee8 	bl	81088 <debug_print>
   854ec:	aa1503e1 	mov	x1, x21
   854f0:	aa1403e0 	mov	x0, x20
   854f4:	97ffeefa 	bl	810dc <debug_hex64>
   854f8:	90007be0 	adrp	x0, 1001000 <GLOBAL_UART>
   854fc:	91228000 	add	x0, x0, #0x8a0
   85500:	97ffeee2 	bl	81088 <debug_print>
   85504:	d0007c00 	adrp	x0, 1007000 <mmu_msg>
   85508:	f9414400 	ldr	x0, [x0, #648]
   8550c:	b4000260 	cbz	x0, 85558 <map_kernel_page+0xb4>
   85510:	aa1303e1 	mov	x1, x19
   85514:	97fffe4b 	bl	84e40 <get_l3_table_for_addr>
   85518:	b4000280 	cbz	x0, 85568 <map_kernel_page+0xc4>
   8551c:	aa1603e3 	mov	x3, x22
   85520:	aa1503e2 	mov	x2, x21
   85524:	aa1303e1 	mov	x1, x19
   85528:	97fffcd7 	bl	84884 <map_page>
   8552c:	d5033a9f 	dsb	ishst
   85530:	d508831f 	tlbi	vmalle1is
   85534:	d5033b9f 	dsb	ish
   85538:	d5033fdf 	isb
   8553c:	d0007be0 	adrp	x0, 1003000 <hex_chars.0+0x1ff8>
   85540:	911b8000 	add	x0, x0, #0x6e0
   85544:	97ffeed1 	bl	81088 <debug_print>
   85548:	a94153f3 	ldp	x19, x20, [sp, #16]
   8554c:	a9425bf5 	ldp	x21, x22, [sp, #32]
   85550:	a8c37bfd 	ldp	x29, x30, [sp], #48
   85554:	d65f03c0 	ret
   85558:	d0007be0 	adrp	x0, 1003000 <hex_chars.0+0x1ff8>
   8555c:	9119e000 	add	x0, x0, #0x678
   85560:	97ffeeca 	bl	81088 <debug_print>
   85564:	17fffff9 	b	85548 <map_kernel_page+0xa4>
   85568:	d0007be0 	adrp	x0, 1003000 <hex_chars.0+0x1ff8>
   8556c:	911aa000 	add	x0, x0, #0x6a8
   85570:	97ffeec6 	bl	81088 <debug_print>
   85574:	17fffff5 	b	85548 <map_kernel_page+0xa4>

0000000000085578 <map_user_task_section>:
   85578:	a9bb7bfd 	stp	x29, x30, [sp, #-80]!
   8557c:	910003fd 	mov	x29, sp
   85580:	a90153f3 	stp	x19, x20, [sp, #16]
   85584:	a90363f7 	stp	x23, x24, [sp, #48]
   85588:	d2a12000 	mov	x0, #0x9000000             	// #150994944
   8558c:	52800b61 	mov	w1, #0x5b                  	// #91
   85590:	b9000001 	str	w1, [x0]
   85594:	52800aa1 	mov	w1, #0x55                  	// #85
   85598:	b9000001 	str	w1, [x0]
   8559c:	52800a61 	mov	w1, #0x53                  	// #83
   855a0:	b9000001 	str	w1, [x0]
   855a4:	52800a41 	mov	w1, #0x52                  	// #82
   855a8:	b9000001 	str	w1, [x0]
   855ac:	52800ba2 	mov	w2, #0x5d                  	// #93
   855b0:	b9000002 	str	w2, [x0]
   855b4:	90000033 	adrp	x19, 89000 <create_task+0xcc>
   855b8:	913cc273 	add	x19, x19, #0xf30
   855bc:	52800822 	mov	w2, #0x41                  	// #65
   855c0:	b9000002 	str	w2, [x0]
   855c4:	52800882 	mov	w2, #0x44                  	// #68
   855c8:	b9000002 	str	w2, [x0]
   855cc:	b9000002 	str	w2, [x0]
   855d0:	b9000001 	str	w1, [x0]
   855d4:	52800741 	mov	w1, #0x3a                  	// #58
   855d8:	b9000001 	str	w1, [x0]
   855dc:	d1002266 	sub	x6, x19, #0x8
   855e0:	aa1303e2 	mov	x2, x19
   855e4:	aa0003e1 	mov	x1, x0
   855e8:	39401c40 	ldrb	w0, [x2, #7]
   855ec:	53047c04 	lsr	w4, w0, #4
   855f0:	12000c00 	and	w0, w0, #0xf
   855f4:	1100c085 	add	w5, w4, #0x30
   855f8:	1100dc83 	add	w3, w4, #0x37
   855fc:	7100249f 	cmp	w4, #0x9
   85600:	1a858063 	csel	w3, w3, w5, hi	// hi = pmore
   85604:	b9000023 	str	w3, [x1]
   85608:	1100c004 	add	w4, w0, #0x30
   8560c:	1100dc03 	add	w3, w0, #0x37
   85610:	7100241f 	cmp	w0, #0x9
   85614:	1a848060 	csel	w0, w3, w4, hi	// hi = pmore
   85618:	b9000020 	str	w0, [x1]
   8561c:	d1000442 	sub	x2, x2, #0x1
   85620:	eb06005f 	cmp	x2, x6
   85624:	54fffe21 	b.ne	855e8 <map_user_task_section+0x70>  // b.any
   85628:	d2a12000 	mov	x0, #0x9000000             	// #150994944
   8562c:	528001a1 	mov	w1, #0xd                   	// #13
   85630:	b9000001 	str	w1, [x0]
   85634:	52800141 	mov	w1, #0xa                   	// #10
   85638:	b9000001 	str	w1, [x0]
   8563c:	d0007be0 	adrp	x0, 1003000 <hex_chars.0+0x1ff8>
   85640:	911c2000 	add	x0, x0, #0x708
   85644:	97ffee91 	bl	81088 <debug_print>
   85648:	d0007be0 	adrp	x0, 1003000 <hex_chars.0+0x1ff8>
   8564c:	911d0000 	add	x0, x0, #0x740
   85650:	97ffee8e 	bl	81088 <debug_print>
   85654:	aa1303e1 	mov	x1, x19
   85658:	90007c00 	adrp	x0, 1005000 <hex_chars.0+0x3ff8>
   8565c:	91034000 	add	x0, x0, #0xd0
   85660:	97ffee9f 	bl	810dc <debug_hex64>
   85664:	90007be0 	adrp	x0, 1001000 <GLOBAL_UART>
   85668:	91228000 	add	x0, x0, #0x8a0
   8566c:	97ffee87 	bl	81088 <debug_print>
   85670:	d0007c00 	adrp	x0, 1007000 <mmu_msg>
   85674:	f9414400 	ldr	x0, [x0, #648]
   85678:	9274ce73 	and	x19, x19, #0xfffffffffffff000
   8567c:	91400e78 	add	x24, x19, #0x3, lsl #12
   85680:	b4000500 	cbz	x0, 85720 <map_user_task_section+0x1a8>
   85684:	a9025bf5 	stp	x21, x22, [sp, #32]
   85688:	f90023f9 	str	x25, [sp, #64]
   8568c:	d280f0b9 	mov	x25, #0x785                 	// #1925
   85690:	d0007bf7 	adrp	x23, 1003000 <hex_chars.0+0x1ff8>
   85694:	911d82f7 	add	x23, x23, #0x760
   85698:	90007c14 	adrp	x20, 1005000 <hex_chars.0+0x3ff8>
   8569c:	91034294 	add	x20, x20, #0xd0
   856a0:	d0007bf6 	adrp	x22, 1003000 <hex_chars.0+0x1ff8>
   856a4:	911e22d6 	add	x22, x22, #0x788
   856a8:	d0007bf5 	adrp	x21, 1003000 <hex_chars.0+0x1ff8>
   856ac:	911e62b5 	add	x21, x21, #0x798
   856b0:	aa1903e2 	mov	x2, x25
   856b4:	aa1303e1 	mov	x1, x19
   856b8:	aa1303e0 	mov	x0, x19
   856bc:	97ffff7a 	bl	854a4 <map_kernel_page>
   856c0:	aa1703e0 	mov	x0, x23
   856c4:	97ffee71 	bl	81088 <debug_print>
   856c8:	aa1303e1 	mov	x1, x19
   856cc:	aa1403e0 	mov	x0, x20
   856d0:	97ffee83 	bl	810dc <debug_hex64>
   856d4:	aa1603e0 	mov	x0, x22
   856d8:	97ffee6c 	bl	81088 <debug_print>
   856dc:	aa1303e1 	mov	x1, x19
   856e0:	aa1403e0 	mov	x0, x20
   856e4:	97ffee7e 	bl	810dc <debug_hex64>
   856e8:	aa1503e0 	mov	x0, x21
   856ec:	97ffee67 	bl	81088 <debug_print>
   856f0:	91400673 	add	x19, x19, #0x1, lsl #12
   856f4:	eb13031f 	cmp	x24, x19
   856f8:	54fffdc1 	b.ne	856b0 <map_user_task_section+0x138>  // b.any
   856fc:	d0007be0 	adrp	x0, 1003000 <hex_chars.0+0x1ff8>
   85700:	911f0000 	add	x0, x0, #0x7c0
   85704:	97ffee61 	bl	81088 <debug_print>
   85708:	a9425bf5 	ldp	x21, x22, [sp, #32]
   8570c:	f94023f9 	ldr	x25, [sp, #64]
   85710:	a94153f3 	ldp	x19, x20, [sp, #16]
   85714:	a94363f7 	ldp	x23, x24, [sp, #48]
   85718:	a8c57bfd 	ldp	x29, x30, [sp], #80
   8571c:	d65f03c0 	ret
   85720:	d0007be0 	adrp	x0, 1003000 <hex_chars.0+0x1ff8>
   85724:	9119e000 	add	x0, x0, #0x678
   85728:	97ffee58 	bl	81088 <debug_print>
   8572c:	17fffff9 	b	85710 <map_user_task_section+0x198>

0000000000085730 <get_kernel_l3_table>:
   85730:	a9be7bfd 	stp	x29, x30, [sp, #-32]!
   85734:	910003fd 	mov	x29, sp
   85738:	f9000bf3 	str	x19, [sp, #16]
   8573c:	d0007c00 	adrp	x0, 1007000 <mmu_msg>
   85740:	f9414413 	ldr	x19, [x0, #648]
   85744:	b4000153 	cbz	x19, 8576c <get_kernel_l3_table+0x3c>
   85748:	d2a02001 	mov	x1, #0x1000000             	// #16777216
   8574c:	aa1303e0 	mov	x0, x19
   85750:	97fffdbc 	bl	84e40 <get_l3_table_for_addr>
   85754:	aa0003f3 	mov	x19, x0
   85758:	b4000120 	cbz	x0, 8577c <get_kernel_l3_table+0x4c>
   8575c:	aa1303e0 	mov	x0, x19
   85760:	f9400bf3 	ldr	x19, [sp, #16]
   85764:	a8c27bfd 	ldp	x29, x30, [sp], #32
   85768:	d65f03c0 	ret
   8576c:	d0007be0 	adrp	x0, 1003000 <hex_chars.0+0x1ff8>
   85770:	911fe000 	add	x0, x0, #0x7f8
   85774:	97fff70a 	bl	8339c <uart_puts>
   85778:	17fffff9 	b	8575c <get_kernel_l3_table+0x2c>
   8577c:	d0007be0 	adrp	x0, 1003000 <hex_chars.0+0x1ff8>
   85780:	91210000 	add	x0, x0, #0x840
   85784:	97fff706 	bl	8339c <uart_puts>
   85788:	17fffff5 	b	8575c <get_kernel_l3_table+0x2c>

000000000008578c <get_kernel_page_table>:
   8578c:	d0007c00 	adrp	x0, 1007000 <mmu_msg>
   85790:	f9414400 	ldr	x0, [x0, #648]
   85794:	d65f03c0 	ret

0000000000085798 <get_pte>:
   85798:	aa0003e1 	mov	x1, x0
   8579c:	d0007c00 	adrp	x0, 1007000 <mmu_msg>
   857a0:	f9414400 	ldr	x0, [x0, #648]
   857a4:	b40002c0 	cbz	x0, 857fc <get_pte+0x64>
   857a8:	d367bc22 	ubfx	x2, x1, #39, #9
   857ac:	f8627802 	ldr	x2, [x0, x2, lsl #3]
   857b0:	92400040 	and	x0, x2, #0x1
   857b4:	36000342 	tbz	w2, #0, 8581c <get_pte+0x84>
   857b8:	9274cc42 	and	x2, x2, #0xfffffffffffff000
   857bc:	d35e9820 	ubfx	x0, x1, #30, #9
   857c0:	f8607842 	ldr	x2, [x2, x0, lsl #3]
   857c4:	92400040 	and	x0, x2, #0x1
   857c8:	360002a2 	tbz	w2, #0, 8581c <get_pte+0x84>
   857cc:	9274cc42 	and	x2, x2, #0xfffffffffffff000
   857d0:	d3557420 	ubfx	x0, x1, #21, #9
   857d4:	f8607842 	ldr	x2, [x2, x0, lsl #3]
   857d8:	92400040 	and	x0, x2, #0x1
   857dc:	36000202 	tbz	w2, #0, 8581c <get_pte+0x84>
   857e0:	d2800000 	mov	x0, #0x0                   	// #0
   857e4:	f13ffc5f 	cmp	x2, #0xfff
   857e8:	540001a9 	b.ls	8581c <get_pte+0x84>  // b.plast
   857ec:	9274cc42 	and	x2, x2, #0xfffffffffffff000
   857f0:	d34c5021 	ubfx	x1, x1, #12, #9
   857f4:	f8617840 	ldr	x0, [x2, x1, lsl #3]
   857f8:	d65f03c0 	ret
   857fc:	a9bf7bfd 	stp	x29, x30, [sp, #-16]!
   85800:	910003fd 	mov	x29, sp
   85804:	d0007be0 	adrp	x0, 1003000 <hex_chars.0+0x1ff8>
   85808:	91220000 	add	x0, x0, #0x880
   8580c:	97fff6e4 	bl	8339c <uart_puts>
   85810:	d2800000 	mov	x0, #0x0                   	// #0
   85814:	a8c17bfd 	ldp	x29, x30, [sp], #16
   85818:	d65f03c0 	ret
   8581c:	d65f03c0 	ret

0000000000085820 <ensure_vbar_after_mmu>:
   85820:	a9bd7bfd 	stp	x29, x30, [sp, #-48]!
   85824:	910003fd 	mov	x29, sp
   85828:	a90153f3 	stp	x19, x20, [sp, #16]
   8582c:	f90013f5 	str	x21, [sp, #32]
   85830:	d0007be0 	adrp	x0, 1003000 <hex_chars.0+0x1ff8>
   85834:	91230000 	add	x0, x0, #0x8c0
   85838:	97fff6d9 	bl	8339c <uart_puts>
   8583c:	d538c015 	mrs	x21, vbar_el1
   85840:	d0007be0 	adrp	x0, 1003000 <hex_chars.0+0x1ff8>
   85844:	9123c000 	add	x0, x0, #0x8f0
   85848:	97fff6d5 	bl	8339c <uart_puts>
   8584c:	aa1503e0 	mov	x0, x21
   85850:	97fff6de 	bl	833c8 <uart_hex64>
   85854:	90007bf4 	adrp	x20, 1001000 <GLOBAL_UART>
   85858:	91228294 	add	x20, x20, #0x8a0
   8585c:	aa1403e0 	mov	x0, x20
   85860:	97fff6cf 	bl	8339c <uart_puts>
   85864:	d0007be0 	adrp	x0, 1003000 <hex_chars.0+0x1ff8>
   85868:	91248000 	add	x0, x0, #0x920
   8586c:	97fff6cc 	bl	8339c <uart_puts>
   85870:	d0007c13 	adrp	x19, 1007000 <mmu_msg>
   85874:	910a2273 	add	x19, x19, #0x288
   85878:	f9400660 	ldr	x0, [x19, #8]
   8587c:	97fff6d3 	bl	833c8 <uart_hex64>
   85880:	aa1403e0 	mov	x0, x20
   85884:	97fff6c6 	bl	8339c <uart_puts>
   85888:	f9400660 	ldr	x0, [x19, #8]
   8588c:	b4000220 	cbz	x0, 858d0 <ensure_vbar_after_mmu+0xb0>
   85890:	97ffffc2 	bl	85798 <get_pte>
   85894:	aa0003f3 	mov	x19, x0
   85898:	d0007be0 	adrp	x0, 1003000 <hex_chars.0+0x1ff8>
   8589c:	91264000 	add	x0, x0, #0x990
   858a0:	97fff6bf 	bl	8339c <uart_puts>
   858a4:	aa1303e0 	mov	x0, x19
   858a8:	97fff6c8 	bl	833c8 <uart_hex64>
   858ac:	36000233 	tbz	w19, #0, 858f0 <ensure_vbar_after_mmu+0xd0>
   858b0:	d0007be0 	adrp	x0, 1003000 <hex_chars.0+0x1ff8>
   858b4:	9126c000 	add	x0, x0, #0x9b0
   858b8:	97fff6b9 	bl	8339c <uart_puts>
   858bc:	b6a80133 	tbz	x19, #53, 858e0 <ensure_vbar_after_mmu+0xc0>
   858c0:	d0007be0 	adrp	x0, 1003000 <hex_chars.0+0x1ff8>
   858c4:	91270000 	add	x0, x0, #0x9c0
   858c8:	97fff6b5 	bl	8339c <uart_puts>
   858cc:	1400000f 	b	85908 <ensure_vbar_after_mmu+0xe8>
   858d0:	d0007be0 	adrp	x0, 1003000 <hex_chars.0+0x1ff8>
   858d4:	91252000 	add	x0, x0, #0x948
   858d8:	97fff6b1 	bl	8339c <uart_puts>
   858dc:	1400002f 	b	85998 <ensure_vbar_after_mmu+0x178>
   858e0:	d0007be0 	adrp	x0, 1003000 <hex_chars.0+0x1ff8>
   858e4:	91282000 	add	x0, x0, #0xa08
   858e8:	97fff6ad 	bl	8339c <uart_puts>
   858ec:	14000007 	b	85908 <ensure_vbar_after_mmu+0xe8>
   858f0:	d0007be0 	adrp	x0, 1003000 <hex_chars.0+0x1ff8>
   858f4:	91294000 	add	x0, x0, #0xa50
   858f8:	97fff6a9 	bl	8339c <uart_puts>
   858fc:	d0007be0 	adrp	x0, 1003000 <hex_chars.0+0x1ff8>
   85900:	9129c000 	add	x0, x0, #0xa70
   85904:	97fff6a6 	bl	8339c <uart_puts>
   85908:	b40000b5 	cbz	x21, 8591c <ensure_vbar_after_mmu+0xfc>
   8590c:	d0007c00 	adrp	x0, 1007000 <mmu_msg>
   85910:	f9414800 	ldr	x0, [x0, #656]
   85914:	eb15001f 	cmp	x0, x21
   85918:	54000500 	b.eq	859b8 <ensure_vbar_after_mmu+0x198>  // b.none
   8591c:	d0007be0 	adrp	x0, 1003000 <hex_chars.0+0x1ff8>
   85920:	912ae000 	add	x0, x0, #0xab8
   85924:	97fff69e 	bl	8339c <uart_puts>
   85928:	d0007c13 	adrp	x19, 1007000 <mmu_msg>
   8592c:	910a2273 	add	x19, x19, #0x288
   85930:	f9400660 	ldr	x0, [x19, #8]
   85934:	97fff6a5 	bl	833c8 <uart_hex64>
   85938:	90007be0 	adrp	x0, 1001000 <GLOBAL_UART>
   8593c:	91228000 	add	x0, x0, #0x8a0
   85940:	97fff697 	bl	8339c <uart_puts>
   85944:	f9400660 	ldr	x0, [x19, #8]
   85948:	d518c000 	msr	vbar_el1, x0
   8594c:	d5033fdf 	isb
   85950:	d538c014 	mrs	x20, vbar_el1
   85954:	d0007be0 	adrp	x0, 1003000 <hex_chars.0+0x1ff8>
   85958:	912c0000 	add	x0, x0, #0xb00
   8595c:	97fff690 	bl	8339c <uart_puts>
   85960:	aa1403e0 	mov	x0, x20
   85964:	97fff699 	bl	833c8 <uart_hex64>
   85968:	f9400660 	ldr	x0, [x19, #8]
   8596c:	eb14001f 	cmp	x0, x20
   85970:	540001c0 	b.eq	859a8 <ensure_vbar_after_mmu+0x188>  // b.none
   85974:	d0007be0 	adrp	x0, 1003000 <hex_chars.0+0x1ff8>
   85978:	912ce000 	add	x0, x0, #0xb38
   8597c:	97fff688 	bl	8339c <uart_puts>
   85980:	d0007be0 	adrp	x0, 1003000 <hex_chars.0+0x1ff8>
   85984:	912d6000 	add	x0, x0, #0xb58
   85988:	97fff685 	bl	8339c <uart_puts>
   8598c:	d0007be0 	adrp	x0, 1003000 <hex_chars.0+0x1ff8>
   85990:	912f6000 	add	x0, x0, #0xbd8
   85994:	97fff682 	bl	8339c <uart_puts>
   85998:	a94153f3 	ldp	x19, x20, [sp, #16]
   8599c:	f94013f5 	ldr	x21, [sp, #32]
   859a0:	a8c37bfd 	ldp	x29, x30, [sp], #48
   859a4:	d65f03c0 	ret
   859a8:	d0007be0 	adrp	x0, 1003000 <hex_chars.0+0x1ff8>
   859ac:	912ca000 	add	x0, x0, #0xb28
   859b0:	97fff67b 	bl	8339c <uart_puts>
   859b4:	17fffff6 	b	8598c <ensure_vbar_after_mmu+0x16c>
   859b8:	d0007be0 	adrp	x0, 1003000 <hex_chars.0+0x1ff8>
   859bc:	912e6000 	add	x0, x0, #0xb98
   859c0:	97fff677 	bl	8339c <uart_puts>
   859c4:	17fffff2 	b	8598c <ensure_vbar_after_mmu+0x16c>

00000000000859c8 <verify_page_mapping>:
   859c8:	a9be7bfd 	stp	x29, x30, [sp, #-32]!
   859cc:	910003fd 	mov	x29, sp
   859d0:	f9000bf3 	str	x19, [sp, #16]
   859d4:	aa0003f3 	mov	x19, x0
   859d8:	d0007be0 	adrp	x0, 1003000 <hex_chars.0+0x1ff8>
   859dc:	91304000 	add	x0, x0, #0xc10
   859e0:	97fff66f 	bl	8339c <uart_puts>
   859e4:	aa1303e0 	mov	x0, x19
   859e8:	97fff678 	bl	833c8 <uart_hex64>
   859ec:	90007be0 	adrp	x0, 1001000 <GLOBAL_UART>
   859f0:	9123c000 	add	x0, x0, #0x8f0
   859f4:	97fff66a 	bl	8339c <uart_puts>
   859f8:	aa1303e0 	mov	x0, x19
   859fc:	97ffff67 	bl	85798 <get_pte>
   85a00:	36000260 	tbz	w0, #0, 85a4c <verify_page_mapping+0x84>
   85a04:	aa0003f3 	mov	x19, x0
   85a08:	d0007be0 	adrp	x0, 1003000 <hex_chars.0+0x1ff8>
   85a0c:	9130e000 	add	x0, x0, #0xc38
   85a10:	97fff663 	bl	8339c <uart_puts>
   85a14:	aa1303e0 	mov	x0, x19
   85a18:	97fff66c 	bl	833c8 <uart_hex64>
   85a1c:	90007be0 	adrp	x0, 1001000 <GLOBAL_UART>
   85a20:	91228000 	add	x0, x0, #0x8a0
   85a24:	97fff65e 	bl	8339c <uart_puts>
   85a28:	b7a800b3 	tbnz	x19, #53, 85a3c <verify_page_mapping+0x74>
   85a2c:	d0007be0 	adrp	x0, 1003000 <hex_chars.0+0x1ff8>
   85a30:	91316000 	add	x0, x0, #0xc58
   85a34:	97fff65a 	bl	8339c <uart_puts>
   85a38:	14000008 	b	85a58 <verify_page_mapping+0x90>
   85a3c:	d0007be0 	adrp	x0, 1003000 <hex_chars.0+0x1ff8>
   85a40:	91322000 	add	x0, x0, #0xc88
   85a44:	97fff656 	bl	8339c <uart_puts>
   85a48:	14000004 	b	85a58 <verify_page_mapping+0x90>
   85a4c:	d0007be0 	adrp	x0, 1003000 <hex_chars.0+0x1ff8>
   85a50:	9132e000 	add	x0, x0, #0xcb8
   85a54:	97fff652 	bl	8339c <uart_puts>
   85a58:	f9400bf3 	ldr	x19, [sp, #16]
   85a5c:	a8c27bfd 	ldp	x29, x30, [sp], #32
   85a60:	d65f03c0 	ret

0000000000085a64 <verify_uart_mapping>:
   85a64:	a9be7bfd 	stp	x29, x30, [sp, #-32]!
   85a68:	910003fd 	mov	x29, sp
   85a6c:	a90153f3 	stp	x19, x20, [sp, #16]
   85a70:	d0007be0 	adrp	x0, 1003000 <hex_chars.0+0x1ff8>
   85a74:	9133a000 	add	x0, x0, #0xce8
   85a78:	97fff525 	bl	82f0c <uart_puts_safe_indexed>
   85a7c:	d2a12000 	mov	x0, #0x9000000             	// #150994944
   85a80:	f2ffffe0 	movk	x0, #0xffff, lsl #48
   85a84:	97ffff45 	bl	85798 <get_pte>
   85a88:	aa0003f3 	mov	x19, x0
   85a8c:	d0007be0 	adrp	x0, 1003000 <hex_chars.0+0x1ff8>
   85a90:	91346000 	add	x0, x0, #0xd18
   85a94:	97fff51e 	bl	82f0c <uart_puts_safe_indexed>
   85a98:	aa1303e0 	mov	x0, x19
   85a9c:	97fff505 	bl	82eb0 <uart_emergency_hex64>
   85aa0:	90007be0 	adrp	x0, 1001000 <GLOBAL_UART>
   85aa4:	91228000 	add	x0, x0, #0x8a0
   85aa8:	97fff519 	bl	82f0c <uart_puts_safe_indexed>
   85aac:	36000373 	tbz	w19, #0, 85b18 <verify_uart_mapping+0xb4>
   85ab0:	d0007be0 	adrp	x0, 1003000 <hex_chars.0+0x1ff8>
   85ab4:	9135a000 	add	x0, x0, #0xd68
   85ab8:	97fff515 	bl	82f0c <uart_puts_safe_indexed>
   85abc:	d3421260 	ubfx	x0, x19, #2, #3
   85ac0:	97fff4fc 	bl	82eb0 <uart_emergency_hex64>
   85ac4:	90007bf3 	adrp	x19, 1001000 <GLOBAL_UART>
   85ac8:	91228273 	add	x19, x19, #0x8a0
   85acc:	aa1303e0 	mov	x0, x19
   85ad0:	97fff50f 	bl	82f0c <uart_puts_safe_indexed>
   85ad4:	d2800300 	mov	x0, #0x18                  	// #24
   85ad8:	f2a12000 	movk	x0, #0x900, lsl #16
   85adc:	f2ffffe0 	movk	x0, #0xffff, lsl #48
   85ae0:	b9400014 	ldr	w20, [x0]
   85ae4:	d0007be0 	adrp	x0, 1003000 <hex_chars.0+0x1ff8>
   85ae8:	91364000 	add	x0, x0, #0xd90
   85aec:	97fff508 	bl	82f0c <uart_puts_safe_indexed>
   85af0:	2a1403e0 	mov	w0, w20
   85af4:	97fff4ef 	bl	82eb0 <uart_emergency_hex64>
   85af8:	aa1303e0 	mov	x0, x19
   85afc:	97fff504 	bl	82f0c <uart_puts_safe_indexed>
   85b00:	d0007be0 	adrp	x0, 1003000 <hex_chars.0+0x1ff8>
   85b04:	9136e000 	add	x0, x0, #0xdb8
   85b08:	97fff501 	bl	82f0c <uart_puts_safe_indexed>
   85b0c:	a94153f3 	ldp	x19, x20, [sp, #16]
   85b10:	a8c27bfd 	ldp	x29, x30, [sp], #32
   85b14:	d65f03c0 	ret
   85b18:	d0007be0 	adrp	x0, 1003000 <hex_chars.0+0x1ff8>
   85b1c:	9134e000 	add	x0, x0, #0xd38
   85b20:	97fff4fb 	bl	82f0c <uart_puts_safe_indexed>
   85b24:	17fffffa 	b	85b0c <verify_uart_mapping+0xa8>

0000000000085b28 <read_pte_entry>:
   85b28:	a9bf7bfd 	stp	x29, x30, [sp, #-16]!
   85b2c:	910003fd 	mov	x29, sp
   85b30:	97ffff1a 	bl	85798 <get_pte>
   85b34:	a8c17bfd 	ldp	x29, x30, [sp], #16
   85b38:	d65f03c0 	ret

0000000000085b3c <register_mapping>:
   85b3c:	a9be7bfd 	stp	x29, x30, [sp, #-32]!
   85b40:	910003fd 	mov	x29, sp
   85b44:	f9000bf3 	str	x19, [sp, #16]
   85b48:	aa0403f3 	mov	x19, x4
   85b4c:	d0007c04 	adrp	x4, 1007000 <mmu_msg>
   85b50:	b9429885 	ldr	w5, [x4, #664]
   85b54:	71007cbf 	cmp	w5, #0x1f
   85b58:	5400020c 	b.gt	85b98 <register_mapping+0x5c>
   85b5c:	d0007c04 	adrp	x4, 1007000 <mmu_msg>
   85b60:	910a2084 	add	x4, x4, #0x288
   85b64:	91006088 	add	x8, x4, #0x18
   85b68:	93407ca6 	sxtw	x6, w5
   85b6c:	d2800507 	mov	x7, #0x28                  	// #40
   85b70:	9b077cc6 	mul	x6, x6, x7
   85b74:	8b060107 	add	x7, x8, x6
   85b78:	f8266900 	str	x0, [x8, x6]
   85b7c:	a90088e1 	stp	x1, x2, [x7, #8]
   85b80:	a901cce3 	stp	x3, x19, [x7, #24]
   85b84:	110004a5 	add	w5, w5, #0x1
   85b88:	b9001085 	str	w5, [x4, #16]
   85b8c:	f9400bf3 	ldr	x19, [sp, #16]
   85b90:	a8c27bfd 	ldp	x29, x30, [sp], #32
   85b94:	d65f03c0 	ret
   85b98:	d0007be0 	adrp	x0, 1003000 <hex_chars.0+0x1ff8>
   85b9c:	9137a000 	add	x0, x0, #0xde8
   85ba0:	97fff32a 	bl	82848 <uart_puts_early>
   85ba4:	aa1303e0 	mov	x0, x19
   85ba8:	97fff328 	bl	82848 <uart_puts_early>
   85bac:	90007be0 	adrp	x0, 1001000 <GLOBAL_UART>
   85bb0:	91228000 	add	x0, x0, #0x8a0
   85bb4:	97fff325 	bl	82848 <uart_puts_early>
   85bb8:	17fffff5 	b	85b8c <register_mapping+0x50>

0000000000085bbc <map_range>:
   85bbc:	a9ba7bfd 	stp	x29, x30, [sp, #-96]!
   85bc0:	910003fd 	mov	x29, sp
   85bc4:	a9025bf5 	stp	x21, x22, [sp, #32]
   85bc8:	a90363f7 	stp	x23, x24, [sp, #48]
   85bcc:	a9046bf9 	stp	x25, x26, [sp, #64]
   85bd0:	a90573fb 	stp	x27, x28, [sp, #80]
   85bd4:	aa0003f7 	mov	x23, x0
   85bd8:	aa0103fa 	mov	x26, x1
   85bdc:	aa0203fb 	mov	x27, x2
   85be0:	aa0303fc 	mov	x28, x3
   85be4:	aa0403f6 	mov	x22, x4
   85be8:	d0007be0 	adrp	x0, 1003000 <hex_chars.0+0x1ff8>
   85bec:	9138c000 	add	x0, x0, #0xe30
   85bf0:	97fff316 	bl	82848 <uart_puts_early>
   85bf4:	aa1a03e0 	mov	x0, x26
   85bf8:	97fff32a 	bl	828a0 <uart_hex64_early>
   85bfc:	d0007be0 	adrp	x0, 1003000 <hex_chars.0+0x1ff8>
   85c00:	91392000 	add	x0, x0, #0xe48
   85c04:	97fff311 	bl	82848 <uart_puts_early>
   85c08:	aa1b03e0 	mov	x0, x27
   85c0c:	97fff325 	bl	828a0 <uart_hex64_early>
   85c10:	d0007be0 	adrp	x0, 1003000 <hex_chars.0+0x1ff8>
   85c14:	9119a000 	add	x0, x0, #0x668
   85c18:	97fff30c 	bl	82848 <uart_puts_early>
   85c1c:	aa1c03e0 	mov	x0, x28
   85c20:	97fff320 	bl	828a0 <uart_hex64_early>
   85c24:	d0007be0 	adrp	x0, 1003000 <hex_chars.0+0x1ff8>
   85c28:	91394000 	add	x0, x0, #0xe50
   85c2c:	97fff307 	bl	82848 <uart_puts_early>
   85c30:	aa1603e0 	mov	x0, x22
   85c34:	97fff31b 	bl	828a0 <uart_hex64_early>
   85c38:	90007be0 	adrp	x0, 1001000 <GLOBAL_UART>
   85c3c:	91228000 	add	x0, x0, #0x8a0
   85c40:	97fff302 	bl	82848 <uart_puts_early>
   85c44:	913fff60 	add	x0, x27, #0xfff
   85c48:	cb1a0000 	sub	x0, x0, x26
   85c4c:	f13ffc1f 	cmp	x0, #0xfff
   85c50:	540003a9 	b.ls	85cc4 <map_range+0x108>  // b.plast
   85c54:	a90153f3 	stp	x19, x20, [sp, #16]
   85c58:	d34cfc18 	lsr	x24, x0, #12
   85c5c:	aa1a03f4 	mov	x20, x26
   85c60:	d2800015 	mov	x21, #0x0                   	// #0
   85c64:	cb1a0399 	sub	x25, x28, x26
   85c68:	8b140333 	add	x19, x25, x20
   85c6c:	aa1403e1 	mov	x1, x20
   85c70:	aa1703e0 	mov	x0, x23
   85c74:	97fffc73 	bl	84e40 <get_l3_table_for_addr>
   85c78:	b4000460 	cbz	x0, 85d04 <map_range+0x148>
   85c7c:	d34cfe82 	lsr	x2, x20, #12
   85c80:	92402043 	and	x3, x2, #0x1ff
   85c84:	d37d2041 	ubfiz	x1, x2, #3, #9
   85c88:	8b010001 	add	x1, x0, x1
   85c8c:	d50b7e21 	dc	civac, x1
   85c90:	d5033b9f 	dsb	ish
   85c94:	9274ce73 	and	x19, x19, #0xfffffffffffff000
   85c98:	aa160273 	orr	x19, x19, x22
   85c9c:	f8237813 	str	x19, [x0, x3, lsl #3]
   85ca0:	d50b7e21 	dc	civac, x1
   85ca4:	d5033b9f 	dsb	ish
   85ca8:	d5088362 	tlbi	vaae1is, x2
   85cac:	d5033b9f 	dsb	ish
   85cb0:	910006b5 	add	x21, x21, #0x1
   85cb4:	91400694 	add	x20, x20, #0x1, lsl #12
   85cb8:	eb15031f 	cmp	x24, x21
   85cbc:	54fffd68 	b.hi	85c68 <map_range+0xac>  // b.pmore
   85cc0:	a94153f3 	ldp	x19, x20, [sp, #16]
   85cc4:	d508831f 	tlbi	vmalle1is
   85cc8:	d5033b9f 	dsb	ish
   85ccc:	d5033fdf 	isb
   85cd0:	d0007be4 	adrp	x4, 1003000 <hex_chars.0+0x1ff8>
   85cd4:	913a6084 	add	x4, x4, #0xe98
   85cd8:	aa1603e3 	mov	x3, x22
   85cdc:	aa1c03e2 	mov	x2, x28
   85ce0:	aa1b03e1 	mov	x1, x27
   85ce4:	aa1a03e0 	mov	x0, x26
   85ce8:	97ffff95 	bl	85b3c <register_mapping>
   85cec:	a9425bf5 	ldp	x21, x22, [sp, #32]
   85cf0:	a94363f7 	ldp	x23, x24, [sp, #48]
   85cf4:	a9446bf9 	ldp	x25, x26, [sp, #64]
   85cf8:	a94573fb 	ldp	x27, x28, [sp, #80]
   85cfc:	a8c67bfd 	ldp	x29, x30, [sp], #96
   85d00:	d65f03c0 	ret
   85d04:	d0007be0 	adrp	x0, 1003000 <hex_chars.0+0x1ff8>
   85d08:	91398000 	add	x0, x0, #0xe60
   85d0c:	97fff2cf 	bl	82848 <uart_puts_early>
   85d10:	aa1403e0 	mov	x0, x20
   85d14:	97fff2e3 	bl	828a0 <uart_hex64_early>
   85d18:	90007be0 	adrp	x0, 1001000 <GLOBAL_UART>
   85d1c:	91228000 	add	x0, x0, #0x8a0
   85d20:	97fff2ca 	bl	82848 <uart_puts_early>
   85d24:	17ffffe3 	b	85cb0 <map_range+0xf4>

0000000000085d28 <map_mmu_transition_code>:
   85d28:	d2a12000 	mov	x0, #0x9000000             	// #150994944
   85d2c:	528008a1 	mov	w1, #0x45                  	// #69
   85d30:	b9000001 	str	w1, [x0]
   85d34:	52800741 	mov	w1, #0x3a                  	// #58
   85d38:	b9000001 	str	w1, [x0]
   85d3c:	52800a61 	mov	w1, #0x53                  	// #83
   85d40:	b9000001 	str	w1, [x0]
   85d44:	52800a81 	mov	w1, #0x54                  	// #84
   85d48:	b9000001 	str	w1, [x0]
   85d4c:	52800822 	mov	w2, #0x41                  	// #65
   85d50:	b9000002 	str	w2, [x0]
   85d54:	52800a42 	mov	w2, #0x52                  	// #82
   85d58:	b9000002 	str	w2, [x0]
   85d5c:	b9000001 	str	w1, [x0]
   85d60:	528001a1 	mov	w1, #0xd                   	// #13
   85d64:	b9000001 	str	w1, [x0]
   85d68:	52800141 	mov	w1, #0xa                   	// #10
   85d6c:	b9000001 	str	w1, [x0]
   85d70:	d0007c00 	adrp	x0, 1007000 <mmu_msg>
   85d74:	f9414400 	ldr	x0, [x0, #648]
   85d78:	b4002940 	cbz	x0, 862a0 <map_mmu_transition_code+0x578>
   85d7c:	a9b47bfd 	stp	x29, x30, [sp, #-192]!
   85d80:	910003fd 	mov	x29, sp
   85d84:	a90153f3 	stp	x19, x20, [sp, #16]
   85d88:	a9025bf5 	stp	x21, x22, [sp, #32]
   85d8c:	a90363f7 	stp	x23, x24, [sp, #48]
   85d90:	a9046bf9 	stp	x25, x26, [sp, #64]
   85d94:	a90573fb 	stp	x27, x28, [sp, #80]
   85d98:	b0000014 	adrp	x20, 86000 <map_mmu_transition_code+0x2d8>
   85d9c:	9139c294 	add	x20, x20, #0xe70
   85da0:	d0000020 	adrp	x0, 8b000 <mmu_continuation_point>
   85da4:	91000002 	add	x2, x0, #0x0
   85da8:	10000003 	adr	x3, 85da8 <map_mmu_transition_code+0x80>
   85dac:	a9080fe2 	stp	x2, x3, [sp, #128]
   85db0:	910003e0 	mov	x0, sp
   85db4:	f9005fe0 	str	x0, [sp, #184]
   85db8:	d2a12000 	mov	x0, #0x9000000             	// #150994944
   85dbc:	52800821 	mov	w1, #0x41                  	// #65
   85dc0:	b9000001 	str	w1, [x0]
   85dc4:	52800881 	mov	w1, #0x44                  	// #68
   85dc8:	b9000001 	str	w1, [x0]
   85dcc:	b9000001 	str	w1, [x0]
   85dd0:	52800a41 	mov	w1, #0x52                  	// #82
   85dd4:	b9000001 	str	w1, [x0]
   85dd8:	52800741 	mov	w1, #0x3a                  	// #58
   85ddc:	b9000001 	str	w1, [x0]
   85de0:	528001a1 	mov	w1, #0xd                   	// #13
   85de4:	b9000001 	str	w1, [x0]
   85de8:	52800141 	mov	w1, #0xa                   	// #10
   85dec:	b9000001 	str	w1, [x0]
   85df0:	eb02029f 	cmp	x20, x2
   85df4:	9a829280 	csel	x0, x20, x2, ls	// ls = plast
   85df8:	eb03001f 	cmp	x0, x3
   85dfc:	9a839000 	csel	x0, x0, x3, ls	// ls = plast
   85e00:	9274cc01 	and	x1, x0, #0xfffffffffffff000
   85e04:	d1404036 	sub	x22, x1, #0x10, lsl #12
   85e08:	eb02029f 	cmp	x20, x2
   85e0c:	9a822280 	csel	x0, x20, x2, cs	// cs = hs, nlast
   85e10:	eb03001f 	cmp	x0, x3
   85e14:	9a832015 	csel	x21, x0, x3, cs	// cs = hs, nlast
   85e18:	913ffeb5 	add	x21, x21, #0xfff
   85e1c:	9274ceb5 	and	x21, x21, #0xfffffffffffff000
   85e20:	914042b5 	add	x21, x21, #0x10, lsl #12
   85e24:	cb1602a0 	sub	x0, x21, x22
   85e28:	f144001f 	cmp	x0, #0x100, lsl #12
   85e2c:	540002e9 	b.ls	85e88 <map_mmu_transition_code+0x160>  // b.plast
   85e30:	d2a12000 	mov	x0, #0x9000000             	// #150994944
   85e34:	52800ae2 	mov	w2, #0x57                  	// #87
   85e38:	b9000002 	str	w2, [x0]
   85e3c:	52800822 	mov	w2, #0x41                  	// #65
   85e40:	b9000002 	str	w2, [x0]
   85e44:	52800a42 	mov	w2, #0x52                  	// #82
   85e48:	b9000002 	str	w2, [x0]
   85e4c:	528009c2 	mov	w2, #0x4e                  	// #78
   85e50:	b9000002 	str	w2, [x0]
   85e54:	52800742 	mov	w2, #0x3a                  	// #58
   85e58:	b9000002 	str	w2, [x0]
   85e5c:	52800842 	mov	w2, #0x42                  	// #66
   85e60:	b9000002 	str	w2, [x0]
   85e64:	52800922 	mov	w2, #0x49                  	// #73
   85e68:	b9000002 	str	w2, [x0]
   85e6c:	528008e2 	mov	w2, #0x47                  	// #71
   85e70:	b9000002 	str	w2, [x0]
   85e74:	528001a2 	mov	w2, #0xd                   	// #13
   85e78:	b9000002 	str	w2, [x0]
   85e7c:	52800142 	mov	w2, #0xa                   	// #10
   85e80:	b9000002 	str	w2, [x0]
   85e84:	9143c035 	add	x21, x1, #0xf0, lsl #12
   85e88:	d2a12013 	mov	x19, #0x9000000             	// #150994944
   85e8c:	52800a1a 	mov	w26, #0x50                  	// #80
   85e90:	b900027a 	str	w26, [x19]
   85e94:	52800900 	mov	w0, #0x48                  	// #72
   85e98:	b9000260 	str	w0, [x19]
   85e9c:	52800620 	mov	w0, #0x31                  	// #49
   85ea0:	b9000260 	str	w0, [x19]
   85ea4:	5280083b 	mov	w27, #0x41                  	// #65
   85ea8:	b900027b 	str	w27, [x19]
   85eac:	52800759 	mov	w25, #0x3a                  	// #58
   85eb0:	b9000279 	str	w25, [x19]
   85eb4:	52800a60 	mov	w0, #0x53                  	// #83
   85eb8:	b9000260 	str	w0, [x19]
   85ebc:	52800a9c 	mov	w28, #0x54                  	// #84
   85ec0:	b900027c 	str	w28, [x19]
   85ec4:	b900027b 	str	w27, [x19]
   85ec8:	52800a57 	mov	w23, #0x52                  	// #82
   85ecc:	b9000277 	str	w23, [x19]
   85ed0:	b900027c 	str	w28, [x19]
   85ed4:	528001a0 	mov	w0, #0xd                   	// #13
   85ed8:	b9000260 	str	w0, [x19]
   85edc:	52800140 	mov	w0, #0xa                   	// #10
   85ee0:	b9000260 	str	w0, [x19]
   85ee4:	d0007be0 	adrp	x0, 1003000 <hex_chars.0+0x1ff8>
   85ee8:	913aa000 	add	x0, x0, #0xea8
   85eec:	97fff257 	bl	82848 <uart_puts_early>
   85ef0:	d0007be0 	adrp	x0, 1003000 <hex_chars.0+0x1ff8>
   85ef4:	913b6000 	add	x0, x0, #0xed8
   85ef8:	97fff254 	bl	82848 <uart_puts_early>
   85efc:	aa1603e0 	mov	x0, x22
   85f00:	97fff268 	bl	828a0 <uart_hex64_early>
   85f04:	d0007be0 	adrp	x0, 1003000 <hex_chars.0+0x1ff8>
   85f08:	91392000 	add	x0, x0, #0xe48
   85f0c:	f90037e0 	str	x0, [sp, #104]
   85f10:	97fff24e 	bl	82848 <uart_puts_early>
   85f14:	aa1503e0 	mov	x0, x21
   85f18:	97fff262 	bl	828a0 <uart_hex64_early>
   85f1c:	90007be0 	adrp	x0, 1001000 <GLOBAL_UART>
   85f20:	91228001 	add	x1, x0, #0x8a0
   85f24:	f9003be1 	str	x1, [sp, #112]
   85f28:	aa0103e0 	mov	x0, x1
   85f2c:	97fff247 	bl	82848 <uart_puts_early>
   85f30:	d280e8a4 	mov	x4, #0x745                 	// #1861
   85f34:	aa1603e3 	mov	x3, x22
   85f38:	aa1503e2 	mov	x2, x21
   85f3c:	aa1603e1 	mov	x1, x22
   85f40:	d0007c05 	adrp	x5, 1007000 <mmu_msg>
   85f44:	f94144a0 	ldr	x0, [x5, #648]
   85f48:	97ffff1d 	bl	85bbc <map_range>
   85f4c:	b900027a 	str	w26, [x19]
   85f50:	52800902 	mov	w2, #0x48                  	// #72
   85f54:	b9000262 	str	w2, [x19]
   85f58:	52800622 	mov	w2, #0x31                  	// #49
   85f5c:	b9000262 	str	w2, [x19]
   85f60:	b900027b 	str	w27, [x19]
   85f64:	b9000279 	str	w25, [x19]
   85f68:	528008a2 	mov	w2, #0x45                  	// #69
   85f6c:	b9000262 	str	w2, [x19]
   85f70:	528009c2 	mov	w2, #0x4e                  	// #78
   85f74:	b9000262 	str	w2, [x19]
   85f78:	52800882 	mov	w2, #0x44                  	// #68
   85f7c:	b9000262 	str	w2, [x19]
   85f80:	528001a2 	mov	w2, #0xd                   	// #13
   85f84:	b9000262 	str	w2, [x19]
   85f88:	52800142 	mov	w2, #0xa                   	// #10
   85f8c:	b9000262 	str	w2, [x19]
   85f90:	b900027a 	str	w26, [x19]
   85f94:	52800902 	mov	w2, #0x48                  	// #72
   85f98:	b9000262 	str	w2, [x19]
   85f9c:	52800622 	mov	w2, #0x31                  	// #49
   85fa0:	b9000262 	str	w2, [x19]
   85fa4:	52800842 	mov	w2, #0x42                  	// #66
   85fa8:	b9000262 	str	w2, [x19]
   85fac:	b9000279 	str	w25, [x19]
   85fb0:	52800a62 	mov	w2, #0x53                  	// #83
   85fb4:	b9000262 	str	w2, [x19]
   85fb8:	b900027c 	str	w28, [x19]
   85fbc:	b900027b 	str	w27, [x19]
   85fc0:	b9000277 	str	w23, [x19]
   85fc4:	b900027c 	str	w28, [x19]
   85fc8:	528001a2 	mov	w2, #0xd                   	// #13
   85fcc:	b9000262 	str	w2, [x19]
   85fd0:	52800142 	mov	w2, #0xa                   	// #10
   85fd4:	b9000262 	str	w2, [x19]
   85fd8:	b2503ed7 	orr	x23, x22, #0xffff000000000000
   85fdc:	b2503eb8 	orr	x24, x21, #0xffff000000000000
   85fe0:	d0007be0 	adrp	x0, 1003000 <hex_chars.0+0x1ff8>
   85fe4:	913be000 	add	x0, x0, #0xef8
   85fe8:	97fff218 	bl	82848 <uart_puts_early>
   85fec:	d0007be0 	adrp	x0, 1003000 <hex_chars.0+0x1ff8>
   85ff0:	913ca000 	add	x0, x0, #0xf28
   85ff4:	97fff215 	bl	82848 <uart_puts_early>
   85ff8:	aa1703e0 	mov	x0, x23
   85ffc:	97fff229 	bl	828a0 <uart_hex64_early>
   86000:	f94037e0 	ldr	x0, [sp, #104]
   86004:	97fff211 	bl	82848 <uart_puts_early>
   86008:	aa1803e0 	mov	x0, x24
   8600c:	97fff225 	bl	828a0 <uart_hex64_early>
   86010:	f9403be0 	ldr	x0, [sp, #112]
   86014:	97fff20d 	bl	82848 <uart_puts_early>
   86018:	d280e8a4 	mov	x4, #0x745                 	// #1861
   8601c:	aa1603e3 	mov	x3, x22
   86020:	aa1803e2 	mov	x2, x24
   86024:	aa1703e1 	mov	x1, x23
   86028:	b0007c00 	adrp	x0, 1007000 <mmu_msg>
   8602c:	f9414400 	ldr	x0, [x0, #648]
   86030:	97fffee3 	bl	85bbc <map_range>
   86034:	b900027a 	str	w26, [x19]
   86038:	52800900 	mov	w0, #0x48                  	// #72
   8603c:	b9000260 	str	w0, [x19]
   86040:	52800620 	mov	w0, #0x31                  	// #49
   86044:	b9000260 	str	w0, [x19]
   86048:	52800840 	mov	w0, #0x42                  	// #66
   8604c:	b9000260 	str	w0, [x19]
   86050:	b9000279 	str	w25, [x19]
   86054:	528008a0 	mov	w0, #0x45                  	// #69
   86058:	b9000260 	str	w0, [x19]
   8605c:	528009c0 	mov	w0, #0x4e                  	// #78
   86060:	b9000260 	str	w0, [x19]
   86064:	52800880 	mov	w0, #0x44                  	// #68
   86068:	b9000260 	str	w0, [x19]
   8606c:	528001a0 	mov	w0, #0xd                   	// #13
   86070:	b9000260 	str	w0, [x19]
   86074:	52800140 	mov	w0, #0xa                   	// #10
   86078:	b9000260 	str	w0, [x19]
   8607c:	52800a60 	mov	w0, #0x53                  	// #83
   86080:	b9000260 	str	w0, [x19]
   86084:	b900027c 	str	w28, [x19]
   86088:	52800960 	mov	w0, #0x4b                  	// #75
   8608c:	b9000260 	str	w0, [x19]
   86090:	b9000279 	str	w25, [x19]
   86094:	528009a0 	mov	w0, #0x4d                  	// #77
   86098:	b9000260 	str	w0, [x19]
   8609c:	b900027b 	str	w27, [x19]
   860a0:	b900027a 	str	w26, [x19]
   860a4:	528001a0 	mov	w0, #0xd                   	// #13
   860a8:	b9000260 	str	w0, [x19]
   860ac:	52800140 	mov	w0, #0xa                   	// #10
   860b0:	b9000260 	str	w0, [x19]
   860b4:	f9405fe0 	ldr	x0, [sp, #184]
   860b8:	9274cc00 	and	x0, x0, #0xfffffffffffff000
   860bc:	d140081b 	sub	x27, x0, #0x2, lsl #12
   860c0:	91400800 	add	x0, x0, #0x2, lsl #12
   860c4:	f90037e0 	str	x0, [sp, #104]
   860c8:	52800a60 	mov	w0, #0x53                  	// #83
   860cc:	b9000260 	str	w0, [x19]
   860d0:	b900027a 	str	w26, [x19]
   860d4:	b9000279 	str	w25, [x19]
   860d8:	9102e3e1 	add	x1, sp, #0xb8
   860dc:	9102d3e6 	add	x6, sp, #0xb4
   860e0:	aa1303e4 	mov	x4, x19
   860e4:	39401c20 	ldrb	w0, [x1, #7]
   860e8:	53047c03 	lsr	w3, w0, #4
   860ec:	12000c00 	and	w0, w0, #0xf
   860f0:	1100c065 	add	w5, w3, #0x30
   860f4:	1100dc62 	add	w2, w3, #0x37
   860f8:	7100247f 	cmp	w3, #0x9
   860fc:	1a858042 	csel	w2, w2, w5, hi	// hi = pmore
   86100:	b9000082 	str	w2, [x4]
   86104:	1100c003 	add	w3, w0, #0x30
   86108:	1100dc02 	add	w2, w0, #0x37
   8610c:	7100241f 	cmp	w0, #0x9
   86110:	1a838040 	csel	w0, w2, w3, hi	// hi = pmore
   86114:	b9000080 	str	w0, [x4]
   86118:	d1000421 	sub	x1, x1, #0x1
   8611c:	eb06003f 	cmp	x1, x6
   86120:	54fffe21 	b.ne	860e4 <map_mmu_transition_code+0x3bc>  // b.any
   86124:	d2a12013 	mov	x19, #0x9000000             	// #150994944
   86128:	528001a0 	mov	w0, #0xd                   	// #13
   8612c:	b9000260 	str	w0, [x19]
   86130:	5280015c 	mov	w28, #0xa                   	// #10
   86134:	b900027c 	str	w28, [x19]
   86138:	d280e0ba 	mov	x26, #0x705                 	// #1797
   8613c:	f2e00c1a 	movk	x26, #0x60, lsl #48
   86140:	b0007c19 	adrp	x25, 1007000 <mmu_msg>
   86144:	aa1a03e4 	mov	x4, x26
   86148:	aa1b03e3 	mov	x3, x27
   8614c:	f94037e2 	ldr	x2, [sp, #104]
   86150:	aa1b03e1 	mov	x1, x27
   86154:	f9414720 	ldr	x0, [x25, #648]
   86158:	97fffe99 	bl	85bbc <map_range>
   8615c:	b2503f65 	orr	x5, x27, #0xffff000000000000
   86160:	f94037e0 	ldr	x0, [sp, #104]
   86164:	b2503c02 	orr	x2, x0, #0xffff000000000000
   86168:	aa1a03e4 	mov	x4, x26
   8616c:	aa1b03e3 	mov	x3, x27
   86170:	a9070be5 	stp	x5, x2, [sp, #112]
   86174:	aa0503e1 	mov	x1, x5
   86178:	f9414720 	ldr	x0, [x25, #648]
   8617c:	97fffe90 	bl	85bbc <map_range>
   86180:	52800a60 	mov	w0, #0x53                  	// #83
   86184:	b9000260 	str	w0, [x19]
   86188:	52800a80 	mov	w0, #0x54                  	// #84
   8618c:	b9000260 	str	w0, [x19]
   86190:	52800960 	mov	w0, #0x4b                  	// #75
   86194:	b9000260 	str	w0, [x19]
   86198:	52800759 	mov	w25, #0x3a                  	// #58
   8619c:	b9000279 	str	w25, [x19]
   861a0:	528009e1 	mov	w1, #0x4f                  	// #79
   861a4:	b9000261 	str	w1, [x19]
   861a8:	b9000260 	str	w0, [x19]
   861ac:	528001a3 	mov	w3, #0xd                   	// #13
   861b0:	b9000263 	str	w3, [x19]
   861b4:	b900027c 	str	w28, [x19]
   861b8:	b0007be4 	adrp	x4, 1003000 <hex_chars.0+0x1ff8>
   861bc:	913d2084 	add	x4, x4, #0xf48
   861c0:	d280e8a3 	mov	x3, #0x745                 	// #1861
   861c4:	aa1603e2 	mov	x2, x22
   861c8:	aa1503e1 	mov	x1, x21
   861cc:	aa1603e0 	mov	x0, x22
   861d0:	97fffe5b 	bl	85b3c <register_mapping>
   861d4:	b0007be4 	adrp	x4, 1003000 <hex_chars.0+0x1ff8>
   861d8:	913d8084 	add	x4, x4, #0xf60
   861dc:	d280e8a3 	mov	x3, #0x745                 	// #1861
   861e0:	aa1603e2 	mov	x2, x22
   861e4:	aa1803e1 	mov	x1, x24
   861e8:	aa1703e0 	mov	x0, x23
   861ec:	97fffe54 	bl	85b3c <register_mapping>
   861f0:	b0007be4 	adrp	x4, 1003000 <hex_chars.0+0x1ff8>
   861f4:	913e0084 	add	x4, x4, #0xf80
   861f8:	aa1a03e3 	mov	x3, x26
   861fc:	aa1b03e2 	mov	x2, x27
   86200:	f94037e1 	ldr	x1, [sp, #104]
   86204:	aa1b03e0 	mov	x0, x27
   86208:	97fffe4d 	bl	85b3c <register_mapping>
   8620c:	b0007be4 	adrp	x4, 1003000 <hex_chars.0+0x1ff8>
   86210:	913e6084 	add	x4, x4, #0xf98
   86214:	aa1a03e3 	mov	x3, x26
   86218:	aa1b03e2 	mov	x2, x27
   8621c:	a94707e0 	ldp	x0, x1, [sp, #112]
   86220:	97fffe47 	bl	85b3c <register_mapping>
   86224:	52800ac0 	mov	w0, #0x56                  	// #86
   86228:	b9000260 	str	w0, [x19]
   8622c:	528008a0 	mov	w0, #0x45                  	// #69
   86230:	b9000260 	str	w0, [x19]
   86234:	52800a40 	mov	w0, #0x52                  	// #82
   86238:	b9000260 	str	w0, [x19]
   8623c:	52800920 	mov	w0, #0x49                  	// #73
   86240:	b9000260 	str	w0, [x19]
   86244:	528008c0 	mov	w0, #0x46                  	// #70
   86248:	b9000260 	str	w0, [x19]
   8624c:	b9000279 	str	w25, [x19]
   86250:	528001a0 	mov	w0, #0xd                   	// #13
   86254:	b9000260 	str	w0, [x19]
   86258:	b900027c 	str	w28, [x19]
   8625c:	910263e1 	add	x1, sp, #0x98
   86260:	f94043e0 	ldr	x0, [sp, #128]
   86264:	a9000034 	stp	x20, x0, [x1]
   86268:	f94047e0 	ldr	x0, [sp, #136]
   8626c:	a9017c20 	stp	x0, xzr, [x1, #16]
   86270:	52800602 	mov	w2, #0x30                  	// #48
   86274:	aa1303e0 	mov	x0, x19
   86278:	528008cc 	mov	w12, #0x46                  	// #70
   8627c:	2a1903eb 	mov	w11, w25
   86280:	52800924 	mov	w4, #0x49                  	// #73
   86284:	5280088a 	mov	w10, #0x44                  	// #68
   86288:	528005a9 	mov	w9, #0x2d                  	// #45
   8628c:	52800568 	mov	w8, #0x2b                  	// #43
   86290:	52800ac7 	mov	w7, #0x56                  	// #86
   86294:	528001a6 	mov	w6, #0xd                   	// #13
   86298:	2a1c03e5 	mov	w5, w28
   8629c:	1400001d 	b	86310 <map_mmu_transition_code+0x5e8>
   862a0:	d2a12000 	mov	x0, #0x9000000             	// #150994944
   862a4:	528008a1 	mov	w1, #0x45                  	// #69
   862a8:	b9000001 	str	w1, [x0]
   862ac:	b9000002 	str	w2, [x0]
   862b0:	b9000002 	str	w2, [x0]
   862b4:	52800741 	mov	w1, #0x3a                  	// #58
   862b8:	b9000001 	str	w1, [x0]
   862bc:	52800981 	mov	w1, #0x4c                  	// #76
   862c0:	b9000001 	str	w1, [x0]
   862c4:	52800601 	mov	w1, #0x30                  	// #48
   862c8:	b9000001 	str	w1, [x0]
   862cc:	528001a1 	mov	w1, #0xd                   	// #13
   862d0:	b9000001 	str	w1, [x0]
   862d4:	52800141 	mov	w1, #0xa                   	// #10
   862d8:	b9000001 	str	w1, [x0]
   862dc:	d65f03c0 	ret
   862e0:	b9000004 	str	w4, [x0]
   862e4:	b900000a 	str	w10, [x0]
   862e8:	b9000009 	str	w9, [x0]
   862ec:	14000013 	b	86338 <map_mmu_transition_code+0x610>
   862f0:	b9000007 	str	w7, [x0]
   862f4:	b9000004 	str	w4, [x0]
   862f8:	b9000009 	str	w9, [x0]
   862fc:	b9000006 	str	w6, [x0]
   86300:	b9000005 	str	w5, [x0]
   86304:	f8408c34 	ldr	x20, [x1, #8]!
   86308:	11000442 	add	w2, w2, #0x1
   8630c:	b4000254 	cbz	x20, 86354 <map_mmu_transition_code+0x62c>
   86310:	b2503e83 	orr	x3, x20, #0xffff000000000000
   86314:	b900000c 	str	w12, [x0]
   86318:	b9000002 	str	w2, [x0]
   8631c:	b900000b 	str	w11, [x0]
   86320:	eb1402df 	cmp	x22, x20
   86324:	fa5492a0 	ccmp	x21, x20, #0x0, ls	// ls = plast
   86328:	54fffdc9 	b.ls	862e0 <map_mmu_transition_code+0x5b8>  // b.plast
   8632c:	b9000004 	str	w4, [x0]
   86330:	b900000a 	str	w10, [x0]
   86334:	b9000008 	str	w8, [x0]
   86338:	eb0302ff 	cmp	x23, x3
   8633c:	fa439300 	ccmp	x24, x3, #0x0, ls	// ls = plast
   86340:	54fffd89 	b.ls	862f0 <map_mmu_transition_code+0x5c8>  // b.plast
   86344:	b9000007 	str	w7, [x0]
   86348:	b9000004 	str	w4, [x0]
   8634c:	b9000008 	str	w8, [x0]
   86350:	17ffffeb 	b	862fc <map_mmu_transition_code+0x5d4>
   86354:	d2a12000 	mov	x0, #0x9000000             	// #150994944
   86358:	52800ac1 	mov	w1, #0x56                  	// #86
   8635c:	b9000001 	str	w1, [x0]
   86360:	528008a1 	mov	w1, #0x45                  	// #69
   86364:	b9000001 	str	w1, [x0]
   86368:	52800a41 	mov	w1, #0x52                  	// #82
   8636c:	b9000001 	str	w1, [x0]
   86370:	52800921 	mov	w1, #0x49                  	// #73
   86374:	b9000001 	str	w1, [x0]
   86378:	528008c1 	mov	w1, #0x46                  	// #70
   8637c:	b9000001 	str	w1, [x0]
   86380:	52800743 	mov	w3, #0x3a                  	// #58
   86384:	b9000003 	str	w3, [x0]
   86388:	528009e4 	mov	w4, #0x4f                  	// #79
   8638c:	b9000004 	str	w4, [x0]
   86390:	52800965 	mov	w5, #0x4b                  	// #75
   86394:	b9000005 	str	w5, [x0]
   86398:	528001a2 	mov	w2, #0xd                   	// #13
   8639c:	b9000002 	str	w2, [x0]
   863a0:	52800141 	mov	w1, #0xa                   	// #10
   863a4:	b9000001 	str	w1, [x0]
   863a8:	52800a88 	mov	w8, #0x54                  	// #84
   863ac:	b9000008 	str	w8, [x0]
   863b0:	52800987 	mov	w7, #0x4c                  	// #76
   863b4:	b9000007 	str	w7, [x0]
   863b8:	52800846 	mov	w6, #0x42                  	// #66
   863bc:	b9000006 	str	w6, [x0]
   863c0:	b9000003 	str	w3, [x0]
   863c4:	b9000002 	str	w2, [x0]
   863c8:	b9000001 	str	w1, [x0]
   863cc:	d5033f9f 	dsb	sy
   863d0:	d508871f 	tlbi	vmalle1
   863d4:	d5033f9f 	dsb	sy
   863d8:	d508751f 	ic	iallu
   863dc:	d5033f9f 	dsb	sy
   863e0:	d5033fdf 	isb
   863e4:	b9000008 	str	w8, [x0]
   863e8:	b9000007 	str	w7, [x0]
   863ec:	b9000006 	str	w6, [x0]
   863f0:	b9000003 	str	w3, [x0]
   863f4:	b9000004 	str	w4, [x0]
   863f8:	b9000005 	str	w5, [x0]
   863fc:	b9000002 	str	w2, [x0]
   86400:	b9000001 	str	w1, [x0]
   86404:	52800a05 	mov	w5, #0x50                  	// #80
   86408:	b9000005 	str	w5, [x0]
   8640c:	52800906 	mov	w6, #0x48                  	// #72
   86410:	b9000006 	str	w6, [x0]
   86414:	52800626 	mov	w6, #0x31                  	// #49
   86418:	b9000006 	str	w6, [x0]
   8641c:	b9000003 	str	w3, [x0]
   86420:	52800863 	mov	w3, #0x43                  	// #67
   86424:	b9000003 	str	w3, [x0]
   86428:	b9000004 	str	w4, [x0]
   8642c:	528009a3 	mov	w3, #0x4d                  	// #77
   86430:	b9000003 	str	w3, [x0]
   86434:	b9000005 	str	w5, [x0]
   86438:	b9000002 	str	w2, [x0]
   8643c:	b9000001 	str	w1, [x0]
   86440:	a94153f3 	ldp	x19, x20, [sp, #16]
   86444:	a9425bf5 	ldp	x21, x22, [sp, #32]
   86448:	a94363f7 	ldp	x23, x24, [sp, #48]
   8644c:	a9446bf9 	ldp	x25, x26, [sp, #64]
   86450:	a94573fb 	ldp	x27, x28, [sp, #80]
   86454:	a8cc7bfd 	ldp	x29, x30, [sp], #192
   86458:	d65f03c0 	ret

000000000008645c <map_uart>:
   8645c:	a9bd7bfd 	stp	x29, x30, [sp, #-48]!
   86460:	910003fd 	mov	x29, sp
   86464:	b0007be0 	adrp	x0, 1003000 <hex_chars.0+0x1ff8>
   86468:	913ec000 	add	x0, x0, #0xfb0
   8646c:	97fff0f7 	bl	82848 <uart_puts_early>
   86470:	b0007c00 	adrp	x0, 1007000 <mmu_msg>
   86474:	f9414400 	ldr	x0, [x0, #648]
   86478:	b4000780 	cbz	x0, 86568 <map_uart+0x10c>
   8647c:	a90153f3 	stp	x19, x20, [sp, #16]
   86480:	d2a12001 	mov	x1, #0x9000000             	// #150994944
   86484:	f2ffffe1 	movk	x1, #0xffff, lsl #48
   86488:	97fffa6e 	bl	84e40 <get_l3_table_for_addr>
   8648c:	aa0003f3 	mov	x19, x0
   86490:	b4000740 	cbz	x0, 86578 <map_uart+0x11c>
   86494:	f90013f5 	str	x21, [sp, #32]
   86498:	d0007be0 	adrp	x0, 1004000 <hex_chars.0+0x2ff8>
   8649c:	91014000 	add	x0, x0, #0x50
   864a0:	97fff0ea 	bl	82848 <uart_puts_early>
   864a4:	d2a12000 	mov	x0, #0x9000000             	// #150994944
   864a8:	97fff0fe 	bl	828a0 <uart_hex64_early>
   864ac:	d0007be0 	adrp	x0, 1004000 <hex_chars.0+0x2ff8>
   864b0:	9101c000 	add	x0, x0, #0x70
   864b4:	97fff0e5 	bl	82848 <uart_puts_early>
   864b8:	d2a12015 	mov	x21, #0x9000000             	// #150994944
   864bc:	f2fffff5 	movk	x21, #0xffff, lsl #48
   864c0:	aa1503e0 	mov	x0, x21
   864c4:	97fff0f7 	bl	828a0 <uart_hex64_early>
   864c8:	b0007be0 	adrp	x0, 1003000 <hex_chars.0+0x1ff8>
   864cc:	91394000 	add	x0, x0, #0xe50
   864d0:	97fff0de 	bl	82848 <uart_puts_early>
   864d4:	d280c1a0 	mov	x0, #0x60d                 	// #1549
   864d8:	97fff0f2 	bl	828a0 <uart_hex64_early>
   864dc:	f0007bd4 	adrp	x20, 1001000 <GLOBAL_UART>
   864e0:	91228294 	add	x20, x20, #0x8a0
   864e4:	aa1403e0 	mov	x0, x20
   864e8:	97fff0d8 	bl	82848 <uart_puts_early>
   864ec:	d50b7e33 	dc	civac, x19
   864f0:	d5033b9f 	dsb	ish
   864f4:	d280c1a0 	mov	x0, #0x60d                 	// #1549
   864f8:	f2a12000 	movk	x0, #0x900, lsl #16
   864fc:	f9000260 	str	x0, [x19]
   86500:	d50b7e33 	dc	civac, x19
   86504:	d5033b9f 	dsb	ish
   86508:	b25c3fe0 	mov	x0, #0xffff000000000       	// #4503530907893760
   8650c:	f2920000 	movk	x0, #0x9000
   86510:	d5088360 	tlbi	vaae1is, x0
   86514:	d5033b9f 	dsb	ish
   86518:	d5033fdf 	isb
   8651c:	f9400273 	ldr	x19, [x19]
   86520:	d0007be0 	adrp	x0, 1004000 <hex_chars.0+0x2ff8>
   86524:	91020000 	add	x0, x0, #0x80
   86528:	97fff0c8 	bl	82848 <uart_puts_early>
   8652c:	aa1303e0 	mov	x0, x19
   86530:	97fff0dc 	bl	828a0 <uart_hex64_early>
   86534:	aa1403e0 	mov	x0, x20
   86538:	97fff0c4 	bl	82848 <uart_puts_early>
   8653c:	d0007be4 	adrp	x4, 1004000 <hex_chars.0+0x2ff8>
   86540:	91028084 	add	x4, x4, #0xa0
   86544:	d280c1a3 	mov	x3, #0x60d                 	// #1549
   86548:	d2a12002 	mov	x2, #0x9000000             	// #150994944
   8654c:	914006a1 	add	x1, x21, #0x1, lsl #12
   86550:	aa1503e0 	mov	x0, x21
   86554:	97fffd7a 	bl	85b3c <register_mapping>
   86558:	a94153f3 	ldp	x19, x20, [sp, #16]
   8655c:	f94013f5 	ldr	x21, [sp, #32]
   86560:	a8c37bfd 	ldp	x29, x30, [sp], #48
   86564:	d65f03c0 	ret
   86568:	b0007be0 	adrp	x0, 1003000 <hex_chars.0+0x1ff8>
   8656c:	913f4000 	add	x0, x0, #0xfd0
   86570:	97fff0b6 	bl	82848 <uart_puts_early>
   86574:	17fffffb 	b	86560 <map_uart+0x104>
   86578:	d0007be0 	adrp	x0, 1004000 <hex_chars.0+0x2ff8>
   8657c:	91004000 	add	x0, x0, #0x10
   86580:	97fff0b2 	bl	82848 <uart_puts_early>
   86584:	a94153f3 	ldp	x19, x20, [sp, #16]
   86588:	17fffff6 	b	86560 <map_uart+0x104>

000000000008658c <ensure_vector_table_executable_l3>:
   8658c:	a9be7bfd 	stp	x29, x30, [sp, #-32]!
   86590:	910003fd 	mov	x29, sp
   86594:	a90153f3 	stp	x19, x20, [sp, #16]
   86598:	d538c014 	mrs	x20, vbar_el1
   8659c:	d34cfe83 	lsr	x3, x20, #12
   865a0:	92402064 	and	x4, x3, #0x1ff
   865a4:	d37d2061 	ubfiz	x1, x3, #3, #9
   865a8:	8b010002 	add	x2, x0, x1
   865ac:	f8647801 	ldr	x1, [x0, x4, lsl #3]
   865b0:	360000a1 	tbz	w1, #0, 865c4 <ensure_vector_table_executable_l3+0x38>
   865b4:	b7a80101 	tbnz	x1, #53, 865d4 <ensure_vector_table_executable_l3+0x48>
   865b8:	a94153f3 	ldp	x19, x20, [sp, #16]
   865bc:	a8c27bfd 	ldp	x29, x30, [sp], #32
   865c0:	d65f03c0 	ret
   865c4:	d0007be0 	adrp	x0, 1004000 <hex_chars.0+0x2ff8>
   865c8:	9102c000 	add	x0, x0, #0xb0
   865cc:	97fff09f 	bl	82848 <uart_puts_early>
   865d0:	17fffffa 	b	865b8 <ensure_vector_table_executable_l3+0x2c>
   865d4:	924af833 	and	x19, x1, #0xffdfffffffffffff
   865d8:	d50b7e22 	dc	civac, x2
   865dc:	d5033b9f 	dsb	ish
   865e0:	f8247813 	str	x19, [x0, x4, lsl #3]
   865e4:	d50b7e22 	dc	civac, x2
   865e8:	d5033b9f 	dsb	ish
   865ec:	d5088363 	tlbi	vaae1is, x3
   865f0:	d5033b9f 	dsb	ish
   865f4:	d5033fdf 	isb
   865f8:	d0007be0 	adrp	x0, 1004000 <hex_chars.0+0x2ff8>
   865fc:	9103a000 	add	x0, x0, #0xe8
   86600:	97fff092 	bl	82848 <uart_puts_early>
   86604:	aa1403e0 	mov	x0, x20
   86608:	97fff0a6 	bl	828a0 <uart_hex64_early>
   8660c:	d0007be0 	adrp	x0, 1004000 <hex_chars.0+0x2ff8>
   86610:	91044000 	add	x0, x0, #0x110
   86614:	97fff08d 	bl	82848 <uart_puts_early>
   86618:	aa1303e0 	mov	x0, x19
   8661c:	97fff0a1 	bl	828a0 <uart_hex64_early>
   86620:	f0007bc0 	adrp	x0, 1001000 <GLOBAL_UART>
   86624:	91228000 	add	x0, x0, #0x8a0
   86628:	97fff088 	bl	82848 <uart_puts_early>
   8662c:	17ffffe3 	b	865b8 <ensure_vector_table_executable_l3+0x2c>

0000000000086630 <map_vector_table>:
   86630:	a9bd7bfd 	stp	x29, x30, [sp, #-48]!
   86634:	910003fd 	mov	x29, sp
   86638:	d0007be0 	adrp	x0, 1004000 <hex_chars.0+0x2ff8>
   8663c:	91048000 	add	x0, x0, #0x120
   86640:	97fff082 	bl	82848 <uart_puts_early>
   86644:	b0007c00 	adrp	x0, 1007000 <mmu_msg>
   86648:	f9414400 	ldr	x0, [x0, #648]
   8664c:	b4000540 	cbz	x0, 866f4 <map_vector_table+0xc4>
   86650:	a90153f3 	stp	x19, x20, [sp, #16]
   86654:	a9025bf5 	stp	x21, x22, [sp, #32]
   86658:	d538c014 	mrs	x20, vbar_el1
   8665c:	d0007be0 	adrp	x0, 1004000 <hex_chars.0+0x2ff8>
   86660:	9105e000 	add	x0, x0, #0x178
   86664:	97fff079 	bl	82848 <uart_puts_early>
   86668:	aa1403e0 	mov	x0, x20
   8666c:	97fff08d 	bl	828a0 <uart_hex64_early>
   86670:	f0007bc0 	adrp	x0, 1001000 <GLOBAL_UART>
   86674:	91228000 	add	x0, x0, #0x8a0
   86678:	97fff074 	bl	82848 <uart_puts_early>
   8667c:	9274ce95 	and	x21, x20, #0xfffffffffffff000
   86680:	91400693 	add	x19, x20, #0x1, lsl #12
   86684:	9274ce73 	and	x19, x19, #0xfffffffffffff000
   86688:	91400673 	add	x19, x19, #0x1, lsl #12
   8668c:	b0007c16 	adrp	x22, 1007000 <mmu_msg>
   86690:	d280e8a4 	mov	x4, #0x745                 	// #1861
   86694:	aa1503e3 	mov	x3, x21
   86698:	aa1303e2 	mov	x2, x19
   8669c:	aa1503e1 	mov	x1, x21
   866a0:	f94146c0 	ldr	x0, [x22, #648]
   866a4:	97fffd46 	bl	85bbc <map_range>
   866a8:	d0007be4 	adrp	x4, 1004000 <hex_chars.0+0x2ff8>
   866ac:	9106a084 	add	x4, x4, #0x1a8
   866b0:	d280e8a3 	mov	x3, #0x745                 	// #1861
   866b4:	aa1503e2 	mov	x2, x21
   866b8:	aa1303e1 	mov	x1, x19
   866bc:	aa1503e0 	mov	x0, x21
   866c0:	97fffd1f 	bl	85b3c <register_mapping>
   866c4:	aa1403e1 	mov	x1, x20
   866c8:	f94146c0 	ldr	x0, [x22, #648]
   866cc:	97fff9dd 	bl	84e40 <get_l3_table_for_addr>
   866d0:	b40001a0 	cbz	x0, 86704 <map_vector_table+0xd4>
   866d4:	97ffffae 	bl	8658c <ensure_vector_table_executable_l3>
   866d8:	d0007be0 	adrp	x0, 1004000 <hex_chars.0+0x2ff8>
   866dc:	9107c000 	add	x0, x0, #0x1f0
   866e0:	97fff05a 	bl	82848 <uart_puts_early>
   866e4:	a94153f3 	ldp	x19, x20, [sp, #16]
   866e8:	a9425bf5 	ldp	x21, x22, [sp, #32]
   866ec:	a8c37bfd 	ldp	x29, x30, [sp], #48
   866f0:	d65f03c0 	ret
   866f4:	d0007be0 	adrp	x0, 1004000 <hex_chars.0+0x2ff8>
   866f8:	91050000 	add	x0, x0, #0x140
   866fc:	97fff053 	bl	82848 <uart_puts_early>
   86700:	17fffffb 	b	866ec <map_vector_table+0xbc>
   86704:	d0007be0 	adrp	x0, 1004000 <hex_chars.0+0x2ff8>
   86708:	9106e000 	add	x0, x0, #0x1b8
   8670c:	97fff04f 	bl	82848 <uart_puts_early>
   86710:	17fffff2 	b	866d8 <map_vector_table+0xa8>

0000000000086714 <audit_memory_mappings>:
   86714:	a9ba7bfd 	stp	x29, x30, [sp, #-96]!
   86718:	910003fd 	mov	x29, sp
   8671c:	d0007be0 	adrp	x0, 1004000 <hex_chars.0+0x2ff8>
   86720:	91084000 	add	x0, x0, #0x210
   86724:	97fff049 	bl	82848 <uart_puts_early>
   86728:	b0007c00 	adrp	x0, 1007000 <mmu_msg>
   8672c:	b9429800 	ldr	w0, [x0, #664]
   86730:	7100001f 	cmp	w0, #0x0
   86734:	54000aad 	b.le	86888 <audit_memory_mappings+0x174>
   86738:	a90153f3 	stp	x19, x20, [sp, #16]
   8673c:	a9025bf5 	stp	x21, x22, [sp, #32]
   86740:	a90363f7 	stp	x23, x24, [sp, #48]
   86744:	a9046bf9 	stp	x25, x26, [sp, #64]
   86748:	f9002bfb 	str	x27, [sp, #80]
   8674c:	b0007c13 	adrp	x19, 1007000 <mmu_msg>
   86750:	910a2273 	add	x19, x19, #0x288
   86754:	91006273 	add	x19, x19, #0x18
   86758:	52800015 	mov	w21, #0x0                   	// #0
   8675c:	d0007bfb 	adrp	x27, 1004000 <hex_chars.0+0x2ff8>
   86760:	9108e37b 	add	x27, x27, #0x238
   86764:	d0007bfa 	adrp	x26, 1004000 <hex_chars.0+0x2ff8>
   86768:	9109035a 	add	x26, x26, #0x240
   8676c:	b0007bf9 	adrp	x25, 1003000 <hex_chars.0+0x1ff8>
   86770:	91392339 	add	x25, x25, #0xe48
   86774:	d0007bf8 	adrp	x24, 1004000 <hex_chars.0+0x2ff8>
   86778:	91092318 	add	x24, x24, #0x248
   8677c:	f0007bd7 	adrp	x23, 1001000 <GLOBAL_UART>
   86780:	912282f7 	add	x23, x23, #0x8a0
   86784:	1400000d 	b	867b8 <audit_memory_mappings+0xa4>
   86788:	d0007be0 	adrp	x0, 1004000 <hex_chars.0+0x2ff8>
   8678c:	9109c000 	add	x0, x0, #0x270
   86790:	97fff02e 	bl	82848 <uart_puts_early>
   86794:	1400002a 	b	8683c <audit_memory_mappings+0x128>
   86798:	aa1703e0 	mov	x0, x23
   8679c:	97fff02b 	bl	82848 <uart_puts_early>
   867a0:	110006b5 	add	w21, w21, #0x1
   867a4:	9100a273 	add	x19, x19, #0x28
   867a8:	b0007c00 	adrp	x0, 1007000 <mmu_msg>
   867ac:	b9429800 	ldr	w0, [x0, #664]
   867b0:	6b15001f 	cmp	w0, w21
   867b4:	5400060d 	b.le	86874 <audit_memory_mappings+0x160>
   867b8:	aa1b03e0 	mov	x0, x27
   867bc:	97fff023 	bl	82848 <uart_puts_early>
   867c0:	aa1303f6 	mov	x22, x19
   867c4:	f9401260 	ldr	x0, [x19, #32]
   867c8:	97fff020 	bl	82848 <uart_puts_early>
   867cc:	aa1a03e0 	mov	x0, x26
   867d0:	97fff01e 	bl	82848 <uart_puts_early>
   867d4:	f9400260 	ldr	x0, [x19]
   867d8:	97fff032 	bl	828a0 <uart_hex64_early>
   867dc:	aa1903e0 	mov	x0, x25
   867e0:	97fff01a 	bl	82848 <uart_puts_early>
   867e4:	f9400660 	ldr	x0, [x19, #8]
   867e8:	97fff02e 	bl	828a0 <uart_hex64_early>
   867ec:	aa1803e0 	mov	x0, x24
   867f0:	97fff016 	bl	82848 <uart_puts_early>
   867f4:	f9400a60 	ldr	x0, [x19, #16]
   867f8:	97fff02a 	bl	828a0 <uart_hex64_early>
   867fc:	d0007be0 	adrp	x0, 1004000 <hex_chars.0+0x2ff8>
   86800:	91094000 	add	x0, x0, #0x250
   86804:	97fff011 	bl	82848 <uart_puts_early>
   86808:	f9400e60 	ldr	x0, [x19, #24]
   8680c:	97fff025 	bl	828a0 <uart_hex64_early>
   86810:	aa1703e0 	mov	x0, x23
   86814:	97fff00d 	bl	82848 <uart_puts_early>
   86818:	f9400260 	ldr	x0, [x19]
   8681c:	97fffbdf 	bl	85798 <get_pte>
   86820:	aa0003f4 	mov	x20, x0
   86824:	d0007be0 	adrp	x0, 1004000 <hex_chars.0+0x2ff8>
   86828:	91098000 	add	x0, x0, #0x260
   8682c:	97fff007 	bl	82848 <uart_puts_early>
   86830:	aa1403e0 	mov	x0, x20
   86834:	97fff01b 	bl	828a0 <uart_hex64_early>
   86838:	3607fa94 	tbz	w20, #0, 86788 <audit_memory_mappings+0x74>
   8683c:	f9400ac0 	ldr	x0, [x22, #16]
   86840:	ca000294 	eor	x20, x20, x0
   86844:	f13ffe9f 	cmp	x20, #0xfff
   86848:	54fffa89 	b.ls	86798 <audit_memory_mappings+0x84>  // b.plast
   8684c:	d0007be0 	adrp	x0, 1004000 <hex_chars.0+0x2ff8>
   86850:	910a0000 	add	x0, x0, #0x280
   86854:	97ffeffd 	bl	82848 <uart_puts_early>
   86858:	f9400ac0 	ldr	x0, [x22, #16]
   8685c:	9274cc00 	and	x0, x0, #0xfffffffffffff000
   86860:	97fff010 	bl	828a0 <uart_hex64_early>
   86864:	d0007be0 	adrp	x0, 1004000 <hex_chars.0+0x2ff8>
   86868:	910a8000 	add	x0, x0, #0x2a0
   8686c:	97ffeff7 	bl	82848 <uart_puts_early>
   86870:	17ffffca 	b	86798 <audit_memory_mappings+0x84>
   86874:	a94153f3 	ldp	x19, x20, [sp, #16]
   86878:	a9425bf5 	ldp	x21, x22, [sp, #32]
   8687c:	a94363f7 	ldp	x23, x24, [sp, #48]
   86880:	a9446bf9 	ldp	x25, x26, [sp, #64]
   86884:	f9402bfb 	ldr	x27, [sp, #80]
   86888:	d0007be0 	adrp	x0, 1004000 <hex_chars.0+0x2ff8>
   8688c:	910aa000 	add	x0, x0, #0x2a8
   86890:	97ffefee 	bl	82848 <uart_puts_early>
   86894:	a8c67bfd 	ldp	x29, x30, [sp], #96
   86898:	d65f03c0 	ret

000000000008689c <init_page_tables>:
   8689c:	a9be7bfd 	stp	x29, x30, [sp, #-32]!
   868a0:	910003fd 	mov	x29, sp
   868a4:	f9000bf3 	str	x19, [sp, #16]
   868a8:	d0007be0 	adrp	x0, 1004000 <hex_chars.0+0x2ff8>
   868ac:	910b2000 	add	x0, x0, #0x2c8
   868b0:	97ffefe6 	bl	82848 <uart_puts_early>
   868b4:	97fff4d9 	bl	83c18 <alloc_page>
   868b8:	aa0003f3 	mov	x19, x0
   868bc:	91400402 	add	x2, x0, #0x1, lsl #12
   868c0:	aa0003e1 	mov	x1, x0
   868c4:	b40003a0 	cbz	x0, 86938 <init_page_tables+0x9c>
   868c8:	f800843f 	str	xzr, [x1], #8
   868cc:	eb02003f 	cmp	x1, x2
   868d0:	54ffffc1 	b.ne	868c8 <init_page_tables+0x2c>  // b.any
   868d4:	92820000 	mov	x0, #0xffffffffffffefff    	// #-4097
   868d8:	eb00027f 	cmp	x19, x0
   868dc:	54000148 	b.hi	86904 <init_page_tables+0x68>  // b.pmore
   868e0:	91010260 	add	x0, x19, #0x40
   868e4:	eb02001f 	cmp	x0, x2
   868e8:	d2800801 	mov	x1, #0x40                  	// #64
   868ec:	9a9f9421 	csinc	x1, x1, xzr, ls	// ls = plast
   868f0:	aa1303e2 	mov	x2, x19
   868f4:	d50b7e22 	dc	civac, x2
   868f8:	91010042 	add	x2, x2, #0x40
   868fc:	f1000421 	subs	x1, x1, #0x1
   86900:	54ffffa1 	b.ne	868f4 <init_page_tables+0x58>  // b.any
   86904:	d5033b9f 	dsb	ish
   86908:	d0007be0 	adrp	x0, 1004000 <hex_chars.0+0x2ff8>
   8690c:	910c6000 	add	x0, x0, #0x318
   86910:	97ffefce 	bl	82848 <uart_puts_early>
   86914:	aa1303e0 	mov	x0, x19
   86918:	97ffefe2 	bl	828a0 <uart_hex64_early>
   8691c:	f0007bc0 	adrp	x0, 1001000 <GLOBAL_UART>
   86920:	91228000 	add	x0, x0, #0x8a0
   86924:	97ffefc9 	bl	82848 <uart_puts_early>
   86928:	aa1303e0 	mov	x0, x19
   8692c:	f9400bf3 	ldr	x19, [sp, #16]
   86930:	a8c27bfd 	ldp	x29, x30, [sp], #32
   86934:	d65f03c0 	ret
   86938:	d0007be0 	adrp	x0, 1004000 <hex_chars.0+0x2ff8>
   8693c:	910ba000 	add	x0, x0, #0x2e8
   86940:	97ffefc2 	bl	82848 <uart_puts_early>
   86944:	17fffff9 	b	86928 <init_page_tables+0x8c>

0000000000086948 <map_kernel_sections>:
   86948:	a9bc7bfd 	stp	x29, x30, [sp, #-64]!
   8694c:	910003fd 	mov	x29, sp
   86950:	d0007be0 	adrp	x0, 1004000 <hex_chars.0+0x2ff8>
   86954:	910ce000 	add	x0, x0, #0x338
   86958:	97ffefbc 	bl	82848 <uart_puts_early>
   8695c:	b0007c00 	adrp	x0, 1007000 <mmu_msg>
   86960:	f9414400 	ldr	x0, [x0, #648]
   86964:	b4000d00 	cbz	x0, 86b04 <map_kernel_sections+0x1bc>
   86968:	a90153f3 	stp	x19, x20, [sp, #16]
   8696c:	a9025bf5 	stp	x21, x22, [sp, #32]
   86970:	a90363f7 	stp	x23, x24, [sp, #48]
   86974:	d0007be0 	adrp	x0, 1004000 <hex_chars.0+0x2ff8>
   86978:	910e4000 	add	x0, x0, #0x390
   8697c:	97ffefb3 	bl	82848 <uart_puts_early>
   86980:	d0ffffd5 	adrp	x21, 80000 <__text_start>
   86984:	910002b5 	add	x21, x21, #0x0
   86988:	aa1503e0 	mov	x0, x21
   8698c:	97ffefc5 	bl	828a0 <uart_hex64_early>
   86990:	b0007bf4 	adrp	x20, 1003000 <hex_chars.0+0x1ff8>
   86994:	91392294 	add	x20, x20, #0xe48
   86998:	aa1403e0 	mov	x0, x20
   8699c:	97ffefab 	bl	82848 <uart_puts_early>
   869a0:	b0000036 	adrp	x22, 8b000 <mmu_continuation_point>
   869a4:	9105c2d6 	add	x22, x22, #0x170
   869a8:	aa1603e0 	mov	x0, x22
   869ac:	97ffefbd 	bl	828a0 <uart_hex64_early>
   869b0:	f0007bd3 	adrp	x19, 1001000 <GLOBAL_UART>
   869b4:	91228273 	add	x19, x19, #0x8a0
   869b8:	aa1303e0 	mov	x0, x19
   869bc:	97ffefa3 	bl	82848 <uart_puts_early>
   869c0:	b0007c17 	adrp	x23, 1007000 <mmu_msg>
   869c4:	d280e8a4 	mov	x4, #0x745                 	// #1861
   869c8:	aa1503e3 	mov	x3, x21
   869cc:	aa1603e2 	mov	x2, x22
   869d0:	aa1503e1 	mov	x1, x21
   869d4:	f94146e0 	ldr	x0, [x23, #648]
   869d8:	97fffc79 	bl	85bbc <map_range>
   869dc:	d0007be0 	adrp	x0, 1004000 <hex_chars.0+0x2ff8>
   869e0:	910ee000 	add	x0, x0, #0x3b8
   869e4:	97ffef99 	bl	82848 <uart_puts_early>
   869e8:	f0007bd5 	adrp	x21, 1001000 <GLOBAL_UART>
   869ec:	910002b5 	add	x21, x21, #0x0
   869f0:	aa1503e0 	mov	x0, x21
   869f4:	97ffefab 	bl	828a0 <uart_hex64_early>
   869f8:	aa1403e0 	mov	x0, x20
   869fc:	97ffef93 	bl	82848 <uart_puts_early>
   86a00:	f0007bf8 	adrp	x24, 1005000 <hex_chars.0+0x3ff8>
   86a04:	912fff18 	add	x24, x24, #0xbff
   86a08:	aa1803e0 	mov	x0, x24
   86a0c:	97ffefa5 	bl	828a0 <uart_hex64_early>
   86a10:	aa1303e0 	mov	x0, x19
   86a14:	97ffef8d 	bl	82848 <uart_puts_early>
   86a18:	d280e8b6 	mov	x22, #0x745                 	// #1861
   86a1c:	f2e00c16 	movk	x22, #0x60, lsl #48
   86a20:	aa1603e4 	mov	x4, x22
   86a24:	aa1503e3 	mov	x3, x21
   86a28:	aa1803e2 	mov	x2, x24
   86a2c:	aa1503e1 	mov	x1, x21
   86a30:	f94146e0 	ldr	x0, [x23, #648]
   86a34:	97fffc62 	bl	85bbc <map_range>
   86a38:	d0007be0 	adrp	x0, 1004000 <hex_chars.0+0x2ff8>
   86a3c:	910fa000 	add	x0, x0, #0x3e8
   86a40:	97ffef82 	bl	82848 <uart_puts_early>
   86a44:	90007c15 	adrp	x21, 1006000 <g_uart_base>
   86a48:	910002b5 	add	x21, x21, #0x0
   86a4c:	aa1503e0 	mov	x0, x21
   86a50:	97ffef94 	bl	828a0 <uart_hex64_early>
   86a54:	aa1403e0 	mov	x0, x20
   86a58:	97ffef7c 	bl	82848 <uart_puts_early>
   86a5c:	90007c18 	adrp	x24, 1006000 <g_uart_base>
   86a60:	91003318 	add	x24, x24, #0xc
   86a64:	aa1803e0 	mov	x0, x24
   86a68:	97ffef8e 	bl	828a0 <uart_hex64_early>
   86a6c:	aa1303e0 	mov	x0, x19
   86a70:	97ffef76 	bl	82848 <uart_puts_early>
   86a74:	d10102d6 	sub	x22, x22, #0x40
   86a78:	aa1603e4 	mov	x4, x22
   86a7c:	aa1503e3 	mov	x3, x21
   86a80:	aa1803e2 	mov	x2, x24
   86a84:	aa1503e1 	mov	x1, x21
   86a88:	f94146e0 	ldr	x0, [x23, #648]
   86a8c:	97fffc4c 	bl	85bbc <map_range>
   86a90:	d0007be0 	adrp	x0, 1004000 <hex_chars.0+0x2ff8>
   86a94:	91104000 	add	x0, x0, #0x410
   86a98:	97ffef6c 	bl	82848 <uart_puts_early>
   86a9c:	b0007c15 	adrp	x21, 1007000 <mmu_msg>
   86aa0:	910002b5 	add	x21, x21, #0x0
   86aa4:	aa1503e0 	mov	x0, x21
   86aa8:	97ffef7e 	bl	828a0 <uart_hex64_early>
   86aac:	aa1403e0 	mov	x0, x20
   86ab0:	97ffef66 	bl	82848 <uart_puts_early>
   86ab4:	b0007c14 	adrp	x20, 1007000 <mmu_msg>
   86ab8:	91205294 	add	x20, x20, #0x814
   86abc:	aa1403e0 	mov	x0, x20
   86ac0:	97ffef78 	bl	828a0 <uart_hex64_early>
   86ac4:	aa1303e0 	mov	x0, x19
   86ac8:	97ffef60 	bl	82848 <uart_puts_early>
   86acc:	aa1603e4 	mov	x4, x22
   86ad0:	aa1503e3 	mov	x3, x21
   86ad4:	aa1403e2 	mov	x2, x20
   86ad8:	aa1503e1 	mov	x1, x21
   86adc:	f94146e0 	ldr	x0, [x23, #648]
   86ae0:	97fffc37 	bl	85bbc <map_range>
   86ae4:	d0007be0 	adrp	x0, 1004000 <hex_chars.0+0x2ff8>
   86ae8:	9110e000 	add	x0, x0, #0x438
   86aec:	97ffef57 	bl	82848 <uart_puts_early>
   86af0:	a94153f3 	ldp	x19, x20, [sp, #16]
   86af4:	a9425bf5 	ldp	x21, x22, [sp, #32]
   86af8:	a94363f7 	ldp	x23, x24, [sp, #48]
   86afc:	a8c47bfd 	ldp	x29, x30, [sp], #64
   86b00:	d65f03c0 	ret
   86b04:	d0007be0 	adrp	x0, 1004000 <hex_chars.0+0x2ff8>
   86b08:	910d6000 	add	x0, x0, #0x358
   86b0c:	97ffef4f 	bl	82848 <uart_puts_early>
   86b10:	17fffffb 	b	86afc <map_kernel_sections+0x1b4>

0000000000086b14 <flush_cache_lines>:
   86b14:	927ae402 	and	x2, x0, #0xffffffffffffffc0
   86b18:	9100fc21 	add	x1, x1, #0x3f
   86b1c:	8b000020 	add	x0, x1, x0
   86b20:	927ae400 	and	x0, x0, #0xffffffffffffffc0
   86b24:	eb00005f 	cmp	x2, x0
   86b28:	540000a2 	b.cs	86b3c <flush_cache_lines+0x28>  // b.hs, b.nlast
   86b2c:	d50b7a22 	dc	cvac, x2
   86b30:	91010042 	add	x2, x2, #0x40
   86b34:	eb02001f 	cmp	x0, x2
   86b38:	54ffffa8 	b.hi	86b2c <flush_cache_lines+0x18>  // b.pmore
   86b3c:	d5033b9f 	dsb	ish
   86b40:	d65f03c0 	ret

0000000000086b44 <verify_critical_mappings_before_mmu>:
   86b44:	a9b07bfd 	stp	x29, x30, [sp, #-256]!
   86b48:	910003fd 	mov	x29, sp
   86b4c:	a90573fb 	stp	x27, x28, [sp, #80]
   86b50:	aa0003fb 	mov	x27, x0
   86b54:	d0007be0 	adrp	x0, 1004000 <hex_chars.0+0x2ff8>
   86b58:	9111a000 	add	x0, x0, #0x468
   86b5c:	97ffef3b 	bl	82848 <uart_puts_early>
   86b60:	b4000afb 	cbz	x27, 86cbc <verify_critical_mappings_before_mmu+0x178>
   86b64:	a90153f3 	stp	x19, x20, [sp, #16]
   86b68:	a9025bf5 	stp	x21, x22, [sp, #32]
   86b6c:	a90363f7 	stp	x23, x24, [sp, #48]
   86b70:	a9046bf9 	stp	x25, x26, [sp, #64]
   86b74:	b0000033 	adrp	x19, 8b000 <mmu_continuation_point>
   86b78:	91000273 	add	x19, x19, #0x0
   86b7c:	d538c015 	mrs	x21, vbar_el1
   86b80:	b2503e77 	orr	x23, x19, #0xffff000000000000
   86b84:	d0007be0 	adrp	x0, 1004000 <hex_chars.0+0x2ff8>
   86b88:	91132000 	add	x0, x0, #0x4c8
   86b8c:	97ffef2f 	bl	82848 <uart_puts_early>
   86b90:	d0007be0 	adrp	x0, 1004000 <hex_chars.0+0x2ff8>
   86b94:	9113c000 	add	x0, x0, #0x4f0
   86b98:	97ffef2c 	bl	82848 <uart_puts_early>
   86b9c:	aa1303e0 	mov	x0, x19
   86ba0:	97ffef40 	bl	828a0 <uart_hex64_early>
   86ba4:	f0007bd4 	adrp	x20, 1001000 <GLOBAL_UART>
   86ba8:	91228294 	add	x20, x20, #0x8a0
   86bac:	aa1403e0 	mov	x0, x20
   86bb0:	97ffef26 	bl	82848 <uart_puts_early>
   86bb4:	d0007be0 	adrp	x0, 1004000 <hex_chars.0+0x2ff8>
   86bb8:	91144000 	add	x0, x0, #0x510
   86bbc:	97ffef23 	bl	82848 <uart_puts_early>
   86bc0:	aa1703e0 	mov	x0, x23
   86bc4:	97ffef37 	bl	828a0 <uart_hex64_early>
   86bc8:	aa1403e0 	mov	x0, x20
   86bcc:	97ffef1f 	bl	82848 <uart_puts_early>
   86bd0:	d0007be0 	adrp	x0, 1004000 <hex_chars.0+0x2ff8>
   86bd4:	9114c000 	add	x0, x0, #0x530
   86bd8:	97ffef1c 	bl	82848 <uart_puts_early>
   86bdc:	d2a12000 	mov	x0, #0x9000000             	// #150994944
   86be0:	97ffef30 	bl	828a0 <uart_hex64_early>
   86be4:	aa1403e0 	mov	x0, x20
   86be8:	97ffef18 	bl	82848 <uart_puts_early>
   86bec:	d0007be0 	adrp	x0, 1004000 <hex_chars.0+0x2ff8>
   86bf0:	91152000 	add	x0, x0, #0x548
   86bf4:	97ffef15 	bl	82848 <uart_puts_early>
   86bf8:	d2a12016 	mov	x22, #0x9000000             	// #150994944
   86bfc:	f2fffff6 	movk	x22, #0xffff, lsl #48
   86c00:	aa1603e0 	mov	x0, x22
   86c04:	97ffef27 	bl	828a0 <uart_hex64_early>
   86c08:	aa1403e0 	mov	x0, x20
   86c0c:	97ffef0f 	bl	82848 <uart_puts_early>
   86c10:	d0007be0 	adrp	x0, 1004000 <hex_chars.0+0x2ff8>
   86c14:	91158000 	add	x0, x0, #0x560
   86c18:	97ffef0c 	bl	82848 <uart_puts_early>
   86c1c:	aa1503e0 	mov	x0, x21
   86c20:	97ffef20 	bl	828a0 <uart_hex64_early>
   86c24:	aa1403e0 	mov	x0, x20
   86c28:	97ffef08 	bl	82848 <uart_puts_early>
   86c2c:	d0007be0 	adrp	x0, 1004000 <hex_chars.0+0x2ff8>
   86c30:	91160000 	add	x0, x0, #0x580
   86c34:	a90703f3 	stp	x19, x0, [sp, #112]
   86c38:	52800020 	mov	w0, #0x1                   	// #1
   86c3c:	b90083e0 	str	w0, [sp, #128]
   86c40:	d0007be1 	adrp	x1, 1004000 <hex_chars.0+0x2ff8>
   86c44:	91166021 	add	x1, x1, #0x598
   86c48:	a90887f7 	stp	x23, x1, [sp, #136]
   86c4c:	b9009be0 	str	w0, [sp, #152]
   86c50:	d2a12001 	mov	x1, #0x9000000             	// #150994944
   86c54:	f90053e1 	str	x1, [sp, #160]
   86c58:	d0007be1 	adrp	x1, 1004000 <hex_chars.0+0x2ff8>
   86c5c:	9116c021 	add	x1, x1, #0x5b0
   86c60:	f90057e1 	str	x1, [sp, #168]
   86c64:	b900b3ff 	str	wzr, [sp, #176]
   86c68:	d0007be1 	adrp	x1, 1004000 <hex_chars.0+0x2ff8>
   86c6c:	91170021 	add	x1, x1, #0x5c0
   86c70:	a90b87f6 	stp	x22, x1, [sp, #184]
   86c74:	b900cbff 	str	wzr, [sp, #200]
   86c78:	d0007be1 	adrp	x1, 1004000 <hex_chars.0+0x2ff8>
   86c7c:	91174021 	add	x1, x1, #0x5d0
   86c80:	a90d07f5 	stp	x21, x1, [sp, #208]
   86c84:	b900e3e0 	str	w0, [sp, #224]
   86c88:	a90effff 	stp	xzr, xzr, [sp, #232]
   86c8c:	b900fbff 	str	wzr, [sp, #248]
   86c90:	d0007be0 	adrp	x0, 1004000 <hex_chars.0+0x2ff8>
   86c94:	91178000 	add	x0, x0, #0x5e0
   86c98:	97ffeeec 	bl	82848 <uart_puts_early>
   86c9c:	9101c3f6 	add	x22, sp, #0x70
   86ca0:	d0007bfc 	adrp	x28, 1004000 <hex_chars.0+0x2ff8>
   86ca4:	9118639c 	add	x28, x28, #0x618
   86ca8:	90007be0 	adrp	x0, 1002000 <hex_chars.0+0xff8>
   86cac:	91392000 	add	x0, x0, #0xe48
   86cb0:	f90033e0 	str	x0, [sp, #96]
   86cb4:	f90037f4 	str	x20, [sp, #104]
   86cb8:	1400002a 	b	86d60 <verify_critical_mappings_before_mmu+0x21c>
   86cbc:	d0007be0 	adrp	x0, 1004000 <hex_chars.0+0x2ff8>
   86cc0:	91128000 	add	x0, x0, #0x4a0
   86cc4:	97ffeee1 	bl	82848 <uart_puts_early>
   86cc8:	1400005d 	b	86e3c <verify_critical_mappings_before_mmu+0x2f8>
   86ccc:	d0007be0 	adrp	x0, 1004000 <hex_chars.0+0x2ff8>
   86cd0:	9118a000 	add	x0, x0, #0x628
   86cd4:	97ffeedd 	bl	82848 <uart_puts_early>
   86cd8:	14000020 	b	86d58 <verify_critical_mappings_before_mmu+0x214>
   86cdc:	d0007be0 	adrp	x0, 1004000 <hex_chars.0+0x2ff8>
   86ce0:	9118e000 	add	x0, x0, #0x638
   86ce4:	97ffeed9 	bl	82848 <uart_puts_early>
   86ce8:	1400001c 	b	86d58 <verify_critical_mappings_before_mmu+0x214>
   86cec:	d0007be0 	adrp	x0, 1004000 <hex_chars.0+0x2ff8>
   86cf0:	91192000 	add	x0, x0, #0x648
   86cf4:	97ffeed5 	bl	82848 <uart_puts_early>
   86cf8:	924afaa0 	and	x0, x21, #0xffdfffffffffffff
   86cfc:	b24b02b5 	orr	x21, x21, #0x20000000000000
   86d00:	7100033f 	cmp	w25, #0x0
   86d04:	9a8002b5 	csel	x21, x21, x0, eq	// eq = none
   86d08:	d50b7e37 	dc	civac, x23
   86d0c:	d5033b9f 	dsb	ish
   86d10:	f8387a95 	str	x21, [x20, x24, lsl #3]
   86d14:	d50b7e37 	dc	civac, x23
   86d18:	d5033b9f 	dsb	ish
   86d1c:	d5088373 	tlbi	vaae1is, x19
   86d20:	d5033b9f 	dsb	ish
   86d24:	90007be0 	adrp	x0, 1002000 <hex_chars.0+0xff8>
   86d28:	9121a000 	add	x0, x0, #0x868
   86d2c:	97ffeec7 	bl	82848 <uart_puts_early>
   86d30:	14000025 	b	86dc4 <verify_critical_mappings_before_mmu+0x280>
   86d34:	d0007be0 	adrp	x0, 1004000 <hex_chars.0+0x2ff8>
   86d38:	91194000 	add	x0, x0, #0x650
   86d3c:	97ffeec3 	bl	82848 <uart_puts_early>
   86d40:	14000004 	b	86d50 <verify_critical_mappings_before_mmu+0x20c>
   86d44:	d0007be0 	adrp	x0, 1004000 <hex_chars.0+0x2ff8>
   86d48:	91198000 	add	x0, x0, #0x660
   86d4c:	97ffeebf 	bl	82848 <uart_puts_early>
   86d50:	f94037e0 	ldr	x0, [sp, #104]
   86d54:	97ffeebd 	bl	82848 <uart_puts_early>
   86d58:	f8418ed3 	ldr	x19, [x22, #24]!
   86d5c:	b40004f3 	cbz	x19, 86df8 <verify_critical_mappings_before_mmu+0x2b4>
   86d60:	f94006d4 	ldr	x20, [x22, #8]
   86d64:	b94012d9 	ldr	w25, [x22, #16]
   86d68:	aa1c03e0 	mov	x0, x28
   86d6c:	97ffeeb7 	bl	82848 <uart_puts_early>
   86d70:	aa1403e0 	mov	x0, x20
   86d74:	97ffeeb5 	bl	82848 <uart_puts_early>
   86d78:	f94033e0 	ldr	x0, [sp, #96]
   86d7c:	97ffeeb3 	bl	82848 <uart_puts_early>
   86d80:	aa1303e1 	mov	x1, x19
   86d84:	aa1b03e0 	mov	x0, x27
   86d88:	97fff82e 	bl	84e40 <get_l3_table_for_addr>
   86d8c:	aa0003f4 	mov	x20, x0
   86d90:	b4fff9e0 	cbz	x0, 86ccc <verify_critical_mappings_before_mmu+0x188>
   86d94:	d34cfe73 	lsr	x19, x19, #12
   86d98:	92402278 	and	x24, x19, #0x1ff
   86d9c:	d37d2277 	ubfiz	x23, x19, #3, #9
   86da0:	8b170017 	add	x23, x0, x23
   86da4:	f8787815 	ldr	x21, [x0, x24, lsl #3]
   86da8:	3607f9b5 	tbz	w21, #0, 86cdc <verify_critical_mappings_before_mmu+0x198>
   86dac:	7100033f 	cmp	w25, #0x0
   86db0:	1a9f07fa 	cset	w26, ne	// ne = any
   86db4:	d375d6a0 	ubfx	x0, x21, #53, #1
   86db8:	52000000 	eor	w0, w0, #0x1
   86dbc:	6b20035f 	cmp	w26, w0, uxtb
   86dc0:	54fff961 	b.ne	86cec <verify_critical_mappings_before_mmu+0x1a8>  // b.any
   86dc4:	f8787a80 	ldr	x0, [x20, x24, lsl #3]
   86dc8:	d375d400 	ubfx	x0, x0, #53, #1
   86dcc:	52000000 	eor	w0, w0, #0x1
   86dd0:	12001c00 	and	w0, w0, #0xff
   86dd4:	7100035f 	cmp	w26, #0x0
   86dd8:	7a401804 	ccmp	w0, #0x0, #0x4, ne	// ne = any
   86ddc:	54fffac1 	b.ne	86d34 <verify_critical_mappings_before_mmu+0x1f0>  // b.any
   86de0:	2a190000 	orr	w0, w0, w25
   86de4:	35fffb00 	cbnz	w0, 86d44 <verify_critical_mappings_before_mmu+0x200>
   86de8:	d0007be0 	adrp	x0, 1004000 <hex_chars.0+0x2ff8>
   86dec:	91196000 	add	x0, x0, #0x658
   86df0:	97ffee96 	bl	82848 <uart_puts_early>
   86df4:	17ffffd7 	b	86d50 <verify_critical_mappings_before_mmu+0x20c>
   86df8:	d0007be0 	adrp	x0, 1004000 <hex_chars.0+0x2ff8>
   86dfc:	9119a000 	add	x0, x0, #0x668
   86e00:	97ffee92 	bl	82848 <uart_puts_early>
   86e04:	d5033b9f 	dsb	ish
   86e08:	d508831f 	tlbi	vmalle1is
   86e0c:	d50c839f 	tlbi	alle1is
   86e10:	d5033b9f 	dsb	ish
   86e14:	d508751f 	ic	iallu
   86e18:	d5033b9f 	dsb	ish
   86e1c:	d5033fdf 	isb
   86e20:	d0007be0 	adrp	x0, 1004000 <hex_chars.0+0x2ff8>
   86e24:	911a4000 	add	x0, x0, #0x690
   86e28:	97ffee88 	bl	82848 <uart_puts_early>
   86e2c:	a94153f3 	ldp	x19, x20, [sp, #16]
   86e30:	a9425bf5 	ldp	x21, x22, [sp, #32]
   86e34:	a94363f7 	ldp	x23, x24, [sp, #48]
   86e38:	a9446bf9 	ldp	x25, x26, [sp, #64]
   86e3c:	a94573fb 	ldp	x27, x28, [sp, #80]
   86e40:	a8d07bfd 	ldp	x29, x30, [sp], #256
   86e44:	d65f03c0 	ret

0000000000086e48 <enhanced_cache_maintenance>:
   86e48:	a9bf7bfd 	stp	x29, x30, [sp, #-16]!
   86e4c:	910003fd 	mov	x29, sp
   86e50:	d0007be0 	adrp	x0, 1004000 <hex_chars.0+0x2ff8>
   86e54:	911b2000 	add	x0, x0, #0x6c8
   86e58:	97ffee7c 	bl	82848 <uart_puts_early>
   86e5c:	d508751f 	ic	iallu
   86e60:	d5033b9f 	dsb	ish
   86e64:	d5033fdf 	isb
   86e68:	a8c17bfd 	ldp	x29, x30, [sp], #16
   86e6c:	d65f03c0 	ret

0000000000086e70 <enable_mmu_enhanced>:
   86e70:	a9ba7bfd 	stp	x29, x30, [sp, #-96]!
   86e74:	910003fd 	mov	x29, sp
   86e78:	a90153f3 	stp	x19, x20, [sp, #16]
   86e7c:	a9025bf5 	stp	x21, x22, [sp, #32]
   86e80:	a90363f7 	stp	x23, x24, [sp, #48]
   86e84:	a9046bf9 	stp	x25, x26, [sp, #64]
   86e88:	a90573fb 	stp	x27, x28, [sp, #80]
   86e8c:	aa0003f5 	mov	x21, x0
   86e90:	d0007be0 	adrp	x0, 1004000 <hex_chars.0+0x2ff8>
   86e94:	911bc000 	add	x0, x0, #0x6f0
   86e98:	97ffee6c 	bl	82848 <uart_puts_early>
   86e9c:	d0007be0 	adrp	x0, 1004000 <hex_chars.0+0x2ff8>
   86ea0:	911c0000 	add	x0, x0, #0x700
   86ea4:	97ffee69 	bl	82848 <uart_puts_early>
   86ea8:	aa1503e0 	mov	x0, x21
   86eac:	97ffff26 	bl	86b44 <verify_critical_mappings_before_mmu>
   86eb0:	97ffffe6 	bl	86e48 <enhanced_cache_maintenance>
   86eb4:	d538c013 	mrs	x19, vbar_el1
   86eb8:	b0007c00 	adrp	x0, 1007000 <mmu_msg>
   86ebc:	f9014813 	str	x19, [x0, #656]
   86ec0:	d0007be0 	adrp	x0, 1004000 <hex_chars.0+0x2ff8>
   86ec4:	9105e000 	add	x0, x0, #0x178
   86ec8:	97ffee60 	bl	82848 <uart_puts_early>
   86ecc:	aa1303e0 	mov	x0, x19
   86ed0:	97ffee74 	bl	828a0 <uart_hex64_early>
   86ed4:	f0007bd3 	adrp	x19, 1001000 <GLOBAL_UART>
   86ed8:	91228273 	add	x19, x19, #0x8a0
   86edc:	aa1303e0 	mov	x0, x19
   86ee0:	97ffee5a 	bl	82848 <uart_puts_early>
   86ee4:	d0007be0 	adrp	x0, 1004000 <hex_chars.0+0x2ff8>
   86ee8:	911cc000 	add	x0, x0, #0x730
   86eec:	97ffee57 	bl	82848 <uart_puts_early>
   86ef0:	d286a320 	mov	x0, #0x3519                	// #13593
   86ef4:	f2b6a320 	movk	x0, #0xb519, lsl #16
   86ef8:	f2c00c20 	movk	x0, #0x61, lsl #32
   86efc:	97ffee69 	bl	828a0 <uart_hex64_early>
   86f00:	aa1303e0 	mov	x0, x19
   86f04:	97ffee51 	bl	82848 <uart_puts_early>
   86f08:	d0007be0 	adrp	x0, 1004000 <hex_chars.0+0x2ff8>
   86f0c:	911d6000 	add	x0, x0, #0x758
   86f10:	97ffee4e 	bl	82848 <uart_puts_early>
   86f14:	d29fe000 	mov	x0, #0xff00                	// #65280
   86f18:	f2a08880 	movk	x0, #0x444, lsl #16
   86f1c:	97ffee61 	bl	828a0 <uart_hex64_early>
   86f20:	aa1303e0 	mov	x0, x19
   86f24:	97ffee49 	bl	82848 <uart_puts_early>
   86f28:	1000001c 	adr	x28, 86f28 <enable_mmu_enhanced+0xb8>
   86f2c:	d0007be0 	adrp	x0, 1004000 <hex_chars.0+0x2ff8>
   86f30:	911de000 	add	x0, x0, #0x778
   86f34:	97ffee45 	bl	82848 <uart_puts_early>
   86f38:	aa1c03e0 	mov	x0, x28
   86f3c:	97ffee59 	bl	828a0 <uart_hex64_early>
   86f40:	aa1303e0 	mov	x0, x19
   86f44:	97ffee41 	bl	82848 <uart_puts_early>
   86f48:	9274cf9c 	and	x28, x28, #0xfffffffffffff000
   86f4c:	91400b94 	add	x20, x28, #0x2, lsl #12
   86f50:	d0007be0 	adrp	x0, 1004000 <hex_chars.0+0x2ff8>
   86f54:	911e4000 	add	x0, x0, #0x790
   86f58:	97ffee3c 	bl	82848 <uart_puts_early>
   86f5c:	aa1c03e0 	mov	x0, x28
   86f60:	97ffee50 	bl	828a0 <uart_hex64_early>
   86f64:	b0007be0 	adrp	x0, 1003000 <hex_chars.0+0x1ff8>
   86f68:	91392000 	add	x0, x0, #0xe48
   86f6c:	97ffee37 	bl	82848 <uart_puts_early>
   86f70:	aa1403e0 	mov	x0, x20
   86f74:	97ffee4b 	bl	828a0 <uart_hex64_early>
   86f78:	aa1303e0 	mov	x0, x19
   86f7c:	97ffee33 	bl	82848 <uart_puts_early>
   86f80:	d280e8a4 	mov	x4, #0x745                 	// #1861
   86f84:	aa1c03e3 	mov	x3, x28
   86f88:	aa1403e2 	mov	x2, x20
   86f8c:	aa1c03e1 	mov	x1, x28
   86f90:	aa1503f4 	mov	x20, x21
   86f94:	aa1503e0 	mov	x0, x21
   86f98:	97fffb09 	bl	85bbc <map_range>
   86f9c:	d0007be0 	adrp	x0, 1004000 <hex_chars.0+0x2ff8>
   86fa0:	911f0000 	add	x0, x0, #0x7c0
   86fa4:	97ffee29 	bl	82848 <uart_puts_early>
   86fa8:	b000003c 	adrp	x28, 8b000 <mmu_continuation_point>
   86fac:	9100039c 	add	x28, x28, #0x0
   86fb0:	d0007be0 	adrp	x0, 1004000 <hex_chars.0+0x2ff8>
   86fb4:	911fc000 	add	x0, x0, #0x7f0
   86fb8:	97ffee24 	bl	82848 <uart_puts_early>
   86fbc:	aa1c03e0 	mov	x0, x28
   86fc0:	97ffee38 	bl	828a0 <uart_hex64_early>
   86fc4:	aa1303e0 	mov	x0, x19
   86fc8:	97ffee20 	bl	82848 <uart_puts_early>
   86fcc:	b2503f95 	orr	x21, x28, #0xffff000000000000
   86fd0:	d0007be0 	adrp	x0, 1004000 <hex_chars.0+0x2ff8>
   86fd4:	91208000 	add	x0, x0, #0x820
   86fd8:	97ffee1c 	bl	82848 <uart_puts_early>
   86fdc:	d0007be0 	adrp	x0, 1004000 <hex_chars.0+0x2ff8>
   86fe0:	91212000 	add	x0, x0, #0x848
   86fe4:	97ffee19 	bl	82848 <uart_puts_early>
   86fe8:	d0007be0 	adrp	x0, 1004000 <hex_chars.0+0x2ff8>
   86fec:	9121a000 	add	x0, x0, #0x868
   86ff0:	97ffee16 	bl	82848 <uart_puts_early>
   86ff4:	aa1c03e0 	mov	x0, x28
   86ff8:	97ffee2a 	bl	828a0 <uart_hex64_early>
   86ffc:	aa1303e0 	mov	x0, x19
   87000:	97ffee12 	bl	82848 <uart_puts_early>
   87004:	b0007be0 	adrp	x0, 1004000 <hex_chars.0+0x2ff8>
   87008:	91220000 	add	x0, x0, #0x880
   8700c:	97ffee0f 	bl	82848 <uart_puts_early>
   87010:	aa1503e0 	mov	x0, x21
   87014:	97ffee23 	bl	828a0 <uart_hex64_early>
   87018:	aa1303e0 	mov	x0, x19
   8701c:	97ffee0b 	bl	82848 <uart_puts_early>
   87020:	aa1403e1 	mov	x1, x20
   87024:	d286a322 	mov	x2, #0x3519                	// #13593
   87028:	f2b6a322 	movk	x2, #0xb519, lsl #16
   8702c:	f2c00c22 	movk	x2, #0x61, lsl #32
   87030:	d29fe003 	mov	x3, #0xff00                	// #65280
   87034:	f2a08883 	movk	x3, #0x444, lsl #16
   87038:	aa1503e0 	mov	x0, x21
   8703c:	aa0103f3 	mov	x19, x1
   87040:	aa0203f4 	mov	x20, x2
   87044:	aa0303f5 	mov	x21, x3
   87048:	aa1c03f6 	mov	x22, x28
   8704c:	aa0003f8 	mov	x24, x0
   87050:	d5384259 	mrs	x25, currentel
   87054:	d342ff39 	lsr	x25, x25, #2
   87058:	d2a1201a 	mov	x26, #0x9000000             	// #150994944
   8705c:	52800a1b 	mov	w27, #0x50                  	// #80
   87060:	b900035b 	str	w27, [x26]
   87064:	5280091b 	mov	w27, #0x48                  	// #72
   87068:	b900035b 	str	w27, [x26]
   8706c:	52800b3b 	mov	w27, #0x59                  	// #89
   87070:	b900035b 	str	w27, [x26]
   87074:	52800a7b 	mov	w27, #0x53                  	// #83
   87078:	b900035b 	str	w27, [x26]
   8707c:	5280075b 	mov	w27, #0x3a                  	// #58
   87080:	b900035b 	str	w27, [x26]
   87084:	1100c33b 	add	w27, w25, #0x30
   87088:	b900035b 	str	w27, [x26]
   8708c:	528001bb 	mov	w27, #0xd                   	// #13
   87090:	b900035b 	str	w27, [x26]
   87094:	5280015b 	mov	w27, #0xa                   	// #10
   87098:	b900035b 	str	w27, [x26]
   8709c:	d518a215 	msr	mair_el1, x21
   870a0:	d5033fdf 	isb
   870a4:	d5182054 	msr	tcr_el1, x20
   870a8:	d5033fdf 	isb
   870ac:	d5182013 	msr	ttbr0_el1, x19
   870b0:	d518203f 	msr	ttbr1_el1, xzr
   870b4:	d5033fdf 	isb
   870b8:	d5033f9f 	dsb	sy
   870bc:	d508751f 	ic	iallu
   870c0:	d5033f9f 	dsb	sy
   870c4:	d508831f 	tlbi	vmalle1is
   870c8:	d5033b9f 	dsb	ish
   870cc:	d5033fdf 	isb
   870d0:	d5381017 	mrs	x23, sctlr_el1
   870d4:	b24002f7 	orr	x23, x23, #0x1
   870d8:	d5181017 	msr	sctlr_el1, x23
   870dc:	d5033fdf 	isb
   870e0:	d5384259 	mrs	x25, currentel
   870e4:	d342ff39 	lsr	x25, x25, #2
   870e8:	52800adb 	mov	w27, #0x56                  	// #86
   870ec:	b900035b 	str	w27, [x26]
   870f0:	5280093b 	mov	w27, #0x49                  	// #73
   870f4:	b900035b 	str	w27, [x26]
   870f8:	52800a5b 	mov	w27, #0x52                  	// #82
   870fc:	b900035b 	str	w27, [x26]
   87100:	52800a9b 	mov	w27, #0x54                  	// #84
   87104:	b900035b 	str	w27, [x26]
   87108:	5280075b 	mov	w27, #0x3a                  	// #58
   8710c:	b900035b 	str	w27, [x26]
   87110:	52800adb 	mov	w27, #0x56                  	// #86
   87114:	b900035b 	str	w27, [x26]
   87118:	1100c33b 	add	w27, w25, #0x30
   8711c:	b900035b 	str	w27, [x26]
   87120:	528001bb 	mov	w27, #0xd                   	// #13
   87124:	b900035b 	str	w27, [x26]
   87128:	5280015b 	mov	w27, #0xa                   	// #10
   8712c:	b900035b 	str	w27, [x26]
   87130:	52800a1b 	mov	w27, #0x50                  	// #80
   87134:	b900035b 	str	w27, [x26]
   87138:	52800a9b 	mov	w27, #0x54                  	// #84
   8713c:	b900035b 	str	w27, [x26]
   87140:	52800a5b 	mov	w27, #0x52                  	// #82
   87144:	b900035b 	str	w27, [x26]
   87148:	52800b3b 	mov	w27, #0x59                  	// #89
   8714c:	b900035b 	str	w27, [x26]
   87150:	528001bb 	mov	w27, #0xd                   	// #13
   87154:	b900035b 	str	w27, [x26]
   87158:	5280015b 	mov	w27, #0xa                   	// #10
   8715c:	b900035b 	str	w27, [x26]
   87160:	d61f02c0 	br	x22
   87164:	52800adb 	mov	w27, #0x56                  	// #86
   87168:	b900035b 	str	w27, [x26]
   8716c:	52800a9b 	mov	w27, #0x54                  	// #84
   87170:	b900035b 	str	w27, [x26]
   87174:	52800a5b 	mov	w27, #0x52                  	// #82
   87178:	b900035b 	str	w27, [x26]
   8717c:	52800b3b 	mov	w27, #0x59                  	// #89
   87180:	b900035b 	str	w27, [x26]
   87184:	528001bb 	mov	w27, #0xd                   	// #13
   87188:	b900035b 	str	w27, [x26]
   8718c:	5280015b 	mov	w27, #0xa                   	// #10
   87190:	b900035b 	str	w27, [x26]
   87194:	aa1803f6 	mov	x22, x24
   87198:	d61f02c0 	br	x22
   8719c:	528008db 	mov	w27, #0x46                  	// #70
   871a0:	b900035b 	str	w27, [x26]
   871a4:	5280083b 	mov	w27, #0x41                  	// #65
   871a8:	b900035b 	str	w27, [x26]
   871ac:	5280093b 	mov	w27, #0x49                  	// #73
   871b0:	b900035b 	str	w27, [x26]
   871b4:	5280099b 	mov	w27, #0x4c                  	// #76
   871b8:	b900035b 	str	w27, [x26]
   871bc:	528001bb 	mov	w27, #0xd                   	// #13
   871c0:	b900035b 	str	w27, [x26]
   871c4:	5280015b 	mov	w27, #0xa                   	// #10
   871c8:	b900035b 	str	w27, [x26]
   871cc:	14000000 	b	871cc <enable_mmu_enhanced+0x35c>
   871d0:	b0007be0 	adrp	x0, 1004000 <hex_chars.0+0x2ff8>
   871d4:	91226000 	add	x0, x0, #0x898
   871d8:	97ffed9c 	bl	82848 <uart_puts_early>
   871dc:	a94153f3 	ldp	x19, x20, [sp, #16]
   871e0:	a9425bf5 	ldp	x21, x22, [sp, #32]
   871e4:	a94363f7 	ldp	x23, x24, [sp, #48]
   871e8:	a9446bf9 	ldp	x25, x26, [sp, #64]
   871ec:	a94573fb 	ldp	x27, x28, [sp, #80]
   871f0:	a8c67bfd 	ldp	x29, x30, [sp], #96
   871f4:	d65f03c0 	ret

00000000000871f8 <init_vmm_impl>:
   871f8:	a9ba7bfd 	stp	x29, x30, [sp, #-96]!
   871fc:	910003fd 	mov	x29, sp
   87200:	a90153f3 	stp	x19, x20, [sp, #16]
   87204:	a9025bf5 	stp	x21, x22, [sp, #32]
   87208:	d2a12013 	mov	x19, #0x9000000             	// #150994944
   8720c:	52800b60 	mov	w0, #0x5b                  	// #91
   87210:	b9000260 	str	w0, [x19]
   87214:	52800920 	mov	w0, #0x49                  	// #73
   87218:	b9000260 	str	w0, [x19]
   8721c:	528009a0 	mov	w0, #0x4d                  	// #77
   87220:	b9000260 	str	w0, [x19]
   87224:	52800a16 	mov	w22, #0x50                  	// #80
   87228:	b9000276 	str	w22, [x19]
   8722c:	52800980 	mov	w0, #0x4c                  	// #76
   87230:	b9000260 	str	w0, [x19]
   87234:	52800ba0 	mov	w0, #0x5d                  	// #93
   87238:	b9000260 	str	w0, [x19]
   8723c:	528001b5 	mov	w21, #0xd                   	// #13
   87240:	b9000275 	str	w21, [x19]
   87244:	52800154 	mov	w20, #0xa                   	// #10
   87248:	b9000274 	str	w20, [x19]
   8724c:	b0007be0 	adrp	x0, 1004000 <hex_chars.0+0x2ff8>
   87250:	91236000 	add	x0, x0, #0x8d8
   87254:	97ffed7d 	bl	82848 <uart_puts_early>
   87258:	52800820 	mov	w0, #0x41                  	// #65
   8725c:	b9000260 	str	w0, [x19]
   87260:	52800741 	mov	w1, #0x3a                  	// #58
   87264:	b9000261 	str	w1, [x19]
   87268:	b9000276 	str	w22, [x19]
   8726c:	b9000260 	str	w0, [x19]
   87270:	528008e0 	mov	w0, #0x47                  	// #71
   87274:	b9000260 	str	w0, [x19]
   87278:	528008a0 	mov	w0, #0x45                  	// #69
   8727c:	b9000260 	str	w0, [x19]
   87280:	b9000275 	str	w21, [x19]
   87284:	b9000274 	str	w20, [x19]
   87288:	97fffd85 	bl	8689c <init_page_tables>
   8728c:	b4001180 	cbz	x0, 874bc <init_vmm_impl+0x2c4>
   87290:	a90363f7 	stp	x23, x24, [sp, #48]
   87294:	a9046bf9 	stp	x25, x26, [sp, #64]
   87298:	a90573fb 	stp	x27, x28, [sp, #80]
   8729c:	d2a12013 	mov	x19, #0x9000000             	// #150994944
   872a0:	5280083a 	mov	w26, #0x41                  	// #65
   872a4:	b900027a 	str	w26, [x19]
   872a8:	52800756 	mov	w22, #0x3a                  	// #58
   872ac:	b9000276 	str	w22, [x19]
   872b0:	528009fb 	mov	w27, #0x4f                  	// #79
   872b4:	b900027b 	str	w27, [x19]
   872b8:	52800979 	mov	w25, #0x4b                  	// #75
   872bc:	b9000279 	str	w25, [x19]
   872c0:	528001b5 	mov	w21, #0xd                   	// #13
   872c4:	b9000275 	str	w21, [x19]
   872c8:	52800154 	mov	w20, #0xa                   	// #10
   872cc:	b9000274 	str	w20, [x19]
   872d0:	90007c01 	adrp	x1, 1007000 <mmu_msg>
   872d4:	f9014420 	str	x0, [x1, #648]
   872d8:	52800840 	mov	w0, #0x42                  	// #66
   872dc:	b9000260 	str	w0, [x19]
   872e0:	b9000276 	str	w22, [x19]
   872e4:	52800aa0 	mov	w0, #0x55                  	// #85
   872e8:	b9000260 	str	w0, [x19]
   872ec:	b900027a 	str	w26, [x19]
   872f0:	52800a58 	mov	w24, #0x52                  	// #82
   872f4:	b9000278 	str	w24, [x19]
   872f8:	52800a80 	mov	w0, #0x54                  	// #84
   872fc:	b9000260 	str	w0, [x19]
   87300:	b9000275 	str	w21, [x19]
   87304:	b9000274 	str	w20, [x19]
   87308:	97fffc55 	bl	8645c <map_uart>
   8730c:	52800840 	mov	w0, #0x42                  	// #66
   87310:	b9000260 	str	w0, [x19]
   87314:	b9000276 	str	w22, [x19]
   87318:	b900027b 	str	w27, [x19]
   8731c:	b9000279 	str	w25, [x19]
   87320:	b9000275 	str	w21, [x19]
   87324:	b9000274 	str	w20, [x19]
   87328:	52800860 	mov	w0, #0x43                  	// #67
   8732c:	b9000260 	str	w0, [x19]
   87330:	b9000276 	str	w22, [x19]
   87334:	b9000279 	str	w25, [x19]
   87338:	528008b7 	mov	w23, #0x45                  	// #69
   8733c:	b9000277 	str	w23, [x19]
   87340:	b9000278 	str	w24, [x19]
   87344:	528009dc 	mov	w28, #0x4e                  	// #78
   87348:	b900027c 	str	w28, [x19]
   8734c:	b9000275 	str	w21, [x19]
   87350:	b9000274 	str	w20, [x19]
   87354:	97fffd7d 	bl	86948 <map_kernel_sections>
   87358:	52800860 	mov	w0, #0x43                  	// #67
   8735c:	b9000260 	str	w0, [x19]
   87360:	b9000276 	str	w22, [x19]
   87364:	b900027b 	str	w27, [x19]
   87368:	b9000279 	str	w25, [x19]
   8736c:	b9000275 	str	w21, [x19]
   87370:	b9000274 	str	w20, [x19]
   87374:	52800880 	mov	w0, #0x44                  	// #68
   87378:	b9000260 	str	w0, [x19]
   8737c:	b9000276 	str	w22, [x19]
   87380:	52800ac0 	mov	w0, #0x56                  	// #86
   87384:	b9000260 	str	w0, [x19]
   87388:	b9000277 	str	w23, [x19]
   8738c:	52800860 	mov	w0, #0x43                  	// #67
   87390:	b9000260 	str	w0, [x19]
   87394:	52800a80 	mov	w0, #0x54                  	// #84
   87398:	b9000260 	str	w0, [x19]
   8739c:	b9000275 	str	w21, [x19]
   873a0:	b9000274 	str	w20, [x19]
   873a4:	97fffca3 	bl	86630 <map_vector_table>
   873a8:	52800880 	mov	w0, #0x44                  	// #68
   873ac:	b9000260 	str	w0, [x19]
   873b0:	b9000276 	str	w22, [x19]
   873b4:	b900027b 	str	w27, [x19]
   873b8:	b9000279 	str	w25, [x19]
   873bc:	b9000275 	str	w21, [x19]
   873c0:	b9000274 	str	w20, [x19]
   873c4:	b9000277 	str	w23, [x19]
   873c8:	b9000276 	str	w22, [x19]
   873cc:	52800a80 	mov	w0, #0x54                  	// #84
   873d0:	b9000260 	str	w0, [x19]
   873d4:	b9000278 	str	w24, [x19]
   873d8:	b900027a 	str	w26, [x19]
   873dc:	b900027c 	str	w28, [x19]
   873e0:	b9000275 	str	w21, [x19]
   873e4:	b9000274 	str	w20, [x19]
   873e8:	97fffa50 	bl	85d28 <map_mmu_transition_code>
   873ec:	b9000277 	str	w23, [x19]
   873f0:	b9000276 	str	w22, [x19]
   873f4:	b900027b 	str	w27, [x19]
   873f8:	b9000279 	str	w25, [x19]
   873fc:	b9000275 	str	w21, [x19]
   87400:	b9000274 	str	w20, [x19]
   87404:	528008d9 	mov	w25, #0x46                  	// #70
   87408:	b9000279 	str	w25, [x19]
   8740c:	b9000276 	str	w22, [x19]
   87410:	b9000277 	str	w23, [x19]
   87414:	b900027c 	str	w28, [x19]
   87418:	b900027a 	str	w26, [x19]
   8741c:	52800840 	mov	w0, #0x42                  	// #66
   87420:	b9000260 	str	w0, [x19]
   87424:	b9000275 	str	w21, [x19]
   87428:	b9000274 	str	w20, [x19]
   8742c:	90007c00 	adrp	x0, 1007000 <mmu_msg>
   87430:	f9414400 	ldr	x0, [x0, #648]
   87434:	97fffe8f 	bl	86e70 <enable_mmu_enhanced>
   87438:	b9000279 	str	w25, [x19]
   8743c:	b9000276 	str	w22, [x19]
   87440:	b9000277 	str	w23, [x19]
   87444:	b9000278 	str	w24, [x19]
   87448:	b9000278 	str	w24, [x19]
   8744c:	b9000275 	str	w21, [x19]
   87450:	b9000274 	str	w20, [x19]
   87454:	b9000279 	str	w25, [x19]
   87458:	b9000276 	str	w22, [x19]
   8745c:	b9000277 	str	w23, [x19]
   87460:	b900027c 	str	w28, [x19]
   87464:	b900027a 	str	w26, [x19]
   87468:	52800840 	mov	w0, #0x42                  	// #66
   8746c:	b9000260 	str	w0, [x19]
   87470:	b9000275 	str	w21, [x19]
   87474:	b9000274 	str	w20, [x19]
   87478:	90007c00 	adrp	x0, 1007000 <mmu_msg>
   8747c:	f9414400 	ldr	x0, [x0, #648]
   87480:	97fffe7c 	bl	86e70 <enable_mmu_enhanced>
   87484:	b9000279 	str	w25, [x19]
   87488:	b9000276 	str	w22, [x19]
   8748c:	b9000277 	str	w23, [x19]
   87490:	b9000278 	str	w24, [x19]
   87494:	b9000278 	str	w24, [x19]
   87498:	b9000275 	str	w21, [x19]
   8749c:	b9000274 	str	w20, [x19]
   874a0:	a94363f7 	ldp	x23, x24, [sp, #48]
   874a4:	a9446bf9 	ldp	x25, x26, [sp, #64]
   874a8:	a94573fb 	ldp	x27, x28, [sp, #80]
   874ac:	a94153f3 	ldp	x19, x20, [sp, #16]
   874b0:	a9425bf5 	ldp	x21, x22, [sp, #32]
   874b4:	a8c67bfd 	ldp	x29, x30, [sp], #96
   874b8:	d65f03c0 	ret
   874bc:	b0007be0 	adrp	x0, 1004000 <hex_chars.0+0x2ff8>
   874c0:	91246000 	add	x0, x0, #0x918
   874c4:	97ffece1 	bl	82848 <uart_puts_early>
   874c8:	52800821 	mov	w1, #0x41                  	// #65
   874cc:	b9000261 	str	w1, [x19]
   874d0:	52800742 	mov	w2, #0x3a                  	// #58
   874d4:	b9000262 	str	w2, [x19]
   874d8:	528008c2 	mov	w2, #0x46                  	// #70
   874dc:	b9000262 	str	w2, [x19]
   874e0:	b9000261 	str	w1, [x19]
   874e4:	52800921 	mov	w1, #0x49                  	// #73
   874e8:	b9000261 	str	w1, [x19]
   874ec:	52800981 	mov	w1, #0x4c                  	// #76
   874f0:	b9000261 	str	w1, [x19]
   874f4:	b9000275 	str	w21, [x19]
   874f8:	b9000274 	str	w20, [x19]
   874fc:	17ffffec 	b	874ac <init_vmm_impl+0x2b4>

0000000000087500 <enable_mmu>:
   87500:	a9bd7bfd 	stp	x29, x30, [sp, #-48]!
   87504:	910003fd 	mov	x29, sp
   87508:	a90153f3 	stp	x19, x20, [sp, #16]
   8750c:	f90013f5 	str	x21, [sp, #32]
   87510:	aa0003f3 	mov	x19, x0
   87514:	b0007be0 	adrp	x0, 1004000 <hex_chars.0+0x2ff8>
   87518:	91250000 	add	x0, x0, #0x940
   8751c:	97ffeccb 	bl	82848 <uart_puts_early>
   87520:	b0007be0 	adrp	x0, 1004000 <hex_chars.0+0x2ff8>
   87524:	91260000 	add	x0, x0, #0x980
   87528:	97ffecc8 	bl	82848 <uart_puts_early>
   8752c:	90007c00 	adrp	x0, 1007000 <mmu_msg>
   87530:	f9414800 	ldr	x0, [x0, #656]
   87534:	97ffecdb 	bl	828a0 <uart_hex64_early>
   87538:	d0007bd4 	adrp	x20, 1001000 <GLOBAL_UART>
   8753c:	91228294 	add	x20, x20, #0x8a0
   87540:	aa1403e0 	mov	x0, x20
   87544:	97ffecc1 	bl	82848 <uart_puts_early>
   87548:	aa1303e0 	mov	x0, x19
   8754c:	97fffd7e 	bl	86b44 <verify_critical_mappings_before_mmu>
   87550:	97fffe3e 	bl	86e48 <enhanced_cache_maintenance>
   87554:	d538c015 	mrs	x21, vbar_el1
   87558:	b0007be0 	adrp	x0, 1004000 <hex_chars.0+0x2ff8>
   8755c:	91268000 	add	x0, x0, #0x9a0
   87560:	97ffecba 	bl	82848 <uart_puts_early>
   87564:	aa1503e0 	mov	x0, x21
   87568:	97ffecce 	bl	828a0 <uart_hex64_early>
   8756c:	aa1403e0 	mov	x0, x20
   87570:	97ffecb6 	bl	82848 <uart_puts_early>
   87574:	b40000f5 	cbz	x21, 87590 <enable_mmu+0x90>
   87578:	90007c00 	adrp	x0, 1007000 <mmu_msg>
   8757c:	f9414814 	ldr	x20, [x0, #656]
   87580:	f100029f 	cmp	x20, #0x0
   87584:	fa551284 	ccmp	x20, x21, #0x4, ne	// ne = any
   87588:	54000360 	b.eq	875f4 <enable_mmu+0xf4>  // b.none
   8758c:	14000007 	b	875a8 <enable_mmu+0xa8>
   87590:	90007c00 	adrp	x0, 1007000 <mmu_msg>
   87594:	f9414814 	ldr	x20, [x0, #656]
   87598:	b0007bc0 	adrp	x0, 1000000 <vector_table>
   8759c:	91000000 	add	x0, x0, #0x0
   875a0:	f100029f 	cmp	x20, #0x0
   875a4:	9a940014 	csel	x20, x0, x20, eq	// eq = none
   875a8:	b0007be0 	adrp	x0, 1004000 <hex_chars.0+0x2ff8>
   875ac:	91270000 	add	x0, x0, #0x9c0
   875b0:	97ffeca6 	bl	82848 <uart_puts_early>
   875b4:	aa1403e0 	mov	x0, x20
   875b8:	97ffecba 	bl	828a0 <uart_hex64_early>
   875bc:	b0007be0 	adrp	x0, 1004000 <hex_chars.0+0x2ff8>
   875c0:	91278000 	add	x0, x0, #0x9e0
   875c4:	97ffeca1 	bl	82848 <uart_puts_early>
   875c8:	d518c014 	msr	vbar_el1, x20
   875cc:	d5033fdf 	isb
   875d0:	d538c014 	mrs	x20, vbar_el1
   875d4:	b0007be0 	adrp	x0, 1004000 <hex_chars.0+0x2ff8>
   875d8:	9127e000 	add	x0, x0, #0x9f8
   875dc:	97ffec9b 	bl	82848 <uart_puts_early>
   875e0:	aa1403e0 	mov	x0, x20
   875e4:	97ffecaf 	bl	828a0 <uart_hex64_early>
   875e8:	d0007bc0 	adrp	x0, 1001000 <GLOBAL_UART>
   875ec:	91228000 	add	x0, x0, #0x8a0
   875f0:	97ffec96 	bl	82848 <uart_puts_early>
   875f4:	b0007be0 	adrp	x0, 1004000 <hex_chars.0+0x2ff8>
   875f8:	91286000 	add	x0, x0, #0xa18
   875fc:	97ffec93 	bl	82848 <uart_puts_early>
   87600:	97fffb97 	bl	8645c <map_uart>
   87604:	b0007be0 	adrp	x0, 1004000 <hex_chars.0+0x2ff8>
   87608:	91294000 	add	x0, x0, #0xa50
   8760c:	97ffec8f 	bl	82848 <uart_puts_early>
   87610:	d5033b9f 	dsb	ish
   87614:	aa1303e0 	mov	x0, x19
   87618:	97fffe16 	bl	86e70 <enable_mmu_enhanced>
   8761c:	a94153f3 	ldp	x19, x20, [sp, #16]
   87620:	f94013f5 	ldr	x21, [sp, #32]
   87624:	a8c37bfd 	ldp	x29, x30, [sp], #48
   87628:	d65f03c0 	ret

000000000008762c <init_vmm_wrapper>:
   8762c:	a9ba7bfd 	stp	x29, x30, [sp, #-96]!
   87630:	910003fd 	mov	x29, sp
   87634:	a90153f3 	stp	x19, x20, [sp, #16]
   87638:	a9025bf5 	stp	x21, x22, [sp, #32]
   8763c:	a90363f7 	stp	x23, x24, [sp, #48]
   87640:	a9046bf9 	stp	x25, x26, [sp, #64]
   87644:	a90573fb 	stp	x27, x28, [sp, #80]
   87648:	d2a12013 	mov	x19, #0x9000000             	// #150994944
   8764c:	52800b60 	mov	w0, #0x5b                  	// #91
   87650:	b9000260 	str	w0, [x19]
   87654:	52800ae0 	mov	w0, #0x57                  	// #87
   87658:	b9000260 	str	w0, [x19]
   8765c:	52800a57 	mov	w23, #0x52                  	// #82
   87660:	b9000277 	str	w23, [x19]
   87664:	5280083c 	mov	w28, #0x41                  	// #65
   87668:	b900027c 	str	w28, [x19]
   8766c:	52800a1b 	mov	w27, #0x50                  	// #80
   87670:	b900027b 	str	w27, [x19]
   87674:	52800ba0 	mov	w0, #0x5d                  	// #93
   87678:	b9000260 	str	w0, [x19]
   8767c:	528001b5 	mov	w21, #0xd                   	// #13
   87680:	b9000275 	str	w21, [x19]
   87684:	52800154 	mov	w20, #0xa                   	// #10
   87688:	b9000274 	str	w20, [x19]
   8768c:	52800638 	mov	w24, #0x31                  	// #49
   87690:	b9000278 	str	w24, [x19]
   87694:	52800756 	mov	w22, #0x3a                  	// #58
   87698:	b9000276 	str	w22, [x19]
   8769c:	52800920 	mov	w0, #0x49                  	// #73
   876a0:	b9000260 	str	w0, [x19]
   876a4:	528009c1 	mov	w1, #0x4e                  	// #78
   876a8:	b9000261 	str	w1, [x19]
   876ac:	b9000260 	str	w0, [x19]
   876b0:	52800a80 	mov	w0, #0x54                  	// #84
   876b4:	b9000260 	str	w0, [x19]
   876b8:	b9000275 	str	w21, [x19]
   876bc:	b9000274 	str	w20, [x19]
   876c0:	97fffece 	bl	871f8 <init_vmm_impl>
   876c4:	b9000278 	str	w24, [x19]
   876c8:	b9000276 	str	w22, [x19]
   876cc:	528009fa 	mov	w26, #0x4f                  	// #79
   876d0:	b900027a 	str	w26, [x19]
   876d4:	52800979 	mov	w25, #0x4b                  	// #75
   876d8:	b9000279 	str	w25, [x19]
   876dc:	b9000275 	str	w21, [x19]
   876e0:	b9000274 	str	w20, [x19]
   876e4:	52800640 	mov	w0, #0x32                  	// #50
   876e8:	b9000260 	str	w0, [x19]
   876ec:	b9000276 	str	w22, [x19]
   876f0:	528009b8 	mov	w24, #0x4d                  	// #77
   876f4:	b9000278 	str	w24, [x19]
   876f8:	b900027c 	str	w28, [x19]
   876fc:	b900027b 	str	w27, [x19]
   87700:	b9000275 	str	w21, [x19]
   87704:	b9000274 	str	w20, [x19]
   87708:	97fff988 	bl	85d28 <map_mmu_transition_code>
   8770c:	52800640 	mov	w0, #0x32                  	// #50
   87710:	b9000260 	str	w0, [x19]
   87714:	b9000276 	str	w22, [x19]
   87718:	b900027a 	str	w26, [x19]
   8771c:	b9000279 	str	w25, [x19]
   87720:	b9000275 	str	w21, [x19]
   87724:	b9000274 	str	w20, [x19]
   87728:	5280067c 	mov	w28, #0x33                  	// #51
   8772c:	b900027c 	str	w28, [x19]
   87730:	b9000276 	str	w22, [x19]
   87734:	52800ac0 	mov	w0, #0x56                  	// #86
   87738:	b9000260 	str	w0, [x19]
   8773c:	528008bb 	mov	w27, #0x45                  	// #69
   87740:	b900027b 	str	w27, [x19]
   87744:	52800860 	mov	w0, #0x43                  	// #67
   87748:	b9000260 	str	w0, [x19]
   8774c:	b9000275 	str	w21, [x19]
   87750:	b9000274 	str	w20, [x19]
   87754:	97fffbb7 	bl	86630 <map_vector_table>
   87758:	b900027c 	str	w28, [x19]
   8775c:	b9000276 	str	w22, [x19]
   87760:	b900027a 	str	w26, [x19]
   87764:	b9000279 	str	w25, [x19]
   87768:	b9000275 	str	w21, [x19]
   8776c:	b9000274 	str	w20, [x19]
   87770:	52800680 	mov	w0, #0x34                  	// #52
   87774:	b9000260 	str	w0, [x19]
   87778:	b9000276 	str	w22, [x19]
   8777c:	b9000278 	str	w24, [x19]
   87780:	b9000278 	str	w24, [x19]
   87784:	52800aa0 	mov	w0, #0x55                  	// #85
   87788:	b9000260 	str	w0, [x19]
   8778c:	b9000275 	str	w21, [x19]
   87790:	b9000274 	str	w20, [x19]
   87794:	90007c00 	adrp	x0, 1007000 <mmu_msg>
   87798:	f9414400 	ldr	x0, [x0, #648]
   8779c:	97ffff59 	bl	87500 <enable_mmu>
   877a0:	b900027b 	str	w27, [x19]
   877a4:	b9000277 	str	w23, [x19]
   877a8:	b9000277 	str	w23, [x19]
   877ac:	b9000276 	str	w22, [x19]
   877b0:	b9000277 	str	w23, [x19]
   877b4:	b900027b 	str	w27, [x19]
   877b8:	52800a80 	mov	w0, #0x54                  	// #84
   877bc:	b9000260 	str	w0, [x19]
   877c0:	b9000275 	str	w21, [x19]
   877c4:	b9000274 	str	w20, [x19]
   877c8:	a94153f3 	ldp	x19, x20, [sp, #16]
   877cc:	a9425bf5 	ldp	x21, x22, [sp, #32]
   877d0:	a94363f7 	ldp	x23, x24, [sp, #48]
   877d4:	a9446bf9 	ldp	x25, x26, [sp, #64]
   877d8:	a94573fb 	ldp	x27, x28, [sp, #80]
   877dc:	a8c67bfd 	ldp	x29, x30, [sp], #96
   877e0:	d65f03c0 	ret

00000000000877e4 <init_vmm>:
   877e4:	a9be7bfd 	stp	x29, x30, [sp, #-32]!
   877e8:	910003fd 	mov	x29, sp
   877ec:	f9000bf3 	str	x19, [sp, #16]
   877f0:	b0007be0 	adrp	x0, 1004000 <hex_chars.0+0x2ff8>
   877f4:	912a0000 	add	x0, x0, #0xa80
   877f8:	97ffeee9 	bl	8339c <uart_puts>
   877fc:	97fffe7f 	bl	871f8 <init_vmm_impl>
   87800:	b0007be0 	adrp	x0, 1004000 <hex_chars.0+0x2ff8>
   87804:	912ac000 	add	x0, x0, #0xab0
   87808:	97ffec10 	bl	82848 <uart_puts_early>
   8780c:	97fffb89 	bl	86630 <map_vector_table>
   87810:	b0007bf3 	adrp	x19, 1004000 <hex_chars.0+0x2ff8>
   87814:	912ae273 	add	x19, x19, #0xab8
   87818:	aa1303e0 	mov	x0, x19
   8781c:	97ffec0b 	bl	82848 <uart_puts_early>
   87820:	b0007be0 	adrp	x0, 1004000 <hex_chars.0+0x2ff8>
   87824:	912b0000 	add	x0, x0, #0xac0
   87828:	97ffec08 	bl	82848 <uart_puts_early>
   8782c:	97fffb0c 	bl	8645c <map_uart>
   87830:	aa1303e0 	mov	x0, x19
   87834:	97ffec05 	bl	82848 <uart_puts_early>
   87838:	b0007be0 	adrp	x0, 1004000 <hex_chars.0+0x2ff8>
   8783c:	912b2000 	add	x0, x0, #0xac8
   87840:	97ffec02 	bl	82848 <uart_puts_early>
   87844:	97fff939 	bl	85d28 <map_mmu_transition_code>
   87848:	aa1303e0 	mov	x0, x19
   8784c:	97ffebff 	bl	82848 <uart_puts_early>
   87850:	b0007be0 	adrp	x0, 1004000 <hex_chars.0+0x2ff8>
   87854:	912b4000 	add	x0, x0, #0xad0
   87858:	97ffebfc 	bl	82848 <uart_puts_early>
   8785c:	97fffbae 	bl	86714 <audit_memory_mappings>
   87860:	aa1303e0 	mov	x0, x19
   87864:	97ffebf9 	bl	82848 <uart_puts_early>
   87868:	b0007be0 	adrp	x0, 1004000 <hex_chars.0+0x2ff8>
   8786c:	912b6000 	add	x0, x0, #0xad8
   87870:	97ffebf6 	bl	82848 <uart_puts_early>
   87874:	97fff5eb 	bl	85020 <verify_code_is_executable>
   87878:	aa1303e0 	mov	x0, x19
   8787c:	97ffebf3 	bl	82848 <uart_puts_early>
   87880:	b0007be0 	adrp	x0, 1004000 <hex_chars.0+0x2ff8>
   87884:	912b8000 	add	x0, x0, #0xae0
   87888:	97ffebf0 	bl	82848 <uart_puts_early>
   8788c:	90007c00 	adrp	x0, 1007000 <mmu_msg>
   87890:	f9414400 	ldr	x0, [x0, #648]
   87894:	97ffff1b 	bl	87500 <enable_mmu>
   87898:	b0007be0 	adrp	x0, 1004000 <hex_chars.0+0x2ff8>
   8789c:	912ba000 	add	x0, x0, #0xae8
   878a0:	97ffebea 	bl	82848 <uart_puts_early>
   878a4:	f9400bf3 	ldr	x19, [sp, #16]
   878a8:	a8c27bfd 	ldp	x29, x30, [sp], #32
   878ac:	d65f03c0 	ret

00000000000878b0 <save_context>:
   878b0:	a909d013 	stp	x19, x20, [x0, #152]
   878b4:	a90ad815 	stp	x21, x22, [x0, #168]
   878b8:	a90be017 	stp	x23, x24, [x0, #184]
   878bc:	a90ce819 	stp	x25, x26, [x0, #200]
   878c0:	a90df01b 	stp	x27, x28, [x0, #216]
   878c4:	f900741d 	str	x29, [x0, #232]
   878c8:	f9007c1e 	str	x30, [x0, #248]
   878cc:	910003e1 	mov	x1, sp
   878d0:	f9000001 	str	x1, [x0]
   878d4:	d53b4221 	mrs	x1, daif
   878d8:	f9008001 	str	x1, [x0, #256]
   878dc:	d65f03c0 	ret

00000000000878e0 <restore_context>:
   878e0:	58002041 	ldr	x1, 87ce8 <known_branch_test+0x10>
   878e4:	52800a42 	mov	w2, #0x52                  	// #82
   878e8:	b9000022 	str	w2, [x1]
   878ec:	f9408402 	ldr	x2, [x0, #264]
   878f0:	92400c42 	and	x2, x2, #0xf
   878f4:	1100c042 	add	w2, w2, #0x30
   878f8:	b9000022 	str	w2, [x1]
   878fc:	f9407c02 	ldr	x2, [x0, #248]
   87900:	d35cfc42 	lsr	x2, x2, #28
   87904:	92400c42 	and	x2, x2, #0xf
   87908:	f100285f 	cmp	x2, #0xa
   8790c:	5400006a 	b.ge	87918 <restore_context+0x38>  // b.tcont
   87910:	1100c042 	add	w2, w2, #0x30
   87914:	14000003 	b	87920 <restore_context+0x40>
   87918:	51002842 	sub	w2, w2, #0xa
   8791c:	11010442 	add	w2, w2, #0x41
   87920:	b9000022 	str	w2, [x1]
   87924:	f9400002 	ldr	x2, [x0]
   87928:	d35cfc42 	lsr	x2, x2, #28
   8792c:	92400c42 	and	x2, x2, #0xf
   87930:	f100285f 	cmp	x2, #0xa
   87934:	5400006a 	b.ge	87940 <restore_context+0x60>  // b.tcont
   87938:	1100c042 	add	w2, w2, #0x30
   8793c:	14000003 	b	87948 <restore_context+0x68>
   87940:	51002842 	sub	w2, w2, #0xa
   87944:	11010442 	add	w2, w2, #0x41
   87948:	b9000022 	str	w2, [x1]
   8794c:	f9400002 	ldr	x2, [x0]
   87950:	92400c43 	and	x3, x2, #0xf
   87954:	f100007f 	cmp	x3, #0x0
   87958:	54000080 	b.eq	87968 <restore_context+0x88>  // b.none
   8795c:	52800aa2 	mov	w2, #0x55                  	// #85
   87960:	b9000022 	str	w2, [x1]
   87964:	14000003 	b	87970 <restore_context+0x90>
   87968:	52800822 	mov	w2, #0x41                  	// #65
   8796c:	b9000022 	str	w2, [x1]
   87970:	f9400001 	ldr	x1, [x0]
   87974:	9100003f 	mov	sp, x1
   87978:	a949d013 	ldp	x19, x20, [x0, #152]
   8797c:	a94ad815 	ldp	x21, x22, [x0, #168]
   87980:	a94be017 	ldp	x23, x24, [x0, #184]
   87984:	a94ce819 	ldp	x25, x26, [x0, #200]
   87988:	a94df01b 	ldp	x27, x28, [x0, #216]
   8798c:	f940741d 	ldr	x29, [x0, #232]
   87990:	f9407c1e 	ldr	x30, [x0, #248]
   87994:	d65f03c0 	ret

0000000000087998 <full_restore_context>:
   87998:	58001a85 	ldr	x5, 87ce8 <known_branch_test+0x10>
   8799c:	528008c6 	mov	w6, #0x46                  	// #70
   879a0:	b90000a6 	str	w6, [x5]
   879a4:	f9400001 	ldr	x1, [x0]
   879a8:	aa0103e4 	mov	x4, x1
   879ac:	52800a66 	mov	w6, #0x53                  	// #83
   879b0:	b90000a6 	str	w6, [x5]
   879b4:	52800a06 	mov	w6, #0x50                  	// #80
   879b8:	b90000a6 	str	w6, [x5]
   879bc:	528007a6 	mov	w6, #0x3d                  	// #61
   879c0:	b90000a6 	str	w6, [x5]
   879c4:	d2800787 	mov	x7, #0x3c                  	// #60

00000000000879c8 <sp_print_loop>:
   879c8:	aa0403e8 	mov	x8, x4
   879cc:	9ac72508 	lsr	x8, x8, x7
   879d0:	92400d08 	and	x8, x8, #0xf
   879d4:	f100291f 	cmp	x8, #0xa
   879d8:	5400006b 	b.lt	879e4 <sp_print_loop+0x1c>  // b.tstop
   879dc:	1100dd08 	add	w8, w8, #0x37
   879e0:	14000002 	b	879e8 <sp_print_loop+0x20>
   879e4:	1100c108 	add	w8, w8, #0x30
   879e8:	b90000a8 	str	w8, [x5]
   879ec:	d10010e7 	sub	x7, x7, #0x4
   879f0:	f10000ff 	cmp	x7, #0x0
   879f4:	54fffeaa 	b.ge	879c8 <sp_print_loop>  // b.tcont
   879f8:	528001a6 	mov	w6, #0xd                   	// #13
   879fc:	b90000a6 	str	w6, [x5]
   87a00:	52800146 	mov	w6, #0xa                   	// #10
   87a04:	b90000a6 	str	w6, [x5]
   87a08:	f9407c02 	ldr	x2, [x0, #248]
   87a0c:	52800a06 	mov	w6, #0x50                  	// #80
   87a10:	b90000a6 	str	w6, [x5]
   87a14:	52800866 	mov	w6, #0x43                  	// #67
   87a18:	b90000a6 	str	w6, [x5]
   87a1c:	528007a6 	mov	w6, #0x3d                  	// #61
   87a20:	b90000a6 	str	w6, [x5]
   87a24:	d2800787 	mov	x7, #0x3c                  	// #60

0000000000087a28 <pc_print_loop>:
   87a28:	aa0203e8 	mov	x8, x2
   87a2c:	9ac72508 	lsr	x8, x8, x7
   87a30:	92400d08 	and	x8, x8, #0xf
   87a34:	f100291f 	cmp	x8, #0xa
   87a38:	5400006b 	b.lt	87a44 <pc_print_loop+0x1c>  // b.tstop
   87a3c:	1100dd08 	add	w8, w8, #0x37
   87a40:	14000002 	b	87a48 <pc_print_loop+0x20>
   87a44:	1100c108 	add	w8, w8, #0x30
   87a48:	b90000a8 	str	w8, [x5]
   87a4c:	d10010e7 	sub	x7, x7, #0x4
   87a50:	f10000ff 	cmp	x7, #0x0
   87a54:	54fffeaa 	b.ge	87a28 <pc_print_loop>  // b.tcont
   87a58:	528001a6 	mov	w6, #0xd                   	// #13
   87a5c:	b90000a6 	str	w6, [x5]
   87a60:	52800146 	mov	w6, #0xa                   	// #10
   87a64:	b90000a6 	str	w6, [x5]
   87a68:	f9408003 	ldr	x3, [x0, #256]
   87a6c:	52800a66 	mov	w6, #0x53                  	// #83
   87a70:	b90000a6 	str	w6, [x5]
   87a74:	52800a06 	mov	w6, #0x50                  	// #80
   87a78:	b90000a6 	str	w6, [x5]
   87a7c:	52800a66 	mov	w6, #0x53                  	// #83
   87a80:	b90000a6 	str	w6, [x5]
   87a84:	52800a46 	mov	w6, #0x52                  	// #82
   87a88:	b90000a6 	str	w6, [x5]
   87a8c:	528007a6 	mov	w6, #0x3d                  	// #61
   87a90:	b90000a6 	str	w6, [x5]
   87a94:	d2800387 	mov	x7, #0x1c                  	// #28
   87a98:	aa0303e8 	mov	x8, x3
   87a9c:	9ac72508 	lsr	x8, x8, x7
   87aa0:	92400d08 	and	x8, x8, #0xf
   87aa4:	f100291f 	cmp	x8, #0xa
   87aa8:	5400006b 	b.lt	87ab4 <pc_print_loop+0x8c>  // b.tstop
   87aac:	1100dd08 	add	w8, w8, #0x37
   87ab0:	14000002 	b	87ab8 <pc_print_loop+0x90>
   87ab4:	1100c108 	add	w8, w8, #0x30
   87ab8:	b90000a8 	str	w8, [x5]
   87abc:	528001a6 	mov	w6, #0xd                   	// #13
   87ac0:	b90000a6 	str	w6, [x5]
   87ac4:	52800146 	mov	w6, #0xa                   	// #10
   87ac8:	b90000a6 	str	w6, [x5]
   87acc:	f100003f 	cmp	x1, #0x0
   87ad0:	54000101 	b.ne	87af0 <pc_print_loop+0xc8>  // b.any
   87ad4:	52800a66 	mov	w6, #0x53                  	// #83
   87ad8:	b90000a6 	str	w6, [x5]
   87adc:	528007a6 	mov	w6, #0x3d                  	// #61
   87ae0:	b90000a6 	str	w6, [x5]
   87ae4:	52800606 	mov	w6, #0x30                  	// #48
   87ae8:	b90000a6 	str	w6, [x5]
   87aec:	14000054 	b	87c3c <fatal_error>
   87af0:	aa0103e4 	mov	x4, x1
   87af4:	92400c84 	and	x4, x4, #0xf
   87af8:	f100009f 	cmp	x4, #0x0
   87afc:	540001c0 	b.eq	87b34 <pc_print_loop+0x10c>  // b.none
   87b00:	52800826 	mov	w6, #0x41                  	// #65
   87b04:	b90000a6 	str	w6, [x5]
   87b08:	52800986 	mov	w6, #0x4c                  	// #76
   87b0c:	b90000a6 	str	w6, [x5]
   87b10:	52800926 	mov	w6, #0x49                  	// #73
   87b14:	b90000a6 	str	w6, [x5]
   87b18:	528008e6 	mov	w6, #0x47                  	// #71
   87b1c:	b90000a6 	str	w6, [x5]
   87b20:	528009c6 	mov	w6, #0x4e                  	// #78
   87b24:	b90000a6 	str	w6, [x5]
   87b28:	52800426 	mov	w6, #0x21                  	// #33
   87b2c:	b90000a6 	str	w6, [x5]
   87b30:	14000043 	b	87c3c <fatal_error>
   87b34:	52800a66 	mov	w6, #0x53                  	// #83
   87b38:	b90000a6 	str	w6, [x5]
   87b3c:	52800a06 	mov	w6, #0x50                  	// #80
   87b40:	b90000a6 	str	w6, [x5]
   87b44:	52800be6 	mov	w6, #0x5f                  	// #95
   87b48:	b90000a6 	str	w6, [x5]
   87b4c:	52800a66 	mov	w6, #0x53                  	// #83
   87b50:	b90000a6 	str	w6, [x5]
   87b54:	528008a6 	mov	w6, #0x45                  	// #69
   87b58:	b90000a6 	str	w6, [x5]
   87b5c:	52800a86 	mov	w6, #0x54                  	// #84
   87b60:	b90000a6 	str	w6, [x5]
   87b64:	52800ac6 	mov	w6, #0x56                  	// #86
   87b68:	b90000a6 	str	w6, [x5]
   87b6c:	52800be6 	mov	w6, #0x5f                  	// #95
   87b70:	b90000a6 	str	w6, [x5]
   87b74:	52800a66 	mov	w6, #0x53                  	// #83
   87b78:	b90000a6 	str	w6, [x5]
   87b7c:	aa0303e8 	mov	x8, x3
   87b80:	d348fd08 	lsr	x8, x8, #8
   87b84:	92400d08 	and	x8, x8, #0xf
   87b88:	f100291f 	cmp	x8, #0xa
   87b8c:	5400006b 	b.lt	87b98 <pc_print_loop+0x170>  // b.tstop
   87b90:	1100dd08 	add	w8, w8, #0x37
   87b94:	14000002 	b	87b9c <pc_print_loop+0x174>
   87b98:	1100c108 	add	w8, w8, #0x30
   87b9c:	b90000a8 	str	w8, [x5]
   87ba0:	d2800620 	mov	x0, #0x31                  	// #49
   87ba4:	97ffedf4 	bl	83374 <uart_putc>
   87ba8:	d5184003 	msr	spsr_el1, x3
   87bac:	d2800640 	mov	x0, #0x32                  	// #50
   87bb0:	97ffedf1 	bl	83374 <uart_putc>
   87bb4:	d5184022 	msr	elr_el1, x2
   87bb8:	d2800660 	mov	x0, #0x33                  	// #51
   87bbc:	97ffedee 	bl	83374 <uart_putc>
   87bc0:	9100003f 	mov	sp, x1
   87bc4:	528001a6 	mov	w6, #0xd                   	// #13
   87bc8:	b90000a6 	str	w6, [x5]
   87bcc:	52800146 	mov	w6, #0xa                   	// #10
   87bd0:	b90000a6 	str	w6, [x5]
   87bd4:	528009a6 	mov	w6, #0x4d                  	// #77
   87bd8:	b90000a6 	str	w6, [x5]
   87bdc:	52800746 	mov	w6, #0x3a                  	// #58
   87be0:	b90000a6 	str	w6, [x5]
   87be4:	f94003e9 	ldr	x9, [sp]
   87be8:	aa0903e0 	mov	x0, x9
   87bec:	97ffedf7 	bl	833c8 <uart_hex64>
   87bf0:	528008a6 	mov	w6, #0x45                  	// #69
   87bf4:	b90000a6 	str	w6, [x5]
   87bf8:	52800a46 	mov	w6, #0x52                  	// #82
   87bfc:	b90000a6 	str	w6, [x5]
   87c00:	528008a6 	mov	w6, #0x45                  	// #69
   87c04:	b90000a6 	str	w6, [x5]
   87c08:	52800a86 	mov	w6, #0x54                  	// #84
   87c0c:	b90000a6 	str	w6, [x5]
   87c10:	52800746 	mov	w6, #0x3a                  	// #58
   87c14:	b90000a6 	str	w6, [x5]
   87c18:	aa1303e0 	mov	x0, x19
   87c1c:	97ffedeb 	bl	833c8 <uart_hex64>
   87c20:	910003e0 	mov	x0, sp
   87c24:	97ffede9 	bl	833c8 <uart_hex64>
   87c28:	d5384000 	mrs	x0, spsr_el1
   87c2c:	97ffede7 	bl	833c8 <uart_hex64>
   87c30:	d2800b40 	mov	x0, #0x5a                  	// #90
   87c34:	97ffedd0 	bl	83374 <uart_putc>
   87c38:	d69f03e0 	eret

0000000000087c3c <fatal_error>:
   87c3c:	52800426 	mov	w6, #0x21                  	// #33
   87c40:	b90000a6 	str	w6, [x5]
   87c44:	52800426 	mov	w6, #0x21                  	// #33
   87c48:	b90000a6 	str	w6, [x5]
   87c4c:	52800426 	mov	w6, #0x21                  	// #33
   87c50:	b90000a6 	str	w6, [x5]
   87c54:	14000000 	b	87c54 <fatal_error+0x18>
   87c58:	d503201f 	nop
   87c5c:	d503201f 	nop

0000000000087c60 <dummy_asm>:
   87c60:	d2800820 	mov	x0, #0x41                  	// #65
   87c64:	97ffedc4 	bl	83374 <uart_putc>
   87c68:	d65f03c0 	ret
   87c6c:	d503201f 	nop

0000000000087c70 <test_context_switch>:
   87c70:	d2800a80 	mov	x0, #0x54                  	// #84
   87c74:	97ffedc0 	bl	83374 <uart_putc>
   87c78:	10ffff40 	adr	x0, 87c60 <dummy_asm>
   87c7c:	aa0003e9 	mov	x9, x0
   87c80:	d2800a00 	mov	x0, #0x50                  	// #80
   87c84:	97ffedbc 	bl	83374 <uart_putc>
   87c88:	aa0903e0 	mov	x0, x9
   87c8c:	97ffee25 	bl	83520 <uart_putx>
   87c90:	aa0903e0 	mov	x0, x9
   87c94:	580002e1 	ldr	x1, 87cf0 <known_branch_test+0x18>
   87c98:	d2807802 	mov	x2, #0x3c0                 	// #960
   87c9c:	d2800b40 	mov	x0, #0x5a                  	// #90
   87ca0:	97ffedb5 	bl	83374 <uart_putc>
   87ca4:	d5184029 	msr	elr_el1, x9
   87ca8:	d51c4101 	msr	sp_el1, x1
   87cac:	d5184002 	msr	spsr_el1, x2
   87cb0:	d28008a0 	mov	x0, #0x45                  	// #69
   87cb4:	97ffedb0 	bl	83374 <uart_putc>
   87cb8:	d69f03e0 	eret
   87cbc:	d2800a40 	mov	x0, #0x52                  	// #82
   87cc0:	97ffedad 	bl	83374 <uart_putc>
   87cc4:	d2806802 	mov	x2, #0x340                 	// #832
   87cc8:	d5184002 	msr	spsr_el1, x2
   87ccc:	d2800640 	mov	x0, #0x32                  	// #50
   87cd0:	97ffeda9 	bl	83374 <uart_putc>
   87cd4:	d69f03e0 	eret

0000000000087cd8 <known_branch_test>:
   87cd8:	d2800b00 	mov	x0, #0x58                  	// #88
   87cdc:	97ffeda6 	bl	83374 <uart_putc>
   87ce0:	d65f03c0 	ret
   87ce4:	00000000 	udf	#0
   87ce8:	09000000 	.word	0x09000000
   87cec:	00000000 	.word	0x00000000
   87cf0:	40800000 	.word	0x40800000
   87cf4:	00000000 	.word	0x00000000

0000000000087cf8 <raw_uart_puts>:
   87cf8:	39400001 	ldrb	w1, [x0]
   87cfc:	34000181 	cbz	w1, 87d2c <raw_uart_puts+0x34>
   87d00:	d2a12002 	mov	x2, #0x9000000             	// #150994944
   87d04:	528001a3 	mov	w3, #0xd                   	// #13
   87d08:	14000005 	b	87d1c <raw_uart_puts+0x24>
   87d0c:	38401401 	ldrb	w1, [x0], #1
   87d10:	b9000041 	str	w1, [x2]
   87d14:	39400001 	ldrb	w1, [x0]
   87d18:	340000a1 	cbz	w1, 87d2c <raw_uart_puts+0x34>
   87d1c:	7100283f 	cmp	w1, #0xa
   87d20:	54ffff61 	b.ne	87d0c <raw_uart_puts+0x14>  // b.any
   87d24:	b9000043 	str	w3, [x2]
   87d28:	17fffff9 	b	87d0c <raw_uart_puts+0x14>
   87d2c:	d65f03c0 	ret

0000000000087d30 <timer_init>:
   87d30:	a9bc7bfd 	stp	x29, x30, [sp, #-64]!
   87d34:	910003fd 	mov	x29, sp
   87d38:	a90153f3 	stp	x19, x20, [sp, #16]
   87d3c:	a9025bf5 	stp	x21, x22, [sp, #32]
   87d40:	f9001bf7 	str	x23, [sp, #48]
   87d44:	b0007be0 	adrp	x0, 1004000 <hex_chars.0+0x2ff8>
   87d48:	912ca000 	add	x0, x0, #0xb28
   87d4c:	97ffe4cf 	bl	81088 <debug_print>
   87d50:	b0007be0 	adrp	x0, 1004000 <hex_chars.0+0x2ff8>
   87d54:	912d6000 	add	x0, x0, #0xb58
   87d58:	97ffffe8 	bl	87cf8 <raw_uart_puts>
   87d5c:	b0007be0 	adrp	x0, 1004000 <hex_chars.0+0x2ff8>
   87d60:	912e0000 	add	x0, x0, #0xb80
   87d64:	97ffffe5 	bl	87cf8 <raw_uart_puts>
   87d68:	b0007be0 	adrp	x0, 1004000 <hex_chars.0+0x2ff8>
   87d6c:	912e8000 	add	x0, x0, #0xba0
   87d70:	97ffe4c6 	bl	81088 <debug_print>
   87d74:	d2a10013 	mov	x19, #0x8000000             	// #134217728
   87d78:	52800036 	mov	w22, #0x1                   	// #1
   87d7c:	b9000276 	str	w22, [x19]
   87d80:	b0007be0 	adrp	x0, 1004000 <hex_chars.0+0x2ff8>
   87d84:	912f6000 	add	x0, x0, #0xbd8
   87d88:	97ffe4c0 	bl	81088 <debug_print>
   87d8c:	910a1274 	add	x20, x19, #0x284
   87d90:	52a80017 	mov	w23, #0x40000000            	// #1073741824
   87d94:	b9028677 	str	w23, [x19, #644]
   87d98:	b0007be0 	adrp	x0, 1004000 <hex_chars.0+0x2ff8>
   87d9c:	912fe000 	add	x0, x0, #0xbf8
   87da0:	97ffe4ba 	bl	81088 <debug_print>
   87da4:	b9441e75 	ldr	w21, [x19, #1052]
   87da8:	b0007be0 	adrp	x0, 1004000 <hex_chars.0+0x2ff8>
   87dac:	91308000 	add	x0, x0, #0xc20
   87db0:	97ffe4b6 	bl	81088 <debug_print>
   87db4:	2a1503e0 	mov	w0, w21
   87db8:	97ffedba 	bl	834a0 <uart_print_hex>
   87dbc:	d0007bd3 	adrp	x19, 1001000 <GLOBAL_UART>
   87dc0:	91228273 	add	x19, x19, #0x8a0
   87dc4:	aa1303e0 	mov	x0, x19
   87dc8:	97ffe4b0 	bl	81088 <debug_print>
   87dcc:	12105eb5 	and	w21, w21, #0xffff00ff
   87dd0:	52940000 	mov	w0, #0xa000                	// #40960
   87dd4:	2a0002b5 	orr	w21, w21, w0
   87dd8:	b9019a95 	str	w21, [x20, #408]
   87ddc:	b9419a95 	ldr	w21, [x20, #408]
   87de0:	b0007be0 	adrp	x0, 1004000 <hex_chars.0+0x2ff8>
   87de4:	91312000 	add	x0, x0, #0xc48
   87de8:	97ffe4a8 	bl	81088 <debug_print>
   87dec:	2a1503e0 	mov	w0, w21
   87df0:	97ffedac 	bl	834a0 <uart_print_hex>
   87df4:	aa1303e0 	mov	x0, x19
   87df8:	97ffe4a4 	bl	81088 <debug_print>
   87dfc:	d1060294 	sub	x20, x20, #0x180
   87e00:	b9400295 	ldr	w21, [x20]
   87e04:	b0007be0 	adrp	x0, 1004000 <hex_chars.0+0x2ff8>
   87e08:	9131c000 	add	x0, x0, #0xc70
   87e0c:	97ffe49f 	bl	81088 <debug_print>
   87e10:	2a1503e0 	mov	w0, w21
   87e14:	97ffeda3 	bl	834a0 <uart_print_hex>
   87e18:	aa1303e0 	mov	x0, x19
   87e1c:	97ffe49b 	bl	81088 <debug_print>
   87e20:	b9000297 	str	w23, [x20]
   87e24:	b9400294 	ldr	w20, [x20]
   87e28:	b0007be0 	adrp	x0, 1004000 <hex_chars.0+0x2ff8>
   87e2c:	91326000 	add	x0, x0, #0xc98
   87e30:	97ffe496 	bl	81088 <debug_print>
   87e34:	2a1403e0 	mov	w0, w20
   87e38:	97ffed9a 	bl	834a0 <uart_print_hex>
   87e3c:	aa1303e0 	mov	x0, x19
   87e40:	97ffe492 	bl	81088 <debug_print>
   87e44:	d2a10020 	mov	x0, #0x8010000             	// #134283264
   87e48:	b9000016 	str	w22, [x0]
   87e4c:	b0007be0 	adrp	x0, 1004000 <hex_chars.0+0x2ff8>
   87e50:	91330000 	add	x0, x0, #0xcc0
   87e54:	97ffe48d 	bl	81088 <debug_print>
   87e58:	d2800080 	mov	x0, #0x4                   	// #4
   87e5c:	f2a10020 	movk	x0, #0x801, lsl #16
   87e60:	52801fe1 	mov	w1, #0xff                  	// #255
   87e64:	b9000001 	str	w1, [x0]
   87e68:	b0007be0 	adrp	x0, 1004000 <hex_chars.0+0x2ff8>
   87e6c:	9133a000 	add	x0, x0, #0xce8
   87e70:	97ffe486 	bl	81088 <debug_print>
   87e74:	b0007be0 	adrp	x0, 1004000 <hex_chars.0+0x2ff8>
   87e78:	91348000 	add	x0, x0, #0xd20
   87e7c:	97ffff9f 	bl	87cf8 <raw_uart_puts>
   87e80:	d538e114 	mrs	x20, cntkctl_el1
   87e84:	b0007be0 	adrp	x0, 1004000 <hex_chars.0+0x2ff8>
   87e88:	91350000 	add	x0, x0, #0xd40
   87e8c:	97ffe47f 	bl	81088 <debug_print>
   87e90:	aa1403e0 	mov	x0, x20
   87e94:	97ffed83 	bl	834a0 <uart_print_hex>
   87e98:	aa1303e0 	mov	x0, x19
   87e9c:	97ffe47b 	bl	81088 <debug_print>
   87ea0:	d2806060 	mov	x0, #0x303                 	// #771
   87ea4:	aa000294 	orr	x20, x20, x0
   87ea8:	d518e114 	msr	cntkctl_el1, x20
   87eac:	d538e114 	mrs	x20, cntkctl_el1
   87eb0:	b0007be0 	adrp	x0, 1004000 <hex_chars.0+0x2ff8>
   87eb4:	91356000 	add	x0, x0, #0xd58
   87eb8:	97ffe474 	bl	81088 <debug_print>
   87ebc:	aa1403e0 	mov	x0, x20
   87ec0:	97ffed78 	bl	834a0 <uart_print_hex>
   87ec4:	aa1303e0 	mov	x0, x19
   87ec8:	97ffe470 	bl	81088 <debug_print>
   87ecc:	52800000 	mov	w0, #0x0                   	// #0
   87ed0:	d51be220 	msr	cntp_ctl_el0, x0
   87ed4:	b0007be0 	adrp	x0, 1004000 <hex_chars.0+0x2ff8>
   87ed8:	9135e000 	add	x0, x0, #0xd78
   87edc:	97ffe46b 	bl	81088 <debug_print>
   87ee0:	b0007be0 	adrp	x0, 1004000 <hex_chars.0+0x2ff8>
   87ee4:	9136a000 	add	x0, x0, #0xda8
   87ee8:	97ffe468 	bl	81088 <debug_print>
   87eec:	d290d414 	mov	x20, #0x86a0                	// #34464
   87ef0:	f2a00034 	movk	x20, #0x1, lsl #16
   87ef4:	aa1403e0 	mov	x0, x20
   87ef8:	97ffed6a 	bl	834a0 <uart_print_hex>
   87efc:	aa1303e0 	mov	x0, x19
   87f00:	97ffe462 	bl	81088 <debug_print>
   87f04:	d51be214 	msr	cntp_tval_el0, x20
   87f08:	d53be214 	mrs	x20, cntp_tval_el0
   87f0c:	b0007be0 	adrp	x0, 1004000 <hex_chars.0+0x2ff8>
   87f10:	91374000 	add	x0, x0, #0xdd0
   87f14:	97ffe45d 	bl	81088 <debug_print>
   87f18:	aa1403e0 	mov	x0, x20
   87f1c:	97ffed61 	bl	834a0 <uart_print_hex>
   87f20:	aa1303e0 	mov	x0, x19
   87f24:	97ffe459 	bl	81088 <debug_print>
   87f28:	b0007be0 	adrp	x0, 1004000 <hex_chars.0+0x2ff8>
   87f2c:	9137c000 	add	x0, x0, #0xdf0
   87f30:	97ffe456 	bl	81088 <debug_print>
   87f34:	d51be236 	msr	cntp_ctl_el0, x22
   87f38:	d53be234 	mrs	x20, cntp_ctl_el0
   87f3c:	b0007be0 	adrp	x0, 1004000 <hex_chars.0+0x2ff8>
   87f40:	91384000 	add	x0, x0, #0xe10
   87f44:	97ffe451 	bl	81088 <debug_print>
   87f48:	aa1403e0 	mov	x0, x20
   87f4c:	97ffed55 	bl	834a0 <uart_print_hex>
   87f50:	aa1303e0 	mov	x0, x19
   87f54:	97ffe44d 	bl	81088 <debug_print>
   87f58:	b0007be0 	adrp	x0, 1004000 <hex_chars.0+0x2ff8>
   87f5c:	9138c000 	add	x0, x0, #0xe30
   87f60:	97ffe44a 	bl	81088 <debug_print>
   87f64:	b0007be0 	adrp	x0, 1004000 <hex_chars.0+0x2ff8>
   87f68:	91396000 	add	x0, x0, #0xe58
   87f6c:	97ffff63 	bl	87cf8 <raw_uart_puts>
   87f70:	a94153f3 	ldp	x19, x20, [sp, #16]
   87f74:	a9425bf5 	ldp	x21, x22, [sp, #32]
   87f78:	f9401bf7 	ldr	x23, [sp, #48]
   87f7c:	a8c47bfd 	ldp	x29, x30, [sp], #64
   87f80:	d65f03c0 	ret

0000000000087f84 <force_timer_interrupt>:
   87f84:	a9be7bfd 	stp	x29, x30, [sp, #-32]!
   87f88:	910003fd 	mov	x29, sp
   87f8c:	b0007be0 	adrp	x0, 1004000 <hex_chars.0+0x2ff8>
   87f90:	913a0000 	add	x0, x0, #0xe80
   87f94:	97ffe43d 	bl	81088 <debug_print>
   87f98:	b0007be0 	adrp	x0, 1004000 <hex_chars.0+0x2ff8>
   87f9c:	913ac000 	add	x0, x0, #0xeb0
   87fa0:	97ffff56 	bl	87cf8 <raw_uart_puts>
   87fa4:	d2805080 	mov	x0, #0x284                 	// #644
   87fa8:	f2a10000 	movk	x0, #0x800, lsl #16
   87fac:	52a80001 	mov	w1, #0x40000000            	// #1073741824
   87fb0:	b9000001 	str	w1, [x0]
   87fb4:	b8180001 	stur	w1, [x0, #-128]
   87fb8:	b0007be0 	adrp	x0, 1004000 <hex_chars.0+0x2ff8>
   87fbc:	913b8000 	add	x0, x0, #0xee0
   87fc0:	97ffff4e 	bl	87cf8 <raw_uart_puts>
   87fc4:	b9001fff 	str	wzr, [sp, #28]
   87fc8:	b9401fe1 	ldr	w1, [sp, #28]
   87fcc:	528847e0 	mov	w0, #0x423f                	// #16959
   87fd0:	72a001e0 	movk	w0, #0xf, lsl #16
   87fd4:	6b00003f 	cmp	w1, w0
   87fd8:	5400010c 	b.gt	87ff8 <force_timer_interrupt+0x74>
   87fdc:	2a0003e1 	mov	w1, w0
   87fe0:	b9401fe0 	ldr	w0, [sp, #28]
   87fe4:	11000400 	add	w0, w0, #0x1
   87fe8:	b9001fe0 	str	w0, [sp, #28]
   87fec:	b9401fe0 	ldr	w0, [sp, #28]
   87ff0:	6b01001f 	cmp	w0, w1
   87ff4:	54ffff6d 	b.le	87fe0 <force_timer_interrupt+0x5c>
   87ff8:	b0007be0 	adrp	x0, 1004000 <hex_chars.0+0x2ff8>
   87ffc:	913c6000 	add	x0, x0, #0xf18
   88000:	97ffff3e 	bl	87cf8 <raw_uart_puts>
   88004:	a8c27bfd 	ldp	x29, x30, [sp], #32
   88008:	d65f03c0 	ret

000000000008800c <test_irq_handler>:
   8800c:	a9bf7bfd 	stp	x29, x30, [sp, #-16]!
   88010:	910003fd 	mov	x29, sp
   88014:	90007be0 	adrp	x0, 1004000 <hex_chars.0+0x2ff8>
   88018:	913d2000 	add	x0, x0, #0xf48
   8801c:	97ffff37 	bl	87cf8 <raw_uart_puts>
   88020:	94000054 	bl	88170 <irq_handler>
   88024:	90007be0 	adrp	x0, 1004000 <hex_chars.0+0x2ff8>
   88028:	913de000 	add	x0, x0, #0xf78
   8802c:	97ffff33 	bl	87cf8 <raw_uart_puts>
   88030:	a8c17bfd 	ldp	x29, x30, [sp], #16
   88034:	d65f03c0 	ret

0000000000088038 <timer_ack>:
   88038:	d65f03c0 	ret

000000000008803c <init_timer_irq>:
   8803c:	a9bf7bfd 	stp	x29, x30, [sp, #-16]!
   88040:	910003fd 	mov	x29, sp
   88044:	90007be0 	adrp	x0, 1004000 <hex_chars.0+0x2ff8>
   88048:	913ea000 	add	x0, x0, #0xfa8
   8804c:	97ffecd4 	bl	8339c <uart_puts>
   88050:	d2a10000 	mov	x0, #0x8000000             	// #134217728
   88054:	52800021 	mov	w1, #0x1                   	// #1
   88058:	b9000001 	str	w1, [x0]
   8805c:	91041002 	add	x2, x0, #0x104
   88060:	52a80003 	mov	w3, #0x40000000            	// #1073741824
   88064:	b9010403 	str	w3, [x0, #260]
   88068:	b9441c00 	ldr	w0, [x0, #1052]
   8806c:	12105c00 	and	w0, w0, #0xffff00ff
   88070:	52940003 	mov	w3, #0xa000                	// #40960
   88074:	2a030000 	orr	w0, w0, w3
   88078:	b9031840 	str	w0, [x2, #792]
   8807c:	d2a10020 	mov	x0, #0x8010000             	// #134283264
   88080:	b9000001 	str	w1, [x0]
   88084:	91001000 	add	x0, x0, #0x4
   88088:	52801fe1 	mov	w1, #0xff                  	// #255
   8808c:	b9000001 	str	w1, [x0]
   88090:	90007be0 	adrp	x0, 1004000 <hex_chars.0+0x2ff8>
   88094:	913f8000 	add	x0, x0, #0xfe0
   88098:	97ffecc1 	bl	8339c <uart_puts>
   8809c:	a8c17bfd 	ldp	x29, x30, [sp], #16
   880a0:	d65f03c0 	ret

00000000000880a4 <init_timer>:
   880a4:	a9be7bfd 	stp	x29, x30, [sp, #-32]!
   880a8:	910003fd 	mov	x29, sp
   880ac:	f9000bf3 	str	x19, [sp, #16]
   880b0:	2a0003f3 	mov	w19, w0
   880b4:	b0007be0 	adrp	x0, 1005000 <hex_chars.0+0x3ff8>
   880b8:	91004000 	add	x0, x0, #0x10
   880bc:	97ffecb8 	bl	8339c <uart_puts>
   880c0:	97ffff1c 	bl	87d30 <timer_init>
   880c4:	97ffffde 	bl	8803c <init_timer_irq>
   880c8:	b0007be0 	adrp	x0, 1005000 <hex_chars.0+0x3ff8>
   880cc:	91010000 	add	x0, x0, #0x40
   880d0:	97ffecb3 	bl	8339c <uart_puts>
   880d4:	93407e60 	sxtw	x0, w19
   880d8:	97ffecc5 	bl	833ec <uart_puthex>
   880dc:	b0007be0 	adrp	x0, 1005000 <hex_chars.0+0x3ff8>
   880e0:	91018000 	add	x0, x0, #0x60
   880e4:	97ffecae 	bl	8339c <uart_puts>
   880e8:	b0007be0 	adrp	x0, 1005000 <hex_chars.0+0x3ff8>
   880ec:	9101c000 	add	x0, x0, #0x70
   880f0:	97ffecab 	bl	8339c <uart_puts>
   880f4:	f9400bf3 	ldr	x19, [sp, #16]
   880f8:	a8c27bfd 	ldp	x29, x30, [sp], #32
   880fc:	d65f03c0 	ret

0000000000088100 <raw_uart_putc>:
   88100:	12001c00 	and	w0, w0, #0xff
   88104:	d2800302 	mov	x2, #0x18                  	// #24
   88108:	f2a12002 	movk	x2, #0x900, lsl #16
   8810c:	b9400041 	ldr	w1, [x2]
   88110:	372fffe1 	tbnz	w1, #5, 8810c <raw_uart_putc+0xc>
   88114:	d2a12001 	mov	x1, #0x9000000             	// #150994944
   88118:	b9000020 	str	w0, [x1]
   8811c:	d65f03c0 	ret

0000000000088120 <raw_uart_puts>:
   88120:	a9be7bfd 	stp	x29, x30, [sp, #-32]!
   88124:	910003fd 	mov	x29, sp
   88128:	a90153f3 	stp	x19, x20, [sp, #16]
   8812c:	aa0003f3 	mov	x19, x0
   88130:	39400000 	ldrb	w0, [x0]
   88134:	34000180 	cbz	w0, 88164 <raw_uart_puts+0x44>
   88138:	528001b4 	mov	w20, #0xd                   	// #13
   8813c:	14000005 	b	88150 <raw_uart_puts+0x30>
   88140:	38401660 	ldrb	w0, [x19], #1
   88144:	97ffffef 	bl	88100 <raw_uart_putc>
   88148:	39400260 	ldrb	w0, [x19]
   8814c:	340000c0 	cbz	w0, 88164 <raw_uart_puts+0x44>
   88150:	7100281f 	cmp	w0, #0xa
   88154:	54ffff61 	b.ne	88140 <raw_uart_puts+0x20>  // b.any
   88158:	2a1403e0 	mov	w0, w20
   8815c:	97ffffe9 	bl	88100 <raw_uart_putc>
   88160:	17fffff8 	b	88140 <raw_uart_puts+0x20>
   88164:	a94153f3 	ldp	x19, x20, [sp, #16]
   88168:	a8c27bfd 	ldp	x29, x30, [sp], #32
   8816c:	d65f03c0 	ret

0000000000088170 <irq_handler>:
   88170:	a9be7bfd 	stp	x29, x30, [sp, #-32]!
   88174:	910003fd 	mov	x29, sp
   88178:	a90153f3 	stp	x19, x20, [sp, #16]
   8817c:	f0007bf3 	adrp	x19, 1007000 <mmu_msg>
   88180:	b947a260 	ldr	w0, [x19, #1952]
   88184:	11000400 	add	w0, w0, #0x1
   88188:	b907a260 	str	w0, [x19, #1952]
   8818c:	52800920 	mov	w0, #0x49                  	// #73
   88190:	97ffec79 	bl	83374 <uart_putc>
   88194:	d2a12001 	mov	x1, #0x9000000             	// #150994944
   88198:	52800920 	mov	w0, #0x49                  	// #73
   8819c:	b9000020 	str	w0, [x1]
   881a0:	52800a40 	mov	w0, #0x52                  	// #82
   881a4:	b9000020 	str	w0, [x1]
   881a8:	52800a20 	mov	w0, #0x51                  	// #81
   881ac:	b9000020 	str	w0, [x1]
   881b0:	52800460 	mov	w0, #0x23                  	// #35
   881b4:	b9000020 	str	w0, [x1]
   881b8:	b947a262 	ldr	w2, [x19, #1952]
   881bc:	528ccce0 	mov	w0, #0x6667                	// #26215
   881c0:	72acccc0 	movk	w0, #0x6666, lsl #16
   881c4:	9b207c40 	smull	x0, w2, w0
   881c8:	9362fc00 	asr	x0, x0, #34
   881cc:	4b827c00 	sub	w0, w0, w2, asr #31
   881d0:	52800143 	mov	w3, #0xa                   	// #10
   881d4:	1b038800 	msub	w0, w0, w3, w2
   881d8:	1100c000 	add	w0, w0, #0x30
   881dc:	12001c00 	and	w0, w0, #0xff
   881e0:	b9000020 	str	w0, [x1]
   881e4:	52800420 	mov	w0, #0x21                  	// #33
   881e8:	b9000020 	str	w0, [x1]
   881ec:	528001a0 	mov	w0, #0xd                   	// #13
   881f0:	b9000020 	str	w0, [x1]
   881f4:	b9000023 	str	w3, [x1]
   881f8:	b0007be0 	adrp	x0, 1005000 <hex_chars.0+0x3ff8>
   881fc:	9102c000 	add	x0, x0, #0xb0
   88200:	97ffffc8 	bl	88120 <raw_uart_puts>
   88204:	d2800180 	mov	x0, #0xc                   	// #12
   88208:	f2a10020 	movk	x0, #0x801, lsl #16
   8820c:	b9400014 	ldr	w20, [x0]
   88210:	12002693 	and	w19, w20, #0x3ff
   88214:	7100267f 	cmp	w19, #0x9
   88218:	540002a8 	b.hi	8826c <irq_handler+0xfc>  // b.pmore
   8821c:	b0007be0 	adrp	x0, 1005000 <hex_chars.0+0x3ff8>
   88220:	91036000 	add	x0, x0, #0xd8
   88224:	97ffffbf 	bl	88120 <raw_uart_puts>
   88228:	1100c260 	add	w0, w19, #0x30
   8822c:	97ffffb5 	bl	88100 <raw_uart_putc>
   88230:	b0007bc0 	adrp	x0, 1001000 <GLOBAL_UART>
   88234:	91228000 	add	x0, x0, #0x8a0
   88238:	97ffffba 	bl	88120 <raw_uart_puts>
   8823c:	b0007be0 	adrp	x0, 1005000 <hex_chars.0+0x3ff8>
   88240:	91044000 	add	x0, x0, #0x110
   88244:	97ffffb7 	bl	88120 <raw_uart_puts>
   88248:	d2800200 	mov	x0, #0x10                  	// #16
   8824c:	f2a10020 	movk	x0, #0x801, lsl #16
   88250:	b9000014 	str	w20, [x0]
   88254:	b0007be0 	adrp	x0, 1005000 <hex_chars.0+0x3ff8>
   88258:	9104c000 	add	x0, x0, #0x130
   8825c:	97ffffb1 	bl	88120 <raw_uart_puts>
   88260:	a94153f3 	ldp	x19, x20, [sp, #16]
   88264:	a8c27bfd 	ldp	x29, x30, [sp], #32
   88268:	d65f03c0 	ret
   8826c:	b0007be0 	adrp	x0, 1005000 <hex_chars.0+0x3ff8>
   88270:	91036000 	add	x0, x0, #0xd8
   88274:	97ffffab 	bl	88120 <raw_uart_puts>
   88278:	1100de60 	add	w0, w19, #0x37
   8827c:	97ffffa1 	bl	88100 <raw_uart_putc>
   88280:	b0007bc0 	adrp	x0, 1001000 <GLOBAL_UART>
   88284:	91228000 	add	x0, x0, #0x8a0
   88288:	97ffffa6 	bl	88120 <raw_uart_puts>
   8828c:	71007a7f 	cmp	w19, #0x1e
   88290:	54fffd61 	b.ne	8823c <irq_handler+0xcc>  // b.any
   88294:	b0007be0 	adrp	x0, 1005000 <hex_chars.0+0x3ff8>
   88298:	9103a000 	add	x0, x0, #0xe8
   8829c:	97ffffa1 	bl	88120 <raw_uart_puts>
   882a0:	9400058c 	bl	898d0 <schedule>
   882a4:	5290d400 	mov	w0, #0x86a0                	// #34464
   882a8:	72a00020 	movk	w0, #0x1, lsl #16
   882ac:	d51be200 	msr	cntp_tval_el0, x0
   882b0:	d2800000 	mov	x0, #0x0                   	// #0
   882b4:	d51be220 	msr	cntp_ctl_el0, x0
   882b8:	d2800020 	mov	x0, #0x1                   	// #1
   882bc:	d51be220 	msr	cntp_ctl_el0, x0
   882c0:	17ffffe2 	b	88248 <irq_handler+0xd8>

00000000000882c4 <enable_interrupts>:
   882c4:	a9be7bfd 	stp	x29, x30, [sp, #-32]!
   882c8:	910003fd 	mov	x29, sp
   882cc:	a90153f3 	stp	x19, x20, [sp, #16]
   882d0:	b0007be0 	adrp	x0, 1005000 <hex_chars.0+0x3ff8>
   882d4:	91052000 	add	x0, x0, #0x148
   882d8:	97ffe36c 	bl	81088 <debug_print>
   882dc:	d2a12000 	mov	x0, #0x9000000             	// #150994944
   882e0:	52800921 	mov	w1, #0x49                  	// #73
   882e4:	b9000001 	str	w1, [x0]
   882e8:	528009c1 	mov	w1, #0x4e                  	// #78
   882ec:	b9000001 	str	w1, [x0]
   882f0:	52800a82 	mov	w2, #0x54                  	// #84
   882f4:	b9000002 	str	w2, [x0]
   882f8:	52800be2 	mov	w2, #0x5f                  	// #95
   882fc:	b9000002 	str	w2, [x0]
   88300:	528008a2 	mov	w2, #0x45                  	// #69
   88304:	b9000002 	str	w2, [x0]
   88308:	b9000001 	str	w1, [x0]
   8830c:	528001a1 	mov	w1, #0xd                   	// #13
   88310:	b9000001 	str	w1, [x0]
   88314:	52800141 	mov	w1, #0xa                   	// #10
   88318:	b9000001 	str	w1, [x0]
   8831c:	d53b4234 	mrs	x20, daif
   88320:	b0007be0 	adrp	x0, 1005000 <hex_chars.0+0x3ff8>
   88324:	9105a000 	add	x0, x0, #0x168
   88328:	97ffff7e 	bl	88120 <raw_uart_puts>
   8832c:	52800393 	mov	w19, #0x1c                  	// #28
   88330:	9ad32681 	lsr	x1, x20, x19
   88334:	12000c21 	and	w1, w1, #0xf
   88338:	1100c020 	add	w0, w1, #0x30
   8833c:	1100dc22 	add	w2, w1, #0x37
   88340:	7100243f 	cmp	w1, #0x9
   88344:	1a808040 	csel	w0, w2, w0, hi	// hi = pmore
   88348:	97ffff6e 	bl	88100 <raw_uart_putc>
   8834c:	51001273 	sub	w19, w19, #0x4
   88350:	3100127f 	cmn	w19, #0x4
   88354:	54fffee1 	b.ne	88330 <enable_interrupts+0x6c>  // b.any
   88358:	b0007bc0 	adrp	x0, 1001000 <GLOBAL_UART>
   8835c:	91228000 	add	x0, x0, #0x8a0
   88360:	97ffff70 	bl	88120 <raw_uart_puts>
   88364:	d5034fff 	msr	daifclr, #0xf
   88368:	d5033fdf 	isb
   8836c:	d53b4234 	mrs	x20, daif
   88370:	b0007be0 	adrp	x0, 1005000 <hex_chars.0+0x3ff8>
   88374:	91060000 	add	x0, x0, #0x180
   88378:	97ffff6a 	bl	88120 <raw_uart_puts>
   8837c:	52800393 	mov	w19, #0x1c                  	// #28
   88380:	9ad32681 	lsr	x1, x20, x19
   88384:	12000c21 	and	w1, w1, #0xf
   88388:	1100c020 	add	w0, w1, #0x30
   8838c:	1100dc22 	add	w2, w1, #0x37
   88390:	7100243f 	cmp	w1, #0x9
   88394:	1a808040 	csel	w0, w2, w0, hi	// hi = pmore
   88398:	97ffff5a 	bl	88100 <raw_uart_putc>
   8839c:	51001273 	sub	w19, w19, #0x4
   883a0:	3100127f 	cmn	w19, #0x4
   883a4:	54fffee1 	b.ne	88380 <enable_interrupts+0xbc>  // b.any
   883a8:	b0007bc0 	adrp	x0, 1001000 <GLOBAL_UART>
   883ac:	91228000 	add	x0, x0, #0x8a0
   883b0:	97ffff5c 	bl	88120 <raw_uart_puts>
   883b4:	b0007be0 	adrp	x0, 1005000 <hex_chars.0+0x3ff8>
   883b8:	91066000 	add	x0, x0, #0x198
   883bc:	97ffe333 	bl	81088 <debug_print>
   883c0:	363801d4 	tbz	w20, #7, 883f8 <enable_interrupts+0x134>
   883c4:	b0007be0 	adrp	x0, 1005000 <hex_chars.0+0x3ff8>
   883c8:	9106c000 	add	x0, x0, #0x1b0
   883cc:	97ffe32f 	bl	81088 <debug_print>
   883d0:	363001d4 	tbz	w20, #6, 88408 <enable_interrupts+0x144>
   883d4:	b0007be0 	adrp	x0, 1005000 <hex_chars.0+0x3ff8>
   883d8:	91074000 	add	x0, x0, #0x1d0
   883dc:	97ffe32b 	bl	81088 <debug_print>
   883e0:	b0007be0 	adrp	x0, 1005000 <hex_chars.0+0x3ff8>
   883e4:	91080000 	add	x0, x0, #0x200
   883e8:	97ffe328 	bl	81088 <debug_print>
   883ec:	a94153f3 	ldp	x19, x20, [sp, #16]
   883f0:	a8c27bfd 	ldp	x29, x30, [sp], #32
   883f4:	d65f03c0 	ret
   883f8:	b0007be0 	adrp	x0, 1005000 <hex_chars.0+0x3ff8>
   883fc:	91070000 	add	x0, x0, #0x1c0
   88400:	97ffe322 	bl	81088 <debug_print>
   88404:	17fffff3 	b	883d0 <enable_interrupts+0x10c>
   88408:	b0007be0 	adrp	x0, 1005000 <hex_chars.0+0x3ff8>
   8840c:	9107a000 	add	x0, x0, #0x1e8
   88410:	97ffe31e 	bl	81088 <debug_print>
   88414:	17fffff3 	b	883e0 <enable_interrupts+0x11c>

0000000000088418 <enable_irq>:
   88418:	a9bf7bfd 	stp	x29, x30, [sp, #-16]!
   8841c:	910003fd 	mov	x29, sp
   88420:	d50342ff 	msr	daifclr, #0x2
   88424:	d5033fdf 	isb
   88428:	b0007be0 	adrp	x0, 1005000 <hex_chars.0+0x3ff8>
   8842c:	91088000 	add	x0, x0, #0x220
   88430:	97ffe316 	bl	81088 <debug_print>
   88434:	a8c17bfd 	ldp	x29, x30, [sp], #16
   88438:	d65f03c0 	ret

000000000008843c <disable_irq>:
   8843c:	a9bf7bfd 	stp	x29, x30, [sp, #-16]!
   88440:	910003fd 	mov	x29, sp
   88444:	d50342df 	msr	daifset, #0x2
   88448:	d5033fdf 	isb
   8844c:	b0007be0 	adrp	x0, 1005000 <hex_chars.0+0x3ff8>
   88450:	9108e000 	add	x0, x0, #0x238
   88454:	97ffe30d 	bl	81088 <debug_print>
   88458:	a8c17bfd 	ldp	x29, x30, [sp], #16
   8845c:	d65f03c0 	ret

0000000000088460 <irqs_enabled>:
   88460:	d53b4220 	mrs	x0, daif
   88464:	d3471c00 	ubfx	x0, x0, #7, #1
   88468:	52000000 	eor	w0, w0, #0x1
   8846c:	d65f03c0 	ret

0000000000088470 <early_trap_init>:
   88470:	f81f0ffe 	str	x30, [sp, #-16]!
   88474:	d28008a0 	mov	x0, #0x45                  	// #69
   88478:	97ffebbf 	bl	83374 <uart_putc>
   8847c:	d2800a80 	mov	x0, #0x54                  	// #84
   88480:	97ffebbd 	bl	83374 <uart_putc>
   88484:	f84107fe 	ldr	x30, [sp], #16
   88488:	d65f03c0 	ret

000000000008848c <trap_sync_handler>:
   8848c:	d2800420 	mov	x0, #0x21                  	// #33
   88490:	97ffebb9 	bl	83374 <uart_putc>
   88494:	d2800a60 	mov	x0, #0x53                  	// #83
   88498:	97ffebb7 	bl	83374 <uart_putc>
   8849c:	14000000 	b	8849c <trap_sync_handler+0x10>

00000000000884a0 <trap_irq_handler>:
   884a0:	d2800420 	mov	x0, #0x21                  	// #33
   884a4:	97ffebb4 	bl	83374 <uart_putc>
   884a8:	d2800920 	mov	x0, #0x49                  	// #73
   884ac:	97ffebb2 	bl	83374 <uart_putc>
   884b0:	14000000 	b	884b0 <trap_irq_handler+0x10>

00000000000884b4 <trap_fiq_handler>:
   884b4:	d2800420 	mov	x0, #0x21                  	// #33
   884b8:	97ffebaf 	bl	83374 <uart_putc>
   884bc:	d28008c0 	mov	x0, #0x46                  	// #70
   884c0:	97ffebad 	bl	83374 <uart_putc>
   884c4:	14000000 	b	884c4 <trap_fiq_handler+0x10>

00000000000884c8 <trap_serror_handler>:
   884c8:	d2800420 	mov	x0, #0x21                  	// #33
   884cc:	97ffebaa 	bl	83374 <uart_putc>
   884d0:	d28008a0 	mov	x0, #0x45                  	// #69
   884d4:	97ffeba8 	bl	83374 <uart_putc>
   884d8:	14000000 	b	884d8 <trap_serror_handler+0x10>
   884dc:	00000000 	udf	#0

00000000000884e0 <output_hex_value>:
   884e0:	d2800784 	mov	x4, #0x3c                  	// #60

00000000000884e4 <hex_print_loop>:
   884e4:	aa0003e3 	mov	x3, x0
   884e8:	9ac42463 	lsr	x3, x3, x4
   884ec:	92400c63 	and	x3, x3, #0xf
   884f0:	f100287f 	cmp	x3, #0xa
   884f4:	5400006b 	b.lt	88500 <hex_print_loop+0x1c>  // b.tstop
   884f8:	9100dc63 	add	x3, x3, #0x37
   884fc:	14000002 	b	88504 <hex_print_loop+0x20>
   88500:	9100c063 	add	x3, x3, #0x30
   88504:	b90000a3 	str	w3, [x5]
   88508:	d1001084 	sub	x4, x4, #0x4
   8850c:	f100009f 	cmp	x4, #0x0
   88510:	54fffeaa 	b.ge	884e4 <hex_print_loop>  // b.tcont
   88514:	92400c03 	and	x3, x0, #0xf
   88518:	f100287f 	cmp	x3, #0xa
   8851c:	5400006b 	b.lt	88528 <hex_print_loop+0x44>  // b.tstop
   88520:	9100dc63 	add	x3, x3, #0x37
   88524:	14000002 	b	8852c <hex_print_loop+0x48>
   88528:	9100c063 	add	x3, x3, #0x30
   8852c:	b90000a3 	str	w3, [x5]
   88530:	d65f03c0 	ret

0000000000088534 <serror_debug_handler>:
   88534:	d10203ff 	sub	sp, sp, #0x80
   88538:	a90007e0 	stp	x0, x1, [sp]
   8853c:	a9010fe2 	stp	x2, x3, [sp, #16]
   88540:	a90217e4 	stp	x4, x5, [sp, #32]
   88544:	a9031fe6 	stp	x6, x7, [sp, #48]
   88548:	a90427e8 	stp	x8, x9, [sp, #64]
   8854c:	a9057bfd 	stp	x29, x30, [sp, #80]
   88550:	58001b85 	ldr	x5, 888c0 <serror_debug_handler+0x38c>
   88554:	52800420 	mov	w0, #0x21                  	// #33
   88558:	b90000a0 	str	w0, [x5]
   8855c:	52800420 	mov	w0, #0x21                  	// #33
   88560:	b90000a0 	str	w0, [x5]
   88564:	52800a60 	mov	w0, #0x53                  	// #83
   88568:	b90000a0 	str	w0, [x5]
   8856c:	528008a0 	mov	w0, #0x45                  	// #69
   88570:	b90000a0 	str	w0, [x5]
   88574:	52800e40 	mov	w0, #0x72                  	// #114
   88578:	b90000a0 	str	w0, [x5]
   8857c:	52800e40 	mov	w0, #0x72                  	// #114
   88580:	b90000a0 	str	w0, [x5]
   88584:	52800de0 	mov	w0, #0x6f                  	// #111
   88588:	b90000a0 	str	w0, [x5]
   8858c:	52800e40 	mov	w0, #0x72                  	// #114
   88590:	b90000a0 	str	w0, [x5]
   88594:	52800400 	mov	w0, #0x20                  	// #32
   88598:	b90000a0 	str	w0, [x5]
   8859c:	528008a0 	mov	w0, #0x45                  	// #69
   885a0:	b90000a0 	str	w0, [x5]
   885a4:	52800f00 	mov	w0, #0x78                  	// #120
   885a8:	b90000a0 	str	w0, [x5]
   885ac:	52800c60 	mov	w0, #0x63                  	// #99
   885b0:	b90000a0 	str	w0, [x5]
   885b4:	52800ca0 	mov	w0, #0x65                  	// #101
   885b8:	b90000a0 	str	w0, [x5]
   885bc:	52800e00 	mov	w0, #0x70                  	// #112
   885c0:	b90000a0 	str	w0, [x5]
   885c4:	52800e80 	mov	w0, #0x74                  	// #116
   885c8:	b90000a0 	str	w0, [x5]
   885cc:	52800d20 	mov	w0, #0x69                  	// #105
   885d0:	b90000a0 	str	w0, [x5]
   885d4:	52800de0 	mov	w0, #0x6f                  	// #111
   885d8:	b90000a0 	str	w0, [x5]
   885dc:	52800dc0 	mov	w0, #0x6e                  	// #110
   885e0:	b90000a0 	str	w0, [x5]
   885e4:	52800420 	mov	w0, #0x21                  	// #33
   885e8:	b90000a0 	str	w0, [x5]
   885ec:	52800420 	mov	w0, #0x21                  	// #33
   885f0:	b90000a0 	str	w0, [x5]
   885f4:	528001a0 	mov	w0, #0xd                   	// #13
   885f8:	b90000a0 	str	w0, [x5]
   885fc:	52800140 	mov	w0, #0xa                   	// #10
   88600:	b90000a0 	str	w0, [x5]
   88604:	d5384240 	mrs	x0, currentel
   88608:	d342fc00 	lsr	x0, x0, #2
   8860c:	92400400 	and	x0, x0, #0x3
   88610:	528008a1 	mov	w1, #0x45                  	// #69
   88614:	b90000a1 	str	w1, [x5]
   88618:	52800981 	mov	w1, #0x4c                  	// #76
   8861c:	b90000a1 	str	w1, [x5]
   88620:	52800741 	mov	w1, #0x3a                  	// #58
   88624:	b90000a1 	str	w1, [x5]
   88628:	1100c000 	add	w0, w0, #0x30
   8862c:	b90000a0 	str	w0, [x5]
   88630:	528001a0 	mov	w0, #0xd                   	// #13
   88634:	b90000a0 	str	w0, [x5]
   88638:	52800140 	mov	w0, #0xa                   	// #10
   8863c:	b90000a0 	str	w0, [x5]
   88640:	528008a0 	mov	w0, #0x45                  	// #69
   88644:	b90000a0 	str	w0, [x5]
   88648:	52800980 	mov	w0, #0x4c                  	// #76
   8864c:	b90000a0 	str	w0, [x5]
   88650:	52800a40 	mov	w0, #0x52                  	// #82
   88654:	b90000a0 	str	w0, [x5]
   88658:	52800be0 	mov	w0, #0x5f                  	// #95
   8865c:	b90000a0 	str	w0, [x5]
   88660:	528008a0 	mov	w0, #0x45                  	// #69
   88664:	b90000a0 	str	w0, [x5]
   88668:	52800980 	mov	w0, #0x4c                  	// #76
   8866c:	b90000a0 	str	w0, [x5]
   88670:	52800620 	mov	w0, #0x31                  	// #49
   88674:	b90000a0 	str	w0, [x5]
   88678:	52800740 	mov	w0, #0x3a                  	// #58
   8867c:	b90000a0 	str	w0, [x5]
   88680:	52800400 	mov	w0, #0x20                  	// #32
   88684:	b90000a0 	str	w0, [x5]
   88688:	d5384020 	mrs	x0, elr_el1
   8868c:	97ffff95 	bl	884e0 <output_hex_value>
   88690:	528001a0 	mov	w0, #0xd                   	// #13
   88694:	b90000a0 	str	w0, [x5]
   88698:	52800140 	mov	w0, #0xa                   	// #10
   8869c:	b90000a0 	str	w0, [x5]
   886a0:	528008a0 	mov	w0, #0x45                  	// #69
   886a4:	b90000a0 	str	w0, [x5]
   886a8:	52800a60 	mov	w0, #0x53                  	// #83
   886ac:	b90000a0 	str	w0, [x5]
   886b0:	52800a40 	mov	w0, #0x52                  	// #82
   886b4:	b90000a0 	str	w0, [x5]
   886b8:	52800be0 	mov	w0, #0x5f                  	// #95
   886bc:	b90000a0 	str	w0, [x5]
   886c0:	528008a0 	mov	w0, #0x45                  	// #69
   886c4:	b90000a0 	str	w0, [x5]
   886c8:	52800980 	mov	w0, #0x4c                  	// #76
   886cc:	b90000a0 	str	w0, [x5]
   886d0:	52800620 	mov	w0, #0x31                  	// #49
   886d4:	b90000a0 	str	w0, [x5]
   886d8:	52800740 	mov	w0, #0x3a                  	// #58
   886dc:	b90000a0 	str	w0, [x5]
   886e0:	52800400 	mov	w0, #0x20                  	// #32
   886e4:	b90000a0 	str	w0, [x5]
   886e8:	d5385200 	mrs	x0, esr_el1
   886ec:	97ffff7d 	bl	884e0 <output_hex_value>
   886f0:	528001a0 	mov	w0, #0xd                   	// #13
   886f4:	b90000a0 	str	w0, [x5]
   886f8:	52800140 	mov	w0, #0xa                   	// #10
   886fc:	b90000a0 	str	w0, [x5]
   88700:	528008c0 	mov	w0, #0x46                  	// #70
   88704:	b90000a0 	str	w0, [x5]
   88708:	52800820 	mov	w0, #0x41                  	// #65
   8870c:	b90000a0 	str	w0, [x5]
   88710:	52800a40 	mov	w0, #0x52                  	// #82
   88714:	b90000a0 	str	w0, [x5]
   88718:	52800be0 	mov	w0, #0x5f                  	// #95
   8871c:	b90000a0 	str	w0, [x5]
   88720:	528008a0 	mov	w0, #0x45                  	// #69
   88724:	b90000a0 	str	w0, [x5]
   88728:	52800980 	mov	w0, #0x4c                  	// #76
   8872c:	b90000a0 	str	w0, [x5]
   88730:	52800620 	mov	w0, #0x31                  	// #49
   88734:	b90000a0 	str	w0, [x5]
   88738:	52800740 	mov	w0, #0x3a                  	// #58
   8873c:	b90000a0 	str	w0, [x5]
   88740:	52800400 	mov	w0, #0x20                  	// #32
   88744:	b90000a0 	str	w0, [x5]
   88748:	d5386000 	mrs	x0, far_el1
   8874c:	97ffff65 	bl	884e0 <output_hex_value>
   88750:	528001a0 	mov	w0, #0xd                   	// #13
   88754:	b90000a0 	str	w0, [x5]
   88758:	52800140 	mov	w0, #0xa                   	// #10
   8875c:	b90000a0 	str	w0, [x5]
   88760:	52800a60 	mov	w0, #0x53                  	// #83
   88764:	b90000a0 	str	w0, [x5]
   88768:	52800a00 	mov	w0, #0x50                  	// #80
   8876c:	b90000a0 	str	w0, [x5]
   88770:	52800a60 	mov	w0, #0x53                  	// #83
   88774:	b90000a0 	str	w0, [x5]
   88778:	52800a40 	mov	w0, #0x52                  	// #82
   8877c:	b90000a0 	str	w0, [x5]
   88780:	52800be0 	mov	w0, #0x5f                  	// #95
   88784:	b90000a0 	str	w0, [x5]
   88788:	528008a0 	mov	w0, #0x45                  	// #69
   8878c:	b90000a0 	str	w0, [x5]
   88790:	52800980 	mov	w0, #0x4c                  	// #76
   88794:	b90000a0 	str	w0, [x5]
   88798:	52800620 	mov	w0, #0x31                  	// #49
   8879c:	b90000a0 	str	w0, [x5]
   887a0:	52800740 	mov	w0, #0x3a                  	// #58
   887a4:	b90000a0 	str	w0, [x5]
   887a8:	52800400 	mov	w0, #0x20                  	// #32
   887ac:	b90000a0 	str	w0, [x5]
   887b0:	d5384000 	mrs	x0, spsr_el1
   887b4:	97ffff4b 	bl	884e0 <output_hex_value>
   887b8:	528001a0 	mov	w0, #0xd                   	// #13
   887bc:	b90000a0 	str	w0, [x5]
   887c0:	52800140 	mov	w0, #0xa                   	// #10
   887c4:	b90000a0 	str	w0, [x5]
   887c8:	52800a60 	mov	w0, #0x53                  	// #83
   887cc:	b90000a0 	str	w0, [x5]
   887d0:	52800a00 	mov	w0, #0x50                  	// #80
   887d4:	b90000a0 	str	w0, [x5]
   887d8:	52800be0 	mov	w0, #0x5f                  	// #95
   887dc:	b90000a0 	str	w0, [x5]
   887e0:	528008a0 	mov	w0, #0x45                  	// #69
   887e4:	b90000a0 	str	w0, [x5]
   887e8:	52800980 	mov	w0, #0x4c                  	// #76
   887ec:	b90000a0 	str	w0, [x5]
   887f0:	52800600 	mov	w0, #0x30                  	// #48
   887f4:	b90000a0 	str	w0, [x5]
   887f8:	52800740 	mov	w0, #0x3a                  	// #58
   887fc:	b90000a0 	str	w0, [x5]
   88800:	52800400 	mov	w0, #0x20                  	// #32
   88804:	b90000a0 	str	w0, [x5]
   88808:	d5384100 	mrs	x0, sp_el0
   8880c:	97ffff35 	bl	884e0 <output_hex_value>
   88810:	528001a0 	mov	w0, #0xd                   	// #13
   88814:	b90000a0 	str	w0, [x5]
   88818:	52800140 	mov	w0, #0xa                   	// #10
   8881c:	b90000a0 	str	w0, [x5]
   88820:	52800a60 	mov	w0, #0x53                  	// #83
   88824:	b90000a0 	str	w0, [x5]
   88828:	52800a00 	mov	w0, #0x50                  	// #80
   8882c:	b90000a0 	str	w0, [x5]
   88830:	52800be0 	mov	w0, #0x5f                  	// #95
   88834:	b90000a0 	str	w0, [x5]
   88838:	528008a0 	mov	w0, #0x45                  	// #69
   8883c:	b90000a0 	str	w0, [x5]
   88840:	52800980 	mov	w0, #0x4c                  	// #76
   88844:	b90000a0 	str	w0, [x5]
   88848:	52800620 	mov	w0, #0x31                  	// #49
   8884c:	b90000a0 	str	w0, [x5]
   88850:	52800740 	mov	w0, #0x3a                  	// #58
   88854:	b90000a0 	str	w0, [x5]
   88858:	52800400 	mov	w0, #0x20                  	// #32
   8885c:	b90000a0 	str	w0, [x5]
   88860:	910203e0 	add	x0, sp, #0x80
   88864:	97ffff1f 	bl	884e0 <output_hex_value>
   88868:	528001a0 	mov	w0, #0xd                   	// #13
   8886c:	b90000a0 	str	w0, [x5]
   88870:	52800140 	mov	w0, #0xa                   	// #10
   88874:	b90000a0 	str	w0, [x5]
   88878:	d5385200 	mrs	x0, esr_el1
   8887c:	528008a1 	mov	w1, #0x45                  	// #69
   88880:	b90000a1 	str	w1, [x5]
   88884:	52800861 	mov	w1, #0x43                  	// #67
   88888:	b90000a1 	str	w1, [x5]
   8888c:	52800741 	mov	w1, #0x3a                  	// #58
   88890:	b90000a1 	str	w1, [x5]
   88894:	52800401 	mov	w1, #0x20                  	// #32
   88898:	b90000a1 	str	w1, [x5]
   8889c:	d35afc01 	lsr	x1, x0, #26
   888a0:	92401421 	and	x1, x1, #0x3f
   888a4:	aa0103e0 	mov	x0, x1
   888a8:	97ffff0e 	bl	884e0 <output_hex_value>
   888ac:	528001a0 	mov	w0, #0xd                   	// #13
   888b0:	b90000a0 	str	w0, [x5]
   888b4:	52800140 	mov	w0, #0xa                   	// #10
   888b8:	b90000a0 	str	w0, [x5]
   888bc:	17ffff1e 	b	88534 <serror_debug_handler>
   888c0:	09000000 	.word	0x09000000
   888c4:	00000000 	.word	0x00000000

00000000000888c8 <snprintf>:
   888c8:	d101c3ff 	sub	sp, sp, #0x70
   888cc:	aa0003e8 	mov	x8, x0
   888d0:	a90493e3 	stp	x3, x4, [sp, #72]
   888d4:	a9059be5 	stp	x5, x6, [sp, #88]
   888d8:	f90037e7 	str	x7, [sp, #104]
   888dc:	9101c3e0 	add	x0, sp, #0x70
   888e0:	a90203e0 	stp	x0, x0, [sp, #32]
   888e4:	910103e0 	add	x0, sp, #0x40
   888e8:	f9001be0 	str	x0, [sp, #48]
   888ec:	128004e0 	mov	w0, #0xffffffd8            	// #-40
   888f0:	29077fe0 	stp	w0, wzr, [sp, #56]
   888f4:	39400044 	ldrb	w4, [x2]
   888f8:	34000164 	cbz	w4, 88924 <snprintf+0x5c>
   888fc:	d2800003 	mov	x3, #0x0                   	// #0
   88900:	52800000 	mov	w0, #0x0                   	// #0
   88904:	d1000426 	sub	x6, x1, #0x1
   88908:	d1000509 	sub	x9, x8, #0x1
   8890c:	b0007bec 	adrp	x12, 1005000 <hex_chars.0+0x3ff8>
   88910:	9109418c 	add	x12, x12, #0x250
   88914:	910023e7 	add	x7, sp, #0x8
   88918:	5280000b 	mov	w11, #0x0                   	// #0
   8891c:	5280002a 	mov	w10, #0x1                   	// #1
   88920:	14000008 	b	88940 <snprintf+0x78>
   88924:	52800000 	mov	w0, #0x0                   	// #0
   88928:	140000ce 	b	88c60 <snprintf+0x398>
   8892c:	11000400 	add	w0, w0, #0x1
   88930:	38256904 	strb	w4, [x8, x5]
   88934:	91000463 	add	x3, x3, #0x1
   88938:	38636844 	ldrb	w4, [x2, x3]
   8893c:	34001924 	cbz	w4, 88c60 <snprintf+0x398>
   88940:	93407c05 	sxtw	x5, w0
   88944:	eb0600bf 	cmp	x5, x6
   88948:	540018c2 	b.cs	88c60 <snprintf+0x398>  // b.hs, b.nlast
   8894c:	7100949f 	cmp	w4, #0x25
   88950:	54fffee1 	b.ne	8892c <snprintf+0x64>  // b.any
   88954:	9100046d 	add	x13, x3, #0x1
   88958:	386d6844 	ldrb	w4, [x2, x13]
   8895c:	7101cc9f 	cmp	w4, #0x73
   88960:	540013a0 	b.eq	88bd4 <snprintf+0x30c>  // b.none
   88964:	54000268 	b.hi	889b0 <snprintf+0xe8>  // b.pmore
   88968:	7101909f 	cmp	w4, #0x64
   8896c:	54000be0 	b.eq	88ae8 <snprintf+0x220>  // b.none
   88970:	7101b09f 	cmp	w4, #0x6c
   88974:	540017c1 	b.ne	88c6c <snprintf+0x3a4>  // b.any
   88978:	91000863 	add	x3, x3, #0x2
   8897c:	38636844 	ldrb	w4, [x2, x3]
   88980:	7101e09f 	cmp	w4, #0x78
   88984:	54000560 	b.eq	88a30 <snprintf+0x168>  // b.none
   88988:	528004a4 	mov	w4, #0x25                  	// #37
   8898c:	3820c904 	strb	w4, [x8, w0, sxtw]
   88990:	11000804 	add	w4, w0, #0x2
   88994:	11000405 	add	w5, w0, #0x1
   88998:	52800d8d 	mov	w13, #0x6c                  	// #108
   8899c:	3825c90d 	strb	w13, [x8, w5, sxtw]
   889a0:	38636845 	ldrb	w5, [x2, x3]
   889a4:	3824c905 	strb	w5, [x8, w4, sxtw]
   889a8:	11000c00 	add	w0, w0, #0x3
   889ac:	1400001e 	b	88a24 <snprintf+0x15c>
   889b0:	7101e09f 	cmp	w4, #0x78
   889b4:	540015c1 	b.ne	88c6c <snprintf+0x3a4>  // b.any
   889b8:	b9403be4 	ldr	w4, [sp, #56]
   889bc:	f94013e3 	ldr	x3, [sp, #32]
   889c0:	37f80184 	tbnz	w4, #31, 889f0 <snprintf+0x128>
   889c4:	91003c64 	add	x4, x3, #0xf
   889c8:	927df084 	and	x4, x4, #0xfffffffffffffff8
   889cc:	f90013e4 	str	x4, [sp, #32]
   889d0:	f940006f 	ldr	x15, [x3]
   889d4:	a9401584 	ldp	x4, x5, [x12]
   889d8:	39404183 	ldrb	w3, [x12, #16]
   889dc:	a90014e4 	stp	x4, x5, [x7]
   889e0:	390040e3 	strb	w3, [x7, #16]
   889e4:	52800783 	mov	w3, #0x3c                  	// #60
   889e8:	2a0b03ee 	mov	w14, w11
   889ec:	140000bc 	b	88cdc <snprintf+0x414>
   889f0:	11002085 	add	w5, w4, #0x8
   889f4:	b9003be5 	str	w5, [sp, #56]
   889f8:	710000bf 	cmp	w5, #0x0
   889fc:	540000ad 	b.le	88a10 <snprintf+0x148>
   88a00:	91003c64 	add	x4, x3, #0xf
   88a04:	927df084 	and	x4, x4, #0xfffffffffffffff8
   88a08:	f90013e4 	str	x4, [sp, #32]
   88a0c:	17fffff1 	b	889d0 <snprintf+0x108>
   88a10:	f94017e3 	ldr	x3, [sp, #40]
   88a14:	8b24c063 	add	x3, x3, w4, sxtw
   88a18:	17ffffee 	b	889d0 <snprintf+0x108>
   88a1c:	aa0d03e3 	mov	x3, x13
   88a20:	2a0503e0 	mov	w0, w5
   88a24:	eb20c0df 	cmp	x6, w0, sxtw
   88a28:	54fff868 	b.hi	88934 <snprintf+0x6c>  // b.pmore
   88a2c:	1400008d 	b	88c60 <snprintf+0x398>
   88a30:	b9403bed 	ldr	w13, [sp, #56]
   88a34:	f94013e4 	ldr	x4, [sp, #32]
   88a38:	37f8036d 	tbnz	w13, #31, 88aa4 <snprintf+0x1dc>
   88a3c:	91003c8d 	add	x13, x4, #0xf
   88a40:	927df1ad 	and	x13, x13, #0xfffffffffffffff8
   88a44:	f90013ed 	str	x13, [sp, #32]
   88a48:	f9400090 	ldr	x16, [x4]
   88a4c:	b0007be4 	adrp	x4, 1005000 <hex_chars.0+0x3ff8>
   88a50:	91094084 	add	x4, x4, #0x250
   88a54:	a9403c8e 	ldp	x14, x15, [x4]
   88a58:	39404084 	ldrb	w4, [x4, #16]
   88a5c:	a900bfee 	stp	x14, x15, [sp, #8]
   88a60:	390063e4 	strb	w4, [sp, #24]
   88a64:	11000404 	add	w4, w0, #0x1
   88a68:	5280060d 	mov	w13, #0x30                  	// #48
   88a6c:	3825690d 	strb	w13, [x8, x5]
   88a70:	eb24c0df 	cmp	x6, w4, sxtw
   88a74:	540002e9 	b.ls	88ad0 <snprintf+0x208>  // b.plast
   88a78:	11000800 	add	w0, w0, #0x2
   88a7c:	52800f05 	mov	w5, #0x78                  	// #120
   88a80:	3824c905 	strb	w5, [x8, w4, sxtw]
   88a84:	eb20c0df 	cmp	x6, w0, sxtw
   88a88:	54fffce9 	b.ls	88a24 <snprintf+0x15c>  // b.plast
   88a8c:	52800784 	mov	w4, #0x3c                  	// #60
   88a90:	5280000e 	mov	w14, #0x0                   	// #0
   88a94:	52800012 	mov	w18, #0x0                   	// #0
   88a98:	910023ef 	add	x15, sp, #0x8
   88a9c:	52800031 	mov	w17, #0x1                   	// #1
   88aa0:	1400007b 	b	88c8c <snprintf+0x3c4>
   88aa4:	110021ae 	add	w14, w13, #0x8
   88aa8:	b9003bee 	str	w14, [sp, #56]
   88aac:	710001df 	cmp	w14, #0x0
   88ab0:	540000ad 	b.le	88ac4 <snprintf+0x1fc>
   88ab4:	91003c8d 	add	x13, x4, #0xf
   88ab8:	927df1ad 	and	x13, x13, #0xfffffffffffffff8
   88abc:	f90013ed 	str	x13, [sp, #32]
   88ac0:	17ffffe2 	b	88a48 <snprintf+0x180>
   88ac4:	f94017e4 	ldr	x4, [sp, #40]
   88ac8:	8b2dc084 	add	x4, x4, w13, sxtw
   88acc:	17ffffdf 	b	88a48 <snprintf+0x180>
   88ad0:	2a0403e0 	mov	w0, w4
   88ad4:	17ffffd4 	b	88a24 <snprintf+0x15c>
   88ad8:	2a0d03e0 	mov	w0, w13
   88adc:	17ffffd2 	b	88a24 <snprintf+0x15c>
   88ae0:	2a0d03e0 	mov	w0, w13
   88ae4:	17ffffd0 	b	88a24 <snprintf+0x15c>
   88ae8:	b9403be4 	ldr	w4, [sp, #56]
   88aec:	f94013e3 	ldr	x3, [sp, #32]
   88af0:	37f801a4 	tbnz	w4, #31, 88b24 <snprintf+0x25c>
   88af4:	91002c64 	add	x4, x3, #0xb
   88af8:	927df084 	and	x4, x4, #0xfffffffffffffff8
   88afc:	f90013e4 	str	x4, [sp, #32]
   88b00:	b9400064 	ldr	w4, [x3]
   88b04:	36f80284 	tbz	w4, #31, 88b54 <snprintf+0x28c>
   88b08:	11000400 	add	w0, w0, #0x1
   88b0c:	528005a3 	mov	w3, #0x2d                  	// #45
   88b10:	38256903 	strb	w3, [x8, x5]
   88b14:	eb20c0df 	cmp	x6, w0, sxtw
   88b18:	540001c8 	b.hi	88b50 <snprintf+0x288>  // b.pmore
   88b1c:	aa0d03e3 	mov	x3, x13
   88b20:	17ffffc1 	b	88a24 <snprintf+0x15c>
   88b24:	1100208e 	add	w14, w4, #0x8
   88b28:	b9003bee 	str	w14, [sp, #56]
   88b2c:	710001df 	cmp	w14, #0x0
   88b30:	540000ad 	b.le	88b44 <snprintf+0x27c>
   88b34:	91002c64 	add	x4, x3, #0xb
   88b38:	927df084 	and	x4, x4, #0xfffffffffffffff8
   88b3c:	f90013e4 	str	x4, [sp, #32]
   88b40:	17fffff0 	b	88b00 <snprintf+0x238>
   88b44:	f94017e3 	ldr	x3, [sp, #40]
   88b48:	8b24c063 	add	x3, x3, w4, sxtw
   88b4c:	17ffffed 	b	88b00 <snprintf+0x238>
   88b50:	4b0403e4 	neg	w4, w4
   88b54:	910023f0 	add	x16, sp, #0x8
   88b58:	52800005 	mov	w5, #0x0                   	// #0
   88b5c:	528cccf2 	mov	w18, #0x6667                	// #26215
   88b60:	72acccd2 	movk	w18, #0x6666, lsl #16
   88b64:	52800151 	mov	w17, #0xa                   	// #10
   88b68:	2a0503ef 	mov	w15, w5
   88b6c:	110004a5 	add	w5, w5, #0x1
   88b70:	9b327c83 	smull	x3, w4, w18
   88b74:	9362fc63 	asr	x3, x3, #34
   88b78:	4b847c63 	sub	w3, w3, w4, asr #31
   88b7c:	1b11906e 	msub	w14, w3, w17, w4
   88b80:	1100c1ce 	add	w14, w14, #0x30
   88b84:	3800160e 	strb	w14, [x16], #1
   88b88:	2a0403ee 	mov	w14, w4
   88b8c:	2a0303e4 	mov	w4, w3
   88b90:	710025df 	cmp	w14, #0x9
   88b94:	7a52c8a0 	ccmp	w5, #0x12, #0x0, gt
   88b98:	54fffe8d 	b.le	88b68 <snprintf+0x2a0>
   88b9c:	93407c03 	sxtw	x3, w0
   88ba0:	910023e4 	add	x4, sp, #0x8
   88ba4:	8b2fc084 	add	x4, x4, w15, sxtw
   88ba8:	0b0f000f 	add	w15, w0, w15
   88bac:	2a0303e0 	mov	w0, w3
   88bb0:	eb0300df 	cmp	x6, x3
   88bb4:	54fffb49 	b.ls	88b1c <snprintf+0x254>  // b.plast
   88bb8:	385ff485 	ldrb	w5, [x4], #-1
   88bbc:	38236905 	strb	w5, [x8, x3]
   88bc0:	91000463 	add	x3, x3, #0x1
   88bc4:	6b0301ff 	cmp	w15, w3
   88bc8:	54ffff25 	b.pl	88bac <snprintf+0x2e4>  // b.nfrst
   88bcc:	11000400 	add	w0, w0, #0x1
   88bd0:	17ffffd3 	b	88b1c <snprintf+0x254>
   88bd4:	b9403be4 	ldr	w4, [sp, #56]
   88bd8:	f94013e3 	ldr	x3, [sp, #32]
   88bdc:	37f80264 	tbnz	w4, #31, 88c28 <snprintf+0x360>
   88be0:	91003c64 	add	x4, x3, #0xf
   88be4:	927df084 	and	x4, x4, #0xfffffffffffffff8
   88be8:	f90013e4 	str	x4, [sp, #32]
   88bec:	f9400064 	ldr	x4, [x3]
   88bf0:	39400083 	ldrb	w3, [x4]
   88bf4:	34000443 	cbz	w3, 88c7c <snprintf+0x3b4>
   88bf8:	11000400 	add	w0, w0, #0x1
   88bfc:	93407c00 	sxtw	x0, w0
   88c00:	aa2503e5 	mvn	x5, x5
   88c04:	8b050085 	add	x5, x4, x5
   88c08:	eb00003f 	cmp	x1, x0
   88c0c:	54000280 	b.eq	88c5c <snprintf+0x394>  // b.none
   88c10:	38206923 	strb	w3, [x9, x0]
   88c14:	91000404 	add	x4, x0, #0x1
   88c18:	386468a3 	ldrb	w3, [x5, x4]
   88c1c:	340001c3 	cbz	w3, 88c54 <snprintf+0x38c>
   88c20:	aa0403e0 	mov	x0, x4
   88c24:	17fffff9 	b	88c08 <snprintf+0x340>
   88c28:	1100208e 	add	w14, w4, #0x8
   88c2c:	b9003bee 	str	w14, [sp, #56]
   88c30:	710001df 	cmp	w14, #0x0
   88c34:	540000ad 	b.le	88c48 <snprintf+0x380>
   88c38:	91003c64 	add	x4, x3, #0xf
   88c3c:	927df084 	and	x4, x4, #0xfffffffffffffff8
   88c40:	f90013e4 	str	x4, [sp, #32]
   88c44:	17ffffea 	b	88bec <snprintf+0x324>
   88c48:	f94017e3 	ldr	x3, [sp, #40]
   88c4c:	8b24c063 	add	x3, x3, w4, sxtw
   88c50:	17ffffe7 	b	88bec <snprintf+0x324>
   88c54:	aa0d03e3 	mov	x3, x13
   88c58:	17ffff73 	b	88a24 <snprintf+0x15c>
   88c5c:	51000400 	sub	w0, w0, #0x1
   88c60:	3820c91f 	strb	wzr, [x8, w0, sxtw]
   88c64:	9101c3ff 	add	sp, sp, #0x70
   88c68:	d65f03c0 	ret
   88c6c:	11000400 	add	w0, w0, #0x1
   88c70:	38256904 	strb	w4, [x8, x5]
   88c74:	aa0d03e3 	mov	x3, x13
   88c78:	17ffff6b 	b	88a24 <snprintf+0x15c>
   88c7c:	aa0d03e3 	mov	x3, x13
   88c80:	17ffff2d 	b	88934 <snprintf+0x6c>
   88c84:	51001084 	sub	w4, w4, #0x4
   88c88:	2a1203ee 	mov	w14, w18
   88c8c:	9ac42605 	lsr	x5, x16, x4
   88c90:	12000cad 	and	w13, w5, #0xf
   88c94:	2a0e01ad 	orr	w13, w13, w14
   88c98:	710001bf 	cmp	w13, #0x0
   88c9c:	7a400884 	ccmp	w4, #0x0, #0x4, eq	// eq = none
   88ca0:	54ffff21 	b.ne	88c84 <snprintf+0x3bc>  // b.any
   88ca4:	1100040d 	add	w13, w0, #0x1
   88ca8:	12000ca5 	and	w5, w5, #0xf
   88cac:	386569e5 	ldrb	w5, [x15, x5]
   88cb0:	3820c905 	strb	w5, [x8, w0, sxtw]
   88cb4:	eb2dc0df 	cmp	x6, w13, sxtw
   88cb8:	54fff109 	b.ls	88ad8 <snprintf+0x210>  // b.plast
   88cbc:	51001084 	sub	w4, w4, #0x4
   88cc0:	3100109f 	cmn	w4, #0x4
   88cc4:	54fff0e0 	b.eq	88ae0 <snprintf+0x218>  // b.none
   88cc8:	2a0d03e0 	mov	w0, w13
   88ccc:	2a1103ee 	mov	w14, w17
   88cd0:	17ffffef 	b	88c8c <snprintf+0x3c4>
   88cd4:	51001063 	sub	w3, w3, #0x4
   88cd8:	2a0b03ee 	mov	w14, w11
   88cdc:	9ac325e4 	lsr	x4, x15, x3
   88ce0:	12000c85 	and	w5, w4, #0xf
   88ce4:	2a0e00a5 	orr	w5, w5, w14
   88ce8:	710000bf 	cmp	w5, #0x0
   88cec:	7a400864 	ccmp	w3, #0x0, #0x4, eq	// eq = none
   88cf0:	54ffff21 	b.ne	88cd4 <snprintf+0x40c>  // b.any
   88cf4:	11000405 	add	w5, w0, #0x1
   88cf8:	12000c84 	and	w4, w4, #0xf
   88cfc:	386468e4 	ldrb	w4, [x7, x4]
   88d00:	3820c904 	strb	w4, [x8, w0, sxtw]
   88d04:	eb25c0df 	cmp	x6, w5, sxtw
   88d08:	54ffe8a9 	b.ls	88a1c <snprintf+0x154>  // b.plast
   88d0c:	51001063 	sub	w3, w3, #0x4
   88d10:	3100107f 	cmn	w3, #0x4
   88d14:	54ffe840 	b.eq	88a1c <snprintf+0x154>  // b.none
   88d18:	2a0503e0 	mov	w0, w5
   88d1c:	2a0a03ee 	mov	w14, w10
   88d20:	17ffffef 	b	88cdc <snprintf+0x414>

0000000000088d24 <known_alive_function>:
   88d24:	d10043ff 	sub	sp, sp, #0x10
   88d28:	d2a12000 	mov	x0, #0x9000000             	// #150994944
   88d2c:	52800961 	mov	w1, #0x4b                  	// #75
   88d30:	b9000001 	str	w1, [x0]
   88d34:	528008c1 	mov	w1, #0x46                  	// #70
   88d38:	b9000001 	str	w1, [x0]
   88d3c:	aa0003e3 	mov	x3, x0
   88d40:	528005c2 	mov	w2, #0x2e                  	// #46
   88d44:	528847e1 	mov	w1, #0x423f                	// #16959
   88d48:	72a001e1 	movk	w1, #0xf, lsl #16
   88d4c:	b9000062 	str	w2, [x3]
   88d50:	b9000fff 	str	wzr, [sp, #12]
   88d54:	b9400fe0 	ldr	w0, [sp, #12]
   88d58:	6b01001f 	cmp	w0, w1
   88d5c:	54ffff8c 	b.gt	88d4c <known_alive_function+0x28>
   88d60:	b9400fe0 	ldr	w0, [sp, #12]
   88d64:	11000400 	add	w0, w0, #0x1
   88d68:	b9000fe0 	str	w0, [sp, #12]
   88d6c:	b9400fe0 	ldr	w0, [sp, #12]
   88d70:	6b01001f 	cmp	w0, w1
   88d74:	54ffff6d 	b.le	88d60 <known_alive_function+0x3c>
   88d78:	17fffff5 	b	88d4c <known_alive_function+0x28>

0000000000088d7c <debug_print_raw>:
   88d7c:	d10203ff 	sub	sp, sp, #0x80
   88d80:	a9048be1 	stp	x1, x2, [sp, #72]
   88d84:	a90593e3 	stp	x3, x4, [sp, #88]
   88d88:	a9069be5 	stp	x5, x6, [sp, #104]
   88d8c:	f9003fe7 	str	x7, [sp, #120]
   88d90:	910203e1 	add	x1, sp, #0x80
   88d94:	a90207e1 	stp	x1, x1, [sp, #32]
   88d98:	910103e1 	add	x1, sp, #0x40
   88d9c:	f9001be1 	str	x1, [sp, #48]
   88da0:	128006e1 	mov	w1, #0xffffffc8            	// #-56
   88da4:	29077fe1 	stp	w1, wzr, [sp, #56]
   88da8:	39400001 	ldrb	w1, [x0]
   88dac:	340006e1 	cbz	w1, 88e88 <debug_print_raw+0x10c>
   88db0:	d2a12002 	mov	x2, #0x9000000             	// #150994944
   88db4:	528004a4 	mov	w4, #0x25                  	// #37
   88db8:	14000029 	b	88e5c <debug_print_raw+0xe0>
   88dbc:	b9403be3 	ldr	w3, [sp, #56]
   88dc0:	f94013e0 	ldr	x0, [sp, #32]
   88dc4:	37f802c3 	tbnz	w3, #31, 88e1c <debug_print_raw+0xa0>
   88dc8:	91002c03 	add	x3, x0, #0xb
   88dcc:	927df063 	and	x3, x3, #0xfffffffffffffff8
   88dd0:	f90013e3 	str	x3, [sp, #32]
   88dd4:	b9400007 	ldr	w7, [x0]
   88dd8:	b0007be0 	adrp	x0, 1005000 <hex_chars.0+0x3ff8>
   88ddc:	91094000 	add	x0, x0, #0x250
   88de0:	a9402408 	ldp	x8, x9, [x0]
   88de4:	39404000 	ldrb	w0, [x0, #16]
   88de8:	a900a7e8 	stp	x8, x9, [sp, #8]
   88dec:	390063e0 	strb	w0, [sp, #24]
   88df0:	52800380 	mov	w0, #0x1c                  	// #28
   88df4:	910023e6 	add	x6, sp, #0x8
   88df8:	d2a12005 	mov	x5, #0x9000000             	// #150994944
   88dfc:	1ac024e3 	lsr	w3, w7, w0
   88e00:	12000c63 	and	w3, w3, #0xf
   88e04:	386348c3 	ldrb	w3, [x6, w3, uxtw]
   88e08:	b90000a3 	str	w3, [x5]
   88e0c:	51001000 	sub	w0, w0, #0x4
   88e10:	3100101f 	cmn	w0, #0x4
   88e14:	54ffff41 	b.ne	88dfc <debug_print_raw+0x80>  // b.any
   88e18:	1400000e 	b	88e50 <debug_print_raw+0xd4>
   88e1c:	11002065 	add	w5, w3, #0x8
   88e20:	b9003be5 	str	w5, [sp, #56]
   88e24:	710000bf 	cmp	w5, #0x0
   88e28:	540000ad 	b.le	88e3c <debug_print_raw+0xc0>
   88e2c:	91002c03 	add	x3, x0, #0xb
   88e30:	927df063 	and	x3, x3, #0xfffffffffffffff8
   88e34:	f90013e3 	str	x3, [sp, #32]
   88e38:	17ffffe7 	b	88dd4 <debug_print_raw+0x58>
   88e3c:	f94017e0 	ldr	x0, [sp, #40]
   88e40:	8b23c000 	add	x0, x0, w3, sxtw
   88e44:	17ffffe4 	b	88dd4 <debug_print_raw+0x58>
   88e48:	b9000041 	str	w1, [x2]
   88e4c:	aa0003e1 	mov	x1, x0
   88e50:	91000420 	add	x0, x1, #0x1
   88e54:	39400421 	ldrb	w1, [x1, #1]
   88e58:	34000181 	cbz	w1, 88e88 <debug_print_raw+0x10c>
   88e5c:	7100943f 	cmp	w1, #0x25
   88e60:	54ffff41 	b.ne	88e48 <debug_print_raw+0xcc>  // b.any
   88e64:	39400403 	ldrb	w3, [x0, #1]
   88e68:	34ffff03 	cbz	w3, 88e48 <debug_print_raw+0xcc>
   88e6c:	91000401 	add	x1, x0, #0x1
   88e70:	7101e07f 	cmp	w3, #0x78
   88e74:	54fffa40 	b.eq	88dbc <debug_print_raw+0x40>  // b.none
   88e78:	b9000044 	str	w4, [x2]
   88e7c:	39400400 	ldrb	w0, [x0, #1]
   88e80:	b9000040 	str	w0, [x2]
   88e84:	17fffff3 	b	88e50 <debug_print_raw+0xd4>
   88e88:	910203ff 	add	sp, sp, #0x80
   88e8c:	d65f03c0 	ret

0000000000088e90 <dummy_task_a>:
   88e90:	d2a12000 	mov	x0, #0x9000000             	// #150994944
   88e94:	52800881 	mov	w1, #0x44                  	// #68
   88e98:	b9000001 	str	w1, [x0]
   88e9c:	52800821 	mov	w1, #0x41                  	// #65
   88ea0:	b9000001 	str	w1, [x0]
   88ea4:	528001a2 	mov	w2, #0xd                   	// #13
   88ea8:	b9000002 	str	w2, [x0]
   88eac:	52800142 	mov	w2, #0xa                   	// #10
   88eb0:	b9000002 	str	w2, [x0]
   88eb4:	b9000001 	str	w1, [x0]
   88eb8:	b9000001 	str	w1, [x0]
   88ebc:	b9000001 	str	w1, [x0]
   88ec0:	f0007be0 	adrp	x0, 1007000 <mmu_msg>
   88ec4:	f943d400 	ldr	x0, [x0, #1960]
   88ec8:	b4000140 	cbz	x0, 88ef0 <dummy_task_a+0x60>
   88ecc:	b9411000 	ldr	w0, [x0, #272]
   88ed0:	35000100 	cbnz	w0, 88ef0 <dummy_task_a+0x60>
   88ed4:	a9be7bfd 	stp	x29, x30, [sp, #-32]!
   88ed8:	910003fd 	mov	x29, sp
   88edc:	f9000bf3 	str	x19, [sp, #16]
   88ee0:	52800833 	mov	w19, #0x41                  	// #65
   88ee4:	2a1303e0 	mov	w0, w19
   88ee8:	97ffe923 	bl	83374 <uart_putc>
   88eec:	17fffffe 	b	88ee4 <dummy_task_a+0x54>
   88ef0:	d65f03c0 	ret

0000000000088ef4 <dummy_task_b>:
   88ef4:	a9be7bfd 	stp	x29, x30, [sp, #-32]!
   88ef8:	910003fd 	mov	x29, sp
   88efc:	f9000bf3 	str	x19, [sp, #16]
   88f00:	d2a12000 	mov	x0, #0x9000000             	// #150994944
   88f04:	52800881 	mov	w1, #0x44                  	// #68
   88f08:	b9000001 	str	w1, [x0]
   88f0c:	52800841 	mov	w1, #0x42                  	// #66
   88f10:	b9000001 	str	w1, [x0]
   88f14:	528001a1 	mov	w1, #0xd                   	// #13
   88f18:	b9000001 	str	w1, [x0]
   88f1c:	52800141 	mov	w1, #0xa                   	// #10
   88f20:	b9000001 	str	w1, [x0]
   88f24:	52800853 	mov	w19, #0x42                  	// #66
   88f28:	2a1303e0 	mov	w0, w19
   88f2c:	97ffe912 	bl	83374 <uart_putc>
   88f30:	17fffffe 	b	88f28 <dummy_task_b+0x34>

0000000000088f34 <create_task>:
   88f34:	a9b57bfd 	stp	x29, x30, [sp, #-176]!
   88f38:	910003fd 	mov	x29, sp
   88f3c:	f90027e0 	str	x0, [sp, #72]
   88f40:	d2a12000 	mov	x0, #0x9000000             	// #150994944
   88f44:	52800a81 	mov	w1, #0x54                  	// #84
   88f48:	b9000001 	str	w1, [x0]
   88f4c:	52800861 	mov	w1, #0x43                  	// #67
   88f50:	b9000001 	str	w1, [x0]
   88f54:	52800741 	mov	w1, #0x3a                  	// #58
   88f58:	b9000001 	str	w1, [x0]
   88f5c:	f94027e0 	ldr	x0, [sp, #72]
   88f60:	b4000120 	cbz	x0, 88f84 <create_task+0x50>
   88f64:	a90153f3 	stp	x19, x20, [sp, #16]
   88f68:	d2a12000 	mov	x0, #0x9000000             	// #150994944
   88f6c:	52800801 	mov	w1, #0x40                  	// #64
   88f70:	b9000001 	str	w1, [x0]
   88f74:	910123e7 	add	x7, sp, #0x48
   88f78:	91013fe4 	add	x4, sp, #0x4f
   88f7c:	aa0003e5 	mov	x5, x0
   88f80:	1400000e 	b	88fb8 <create_task+0x84>
   88f84:	d2a12000 	mov	x0, #0x9000000             	// #150994944
   88f88:	52800601 	mov	w1, #0x30                  	// #48
   88f8c:	b9000001 	str	w1, [x0]
   88f90:	52800421 	mov	w1, #0x21                  	// #33
   88f94:	b9000001 	str	w1, [x0]
   88f98:	b0007be0 	adrp	x0, 1005000 <hex_chars.0+0x3ff8>
   88f9c:	9109a000 	add	x0, x0, #0x268
   88fa0:	97ffe03a 	bl	81088 <debug_print>
   88fa4:	d2a12001 	mov	x1, #0x9000000             	// #150994944
   88fa8:	52800dc0 	mov	w0, #0x6e                  	// #110
   88fac:	b9000020 	str	w0, [x1]
   88fb0:	17ffffff 	b	88fac <create_task+0x78>
   88fb4:	aa0303e4 	mov	x4, x3
   88fb8:	aa0403e3 	mov	x3, x4
   88fbc:	385ff460 	ldrb	w0, [x3], #-1
   88fc0:	53047c02 	lsr	w2, w0, #4
   88fc4:	12000c00 	and	w0, w0, #0xf
   88fc8:	1100c046 	add	w6, w2, #0x30
   88fcc:	1100dc41 	add	w1, w2, #0x37
   88fd0:	7100245f 	cmp	w2, #0x9
   88fd4:	1a868021 	csel	w1, w1, w6, hi	// hi = pmore
   88fd8:	b90000a1 	str	w1, [x5]
   88fdc:	1100c002 	add	w2, w0, #0x30
   88fe0:	1100dc01 	add	w1, w0, #0x37
   88fe4:	7100241f 	cmp	w0, #0x9
   88fe8:	1a828020 	csel	w0, w1, w2, hi	// hi = pmore
   88fec:	b90000a0 	str	w0, [x5]
   88ff0:	eb07009f 	cmp	x4, x7
   88ff4:	54fffe01 	b.ne	88fb4 <create_task+0x80>  // b.any
   88ff8:	d2a12000 	mov	x0, #0x9000000             	// #150994944
   88ffc:	528001a1 	mov	w1, #0xd                   	// #13
   89000:	b9000001 	str	w1, [x0]
   89004:	52800141 	mov	w1, #0xa                   	// #10
   89008:	b9000001 	str	w1, [x0]
   8900c:	f94027f3 	ldr	x19, [sp, #72]
   89010:	910243f4 	add	x20, sp, #0x90
   89014:	aa1303e3 	mov	x3, x19
   89018:	90007be2 	adrp	x2, 1005000 <hex_chars.0+0x3ff8>
   8901c:	910a6042 	add	x2, x2, #0x298
   89020:	d2800401 	mov	x1, #0x20                  	// #32
   89024:	aa1403e0 	mov	x0, x20
   89028:	97fffe28 	bl	888c8 <snprintf>
   8902c:	aa1403e0 	mov	x0, x20
   89030:	97ffe016 	bl	81088 <debug_print>
   89034:	90ffffc3 	adrp	x3, 81000 <task_a>
   89038:	91000063 	add	x3, x3, #0x0
   8903c:	90007be2 	adrp	x2, 1005000 <hex_chars.0+0x3ff8>
   89040:	910aa042 	add	x2, x2, #0x2a8
   89044:	d2800401 	mov	x1, #0x20                  	// #32
   89048:	aa1403e0 	mov	x0, x20
   8904c:	97fffe1f 	bl	888c8 <snprintf>
   89050:	aa1403e0 	mov	x0, x20
   89054:	97ffe00d 	bl	81088 <debug_print>
   89058:	f0ffffc3 	adrp	x3, 84000 <test_memory_writability+0x190>
   8905c:	9124a063 	add	x3, x3, #0x928
   89060:	90007be2 	adrp	x2, 1005000 <hex_chars.0+0x3ff8>
   89064:	910b0042 	add	x2, x2, #0x2c0
   89068:	d2800401 	mov	x1, #0x20                  	// #32
   8906c:	aa1403e0 	mov	x0, x20
   89070:	97fffe16 	bl	888c8 <snprintf>
   89074:	aa1403e0 	mov	x0, x20
   89078:	97ffe004 	bl	81088 <debug_print>
   8907c:	531c7e73 	lsr	w19, w19, #28
   89080:	f100267f 	cmp	x19, #0x9
   89084:	540001c8 	b.hi	890bc <create_task+0x188>  // b.pmore
   89088:	1100c273 	add	w19, w19, #0x30
   8908c:	d2a12000 	mov	x0, #0x9000000             	// #150994944
   89090:	b9000013 	str	w19, [x0]
   89094:	d0007be0 	adrp	x0, 1007000 <mmu_msg>
   89098:	b947b000 	ldr	w0, [x0, #1968]
   8909c:	71001c1f 	cmp	w0, #0x7
   890a0:	5400016d 	b.le	890cc <create_task+0x198>
   890a4:	d2a12000 	mov	x0, #0x9000000             	// #150994944
   890a8:	528009a1 	mov	w1, #0x4d                  	// #77
   890ac:	b9000001 	str	w1, [x0]
   890b0:	a94153f3 	ldp	x19, x20, [sp, #16]
   890b4:	a8cb7bfd 	ldp	x29, x30, [sp], #176
   890b8:	d65f03c0 	ret
   890bc:	1100de73 	add	w19, w19, #0x37
   890c0:	d2a12000 	mov	x0, #0x9000000             	// #150994944
   890c4:	b9000013 	str	w19, [x0]
   890c8:	17fffff3 	b	89094 <create_task+0x160>
   890cc:	97ffead3 	bl	83c18 <alloc_page>
   890d0:	aa0003f4 	mov	x20, x0
   890d4:	b4000c80 	cbz	x0, 89264 <create_task+0x330>
   890d8:	a9025bf5 	stp	x21, x22, [sp, #32]
   890dc:	aa0003f3 	mov	x19, x0
   890e0:	53186c00 	ubfx	w0, w0, #24, #4
   890e4:	1100c000 	add	w0, w0, #0x30
   890e8:	d2a12001 	mov	x1, #0x9000000             	// #150994944
   890ec:	b9000020 	str	w0, [x1]
   890f0:	97ffeaca 	bl	83c18 <alloc_page>
   890f4:	aa0003f5 	mov	x21, x0
   890f8:	b4000be0 	cbz	x0, 89274 <create_task+0x340>
   890fc:	d2802702 	mov	x2, #0x138                 	// #312
   89100:	52800001 	mov	w1, #0x0                   	// #0
   89104:	97ffe949 	bl	83628 <memset>
   89108:	f94027e0 	ldr	x0, [sp, #72]
   8910c:	b4000c20 	cbz	x0, 89290 <create_task+0x35c>
   89110:	a90363f7 	stp	x23, x24, [sp, #48]
   89114:	53186c00 	ubfx	w0, w0, #24, #4
   89118:	1100c000 	add	w0, w0, #0x30
   8911c:	d2a12001 	mov	x1, #0x9000000             	// #150994944
   89120:	b9000020 	str	w0, [x1]
   89124:	91400696 	add	x22, x20, #0x1, lsl #12
   89128:	927ceed6 	and	x22, x22, #0xfffffffffffffff0
   8912c:	910143f8 	add	x24, sp, #0x50
   89130:	aa1603e4 	mov	x4, x22
   89134:	aa1403e3 	mov	x3, x20
   89138:	90007be2 	adrp	x2, 1005000 <hex_chars.0+0x3ff8>
   8913c:	910b8042 	add	x2, x2, #0x2e0
   89140:	d2800801 	mov	x1, #0x40                  	// #64
   89144:	aa1803e0 	mov	x0, x24
   89148:	97fffde0 	bl	888c8 <snprintf>
   8914c:	aa1803e0 	mov	x0, x24
   89150:	97ffdfce 	bl	81088 <debug_print>
   89154:	90007be0 	adrp	x0, 1005000 <hex_chars.0+0x3ff8>
   89158:	910c2000 	add	x0, x0, #0x308
   8915c:	97ffe890 	bl	8339c <uart_puts>
   89160:	aa1403e0 	mov	x0, x20
   89164:	97ffe8a2 	bl	833ec <uart_puthex>
   89168:	90007bc0 	adrp	x0, 1001000 <GLOBAL_UART>
   8916c:	91228000 	add	x0, x0, #0x8a0
   89170:	97ffe88b 	bl	8339c <uart_puts>
   89174:	d10202d7 	sub	x23, x22, #0x80
   89178:	90007be4 	adrp	x4, 1005000 <hex_chars.0+0x3ff8>
   8917c:	910c8084 	add	x4, x4, #0x320
   89180:	aa1703e3 	mov	x3, x23
   89184:	90007be2 	adrp	x2, 1005000 <hex_chars.0+0x3ff8>
   89188:	910ca042 	add	x2, x2, #0x328
   8918c:	d2800801 	mov	x1, #0x40                  	// #64
   89190:	aa1803e0 	mov	x0, x24
   89194:	97fffdcd 	bl	888c8 <snprintf>
   89198:	aa1803e0 	mov	x0, x24
   8919c:	97ffdfbb 	bl	81088 <debug_print>
   891a0:	d297dde3 	mov	x3, #0xbeef                	// #48879
   891a4:	f2bbd5a3 	movk	x3, #0xdead, lsl #16
   891a8:	f81802c3 	stur	x3, [x22, #-128]
   891ac:	90007be2 	adrp	x2, 1005000 <hex_chars.0+0x3ff8>
   891b0:	910d4042 	add	x2, x2, #0x350
   891b4:	d2800801 	mov	x1, #0x40                  	// #64
   891b8:	aa1803e0 	mov	x0, x24
   891bc:	97fffdc3 	bl	888c8 <snprintf>
   891c0:	aa1803e0 	mov	x0, x24
   891c4:	97ffdfb1 	bl	81088 <debug_print>
   891c8:	91010282 	add	x2, x20, #0x40
   891cc:	12800aa1 	mov	w1, #0xffffffaa            	// #-86
   891d0:	38001661 	strb	w1, [x19], #1
   891d4:	eb02027f 	cmp	x19, x2
   891d8:	54ffffc1 	b.ne	891d0 <create_task+0x29c>  // b.any
   891dc:	90007be0 	adrp	x0, 1005000 <hex_chars.0+0x3ff8>
   891e0:	910e0000 	add	x0, x0, #0x380
   891e4:	97ffe86e 	bl	8339c <uart_puts>
   891e8:	d2800001 	mov	x1, #0x0                   	// #0
   891ec:	d2d7dde0 	mov	x0, #0xbeef00000000        	// #209933706461184
   891f0:	f2fbd5a0 	movk	x0, #0xdead, lsl #48
   891f4:	aa000022 	orr	x2, x1, x0
   891f8:	f8217a82 	str	x2, [x20, x1, lsl #3]
   891fc:	91000421 	add	x1, x1, #0x1
   89200:	f100203f 	cmp	x1, #0x8
   89204:	54ffff81 	b.ne	891f4 <create_task+0x2c0>  // b.any
   89208:	90007be0 	adrp	x0, 1005000 <hex_chars.0+0x3ff8>
   8920c:	910ee000 	add	x0, x0, #0x3b8
   89210:	97ffe863 	bl	8339c <uart_puts>
   89214:	d2801002 	mov	x2, #0x80                  	// #128
   89218:	52800001 	mov	w1, #0x0                   	// #0
   8921c:	aa1703e0 	mov	x0, x23
   89220:	97ffe902 	bl	83628 <memset>
   89224:	f90002b6 	str	x22, [x21]
   89228:	90007be0 	adrp	x0, 1005000 <hex_chars.0+0x3ff8>
   8922c:	910fa000 	add	x0, x0, #0x3e8
   89230:	97ffdf96 	bl	81088 <debug_print>
   89234:	d2a12000 	mov	x0, #0x9000000             	// #150994944
   89238:	52800a01 	mov	w1, #0x50                  	// #80
   8923c:	b9000001 	str	w1, [x0]
   89240:	52800421 	mov	w1, #0x21                  	// #33
   89244:	b9000001 	str	w1, [x0]
   89248:	aa1403e0 	mov	x0, x20
   8924c:	97ffeab1 	bl	83d10 <free_page>
   89250:	aa1503e0 	mov	x0, x21
   89254:	97ffeaaf 	bl	83d10 <free_page>
   89258:	a9425bf5 	ldp	x21, x22, [sp, #32]
   8925c:	a94363f7 	ldp	x23, x24, [sp, #48]
   89260:	17ffff94 	b	890b0 <create_task+0x17c>
   89264:	d2a12000 	mov	x0, #0x9000000             	// #150994944
   89268:	52800a61 	mov	w1, #0x53                  	// #83
   8926c:	b9000001 	str	w1, [x0]
   89270:	17ffff90 	b	890b0 <create_task+0x17c>
   89274:	d2a12000 	mov	x0, #0x9000000             	// #150994944
   89278:	52800a81 	mov	w1, #0x54                  	// #84
   8927c:	b9000001 	str	w1, [x0]
   89280:	aa1403e0 	mov	x0, x20
   89284:	97ffeaa3 	bl	83d10 <free_page>
   89288:	a9425bf5 	ldp	x21, x22, [sp, #32]
   8928c:	17ffff89 	b	890b0 <create_task+0x17c>
   89290:	d2a12000 	mov	x0, #0x9000000             	// #150994944
   89294:	528008a1 	mov	w1, #0x45                  	// #69
   89298:	b9000001 	str	w1, [x0]
   8929c:	aa1403e0 	mov	x0, x20
   892a0:	97ffea9c 	bl	83d10 <free_page>
   892a4:	aa1503e0 	mov	x0, x21
   892a8:	97ffea9a 	bl	83d10 <free_page>
   892ac:	a9425bf5 	ldp	x21, x22, [sp, #32]
   892b0:	17ffff80 	b	890b0 <create_task+0x17c>

00000000000892b4 <init_tasks>:
   892b4:	a9b87bfd 	stp	x29, x30, [sp, #-128]!
   892b8:	910003fd 	mov	x29, sp
   892bc:	a90153f3 	stp	x19, x20, [sp, #16]
   892c0:	a9025bf5 	stp	x21, x22, [sp, #32]
   892c4:	a90363f7 	stp	x23, x24, [sp, #48]
   892c8:	d0007bf6 	adrp	x22, 1007000 <mmu_msg>
   892cc:	911ea2d5 	add	x21, x22, #0x7a8
   892d0:	b9000abf 	str	wzr, [x21, #8]
   892d4:	f903d6df 	str	xzr, [x22, #1960]
   892d8:	910042a0 	add	x0, x21, #0x10
   892dc:	a9017ebf 	stp	xzr, xzr, [x21, #16]
   892e0:	a9017c1f 	stp	xzr, xzr, [x0, #16]
   892e4:	a9027c1f 	stp	xzr, xzr, [x0, #32]
   892e8:	a9037c1f 	stp	xzr, xzr, [x0, #48]
   892ec:	d2a12013 	mov	x19, #0x9000000             	// #150994944
   892f0:	52800b60 	mov	w0, #0x5b                  	// #91
   892f4:	b9000260 	str	w0, [x19]
   892f8:	52800920 	mov	w0, #0x49                  	// #73
   892fc:	b9000260 	str	w0, [x19]
   89300:	528009c1 	mov	w1, #0x4e                  	// #78
   89304:	b9000261 	str	w1, [x19]
   89308:	b9000260 	str	w0, [x19]
   8930c:	52800a97 	mov	w23, #0x54                  	// #84
   89310:	b9000277 	str	w23, [x19]
   89314:	52800be0 	mov	w0, #0x5f                  	// #95
   89318:	b9000260 	str	w0, [x19]
   8931c:	b9000277 	str	w23, [x19]
   89320:	52800ba0 	mov	w0, #0x5d                  	// #93
   89324:	b9000260 	str	w0, [x19]
   89328:	528001a0 	mov	w0, #0xd                   	// #13
   8932c:	b9000260 	str	w0, [x19]
   89330:	52800140 	mov	w0, #0xa                   	// #10
   89334:	b9000260 	str	w0, [x19]
   89338:	aa1e03e3 	mov	x3, x30
   8933c:	910103f4 	add	x20, sp, #0x40
   89340:	90007be2 	adrp	x2, 1005000 <hex_chars.0+0x3ff8>
   89344:	91108042 	add	x2, x2, #0x420
   89348:	d2800801 	mov	x1, #0x40                  	// #64
   8934c:	aa1403e0 	mov	x0, x20
   89350:	97fffd5e 	bl	888c8 <snprintf>
   89354:	aa1403e0 	mov	x0, x20
   89358:	97ffdf4c 	bl	81088 <debug_print>
   8935c:	52800878 	mov	w24, #0x43                  	// #67
   89360:	b9000278 	str	w24, [x19]
   89364:	b9000277 	str	w23, [x19]
   89368:	52800820 	mov	w0, #0x41                  	// #65
   8936c:	b9000260 	str	w0, [x19]
   89370:	90000000 	adrp	x0, 89000 <create_task+0xcc>
   89374:	9124c000 	add	x0, x0, #0x930
   89378:	97fffeef 	bl	88f34 <create_task>
   8937c:	52800840 	mov	w0, #0x42                  	// #66
   89380:	b9000260 	str	w0, [x19]
   89384:	90000000 	adrp	x0, 89000 <create_task+0xcc>
   89388:	91275000 	add	x0, x0, #0x9d4
   8938c:	97fffeea 	bl	88f34 <create_task>
   89390:	b9000278 	str	w24, [x19]
   89394:	90000000 	adrp	x0, 89000 <create_task+0xcc>
   89398:	9129e000 	add	x0, x0, #0xa78
   8939c:	97fffee6 	bl	88f34 <create_task>
   893a0:	52800880 	mov	w0, #0x44                  	// #68
   893a4:	b9000260 	str	w0, [x19]
   893a8:	90000000 	adrp	x0, 89000 <create_task+0xcc>
   893ac:	912c7000 	add	x0, x0, #0xb1c
   893b0:	97fffee1 	bl	88f34 <create_task>
   893b4:	52800a60 	mov	w0, #0x53                  	// #83
   893b8:	b9000260 	str	w0, [x19]
   893bc:	f9400aa0 	ldr	x0, [x21, #16]
   893c0:	f903d6c0 	str	x0, [x22, #1960]
   893c4:	52800041 	mov	w1, #0x2                   	// #2
   893c8:	b9011401 	str	w1, [x0, #276]
   893cc:	f9409404 	ldr	x4, [x0, #296]
   893d0:	f9408003 	ldr	x3, [x0, #256]
   893d4:	90007be2 	adrp	x2, 1005000 <hex_chars.0+0x3ff8>
   893d8:	9110e042 	add	x2, x2, #0x438
   893dc:	d2800801 	mov	x1, #0x40                  	// #64
   893e0:	aa1403e0 	mov	x0, x20
   893e4:	97fffd39 	bl	888c8 <snprintf>
   893e8:	aa1403e0 	mov	x0, x20
   893ec:	97ffdf27 	bl	81088 <debug_print>
   893f0:	90007be0 	adrp	x0, 1005000 <hex_chars.0+0x3ff8>
   893f4:	91116000 	add	x0, x0, #0x458
   893f8:	97ffe7e9 	bl	8339c <uart_puts>
   893fc:	a94153f3 	ldp	x19, x20, [sp, #16]
   89400:	a9425bf5 	ldp	x21, x22, [sp, #32]
   89404:	a94363f7 	ldp	x23, x24, [sp, #48]
   89408:	a8c87bfd 	ldp	x29, x30, [sp], #128
   8940c:	d65f03c0 	ret

0000000000089410 <create_el0_task>:
   89410:	a9bd7bfd 	stp	x29, x30, [sp, #-48]!
   89414:	910003fd 	mov	x29, sp
   89418:	f90013f5 	str	x21, [sp, #32]
   8941c:	aa0003f5 	mov	x21, x0
   89420:	90007be0 	adrp	x0, 1005000 <hex_chars.0+0x3ff8>
   89424:	91120000 	add	x0, x0, #0x480
   89428:	97ffe7dd 	bl	8339c <uart_puts>
   8942c:	aa1503e0 	mov	x0, x21
   89430:	97ffe7e6 	bl	833c8 <uart_hex64>
   89434:	90007bc0 	adrp	x0, 1001000 <GLOBAL_UART>
   89438:	91228000 	add	x0, x0, #0x8a0
   8943c:	97ffe7d8 	bl	8339c <uart_puts>
   89440:	d0007be0 	adrp	x0, 1007000 <mmu_msg>
   89444:	b947b000 	ldr	w0, [x0, #1968]
   89448:	71001c1f 	cmp	w0, #0x7
   8944c:	540009cc 	b.gt	89584 <create_el0_task+0x174>
   89450:	a90153f3 	stp	x19, x20, [sp, #16]
   89454:	97ffe9f1 	bl	83c18 <alloc_page>
   89458:	aa0003f4 	mov	x20, x0
   8945c:	b40009c0 	cbz	x0, 89594 <create_el0_task+0x184>
   89460:	97ffe9ee 	bl	83c18 <alloc_page>
   89464:	aa0003f3 	mov	x19, x0
   89468:	b4000a00 	cbz	x0, 895a8 <create_el0_task+0x198>
   8946c:	d2802702 	mov	x2, #0x138                 	// #312
   89470:	52800001 	mov	w1, #0x0                   	// #0
   89474:	97ffe86d 	bl	83628 <memset>
   89478:	91400685 	add	x5, x20, #0x1, lsl #12
   8947c:	927ceca5 	and	x5, x5, #0xfffffffffffffff0
   89480:	d10200a5 	sub	x5, x5, #0x80
   89484:	d2800001 	mov	x1, #0x0                   	// #0
   89488:	91002263 	add	x3, x19, #0x8
   8948c:	d2fdc004 	mov	x4, #0xee00000000000000    	// #-1297036692682702848
   89490:	aa040022 	orr	x2, x1, x4
   89494:	f8217862 	str	x2, [x3, x1, lsl #3]
   89498:	91000421 	add	x1, x1, #0x1
   8949c:	f100403f 	cmp	x1, #0x10
   894a0:	54ffff81 	b.ne	89490 <create_el0_task+0x80>  // b.any
   894a4:	b2481c22 	orr	x2, x1, #0xff00000000000000
   894a8:	f8217862 	str	x2, [x3, x1, lsl #3]
   894ac:	91000421 	add	x1, x1, #0x1
   894b0:	f1007c3f 	cmp	x1, #0x1f
   894b4:	54ffff81 	b.ne	894a4 <create_el0_task+0x94>  // b.any
   894b8:	f9000265 	str	x5, [x19]
   894bc:	d2800800 	mov	x0, #0x40                  	// #64
   894c0:	a9100275 	stp	x21, x0, [x19, #256]
   894c4:	90007be0 	adrp	x0, 1005000 <hex_chars.0+0x3ff8>
   894c8:	91154000 	add	x0, x0, #0x550
   894cc:	97ffe7b4 	bl	8339c <uart_puts>
   894d0:	f9408260 	ldr	x0, [x19, #256]
   894d4:	97ffe7bd 	bl	833c8 <uart_hex64>
   894d8:	90007be0 	adrp	x0, 1005000 <hex_chars.0+0x3ff8>
   894dc:	9115e000 	add	x0, x0, #0x578
   894e0:	97ffe7af 	bl	8339c <uart_puts>
   894e4:	f9408660 	ldr	x0, [x19, #264]
   894e8:	97ffe7b8 	bl	833c8 <uart_hex64>
   894ec:	90007bc0 	adrp	x0, 1001000 <GLOBAL_UART>
   894f0:	91228000 	add	x0, x0, #0x8a0
   894f4:	97ffe7aa 	bl	8339c <uart_puts>
   894f8:	d0007bf4 	adrp	x20, 1007000 <mmu_msg>
   894fc:	911ea294 	add	x20, x20, #0x7a8
   89500:	b9400a83 	ldr	w3, [x20, #8]
   89504:	b9011263 	str	w3, [x19, #272]
   89508:	b901167f 	str	wzr, [x19, #276]
   8950c:	90007be2 	adrp	x2, 1005000 <hex_chars.0+0x3ff8>
   89510:	91162042 	add	x2, x2, #0x588
   89514:	d2800201 	mov	x1, #0x10                  	// #16
   89518:	91046260 	add	x0, x19, #0x118
   8951c:	97fffceb 	bl	888c8 <snprintf>
   89520:	f9009675 	str	x21, [x19, #296]
   89524:	b9400a80 	ldr	w0, [x20, #8]
   89528:	7100001f 	cmp	w0, #0x0
   8952c:	540004cd 	b.le	895c4 <create_el0_task+0x1b4>
   89530:	91004282 	add	x2, x20, #0x10
   89534:	51000403 	sub	w3, w0, #0x1
   89538:	f863d843 	ldr	x3, [x2, w3, sxtw #3]
   8953c:	f9009873 	str	x19, [x3, #304]
   89540:	f9400a83 	ldr	x3, [x20, #16]
   89544:	f9009a63 	str	x3, [x19, #304]
   89548:	f820d853 	str	x19, [x2, w0, sxtw #3]
   8954c:	11000400 	add	w0, w0, #0x1
   89550:	b9000a80 	str	w0, [x20, #8]
   89554:	90007be0 	adrp	x0, 1005000 <hex_chars.0+0x3ff8>
   89558:	91166000 	add	x0, x0, #0x598
   8955c:	97ffe790 	bl	8339c <uart_puts>
   89560:	aa1503e0 	mov	x0, x21
   89564:	97ffe799 	bl	833c8 <uart_hex64>
   89568:	90007bc0 	adrp	x0, 1001000 <GLOBAL_UART>
   8956c:	91228000 	add	x0, x0, #0x8a0
   89570:	97ffe78b 	bl	8339c <uart_puts>
   89574:	a94153f3 	ldp	x19, x20, [sp, #16]
   89578:	f94013f5 	ldr	x21, [sp, #32]
   8957c:	a8c37bfd 	ldp	x29, x30, [sp], #48
   89580:	d65f03c0 	ret
   89584:	90007be0 	adrp	x0, 1005000 <hex_chars.0+0x3ff8>
   89588:	9112c000 	add	x0, x0, #0x4b0
   8958c:	97ffe784 	bl	8339c <uart_puts>
   89590:	17fffffa 	b	89578 <create_el0_task+0x168>
   89594:	90007be0 	adrp	x0, 1005000 <hex_chars.0+0x3ff8>
   89598:	91138000 	add	x0, x0, #0x4e0
   8959c:	97ffe780 	bl	8339c <uart_puts>
   895a0:	a94153f3 	ldp	x19, x20, [sp, #16]
   895a4:	17fffff5 	b	89578 <create_el0_task+0x168>
   895a8:	90007be0 	adrp	x0, 1005000 <hex_chars.0+0x3ff8>
   895ac:	91146000 	add	x0, x0, #0x518
   895b0:	97ffe77b 	bl	8339c <uart_puts>
   895b4:	aa1403e0 	mov	x0, x20
   895b8:	97ffe9d6 	bl	83d10 <free_page>
   895bc:	a94153f3 	ldp	x19, x20, [sp, #16]
   895c0:	17ffffee 	b	89578 <create_el0_task+0x168>
   895c4:	d0007be1 	adrp	x1, 1007000 <mmu_msg>
   895c8:	911ea021 	add	x1, x1, #0x7a8
   895cc:	91004022 	add	x2, x1, #0x10
   895d0:	f9400823 	ldr	x3, [x1, #16]
   895d4:	f9009a63 	str	x3, [x19, #304]
   895d8:	f820d853 	str	x19, [x2, w0, sxtw #3]
   895dc:	11000400 	add	w0, w0, #0x1
   895e0:	b9000820 	str	w0, [x1, #8]
   895e4:	7100041f 	cmp	w0, #0x1
   895e8:	54fffb61 	b.ne	89554 <create_el0_task+0x144>  // b.any
   895ec:	d0007be0 	adrp	x0, 1007000 <mmu_msg>
   895f0:	f903d413 	str	x19, [x0, #1960]
   895f4:	17ffffd8 	b	89554 <create_el0_task+0x144>

00000000000895f8 <start_user_task>:
   895f8:	a9bd7bfd 	stp	x29, x30, [sp, #-48]!
   895fc:	910003fd 	mov	x29, sp
   89600:	a90153f3 	stp	x19, x20, [sp, #16]
   89604:	aa0003f4 	mov	x20, x0
   89608:	90007be0 	adrp	x0, 1005000 <hex_chars.0+0x3ff8>
   8960c:	9116e000 	add	x0, x0, #0x5b8
   89610:	97ffe763 	bl	8339c <uart_puts>
   89614:	aa1403e0 	mov	x0, x20
   89618:	97ffe76c 	bl	833c8 <uart_hex64>
   8961c:	90007bc0 	adrp	x0, 1001000 <GLOBAL_UART>
   89620:	91228000 	add	x0, x0, #0x8a0
   89624:	97ffe75e 	bl	8339c <uart_puts>
   89628:	97ffe97c 	bl	83c18 <alloc_page>
   8962c:	b40006c0 	cbz	x0, 89704 <start_user_task+0x10c>
   89630:	f90013f5 	str	x21, [sp, #32]
   89634:	aa0003f3 	mov	x19, x0
   89638:	97ffe978 	bl	83c18 <alloc_page>
   8963c:	aa0003f5 	mov	x21, x0
   89640:	b40006e0 	cbz	x0, 8971c <start_user_task+0x124>
   89644:	d2802702 	mov	x2, #0x138                 	// #312
   89648:	52800001 	mov	w1, #0x0                   	// #0
   8964c:	97ffe7f7 	bl	83628 <memset>
   89650:	91400665 	add	x5, x19, #0x1, lsl #12
   89654:	927ceca5 	and	x5, x5, #0xfffffffffffffff0
   89658:	d10200a5 	sub	x5, x5, #0x80
   8965c:	d2800001 	mov	x1, #0x0                   	// #0
   89660:	910022a3 	add	x3, x21, #0x8
   89664:	d2fdc004 	mov	x4, #0xee00000000000000    	// #-1297036692682702848
   89668:	aa040022 	orr	x2, x1, x4
   8966c:	f8217862 	str	x2, [x3, x1, lsl #3]
   89670:	91000421 	add	x1, x1, #0x1
   89674:	f100403f 	cmp	x1, #0x10
   89678:	54ffff81 	b.ne	89668 <start_user_task+0x70>  // b.any
   8967c:	b2481c22 	orr	x2, x1, #0xff00000000000000
   89680:	f8217862 	str	x2, [x3, x1, lsl #3]
   89684:	91000421 	add	x1, x1, #0x1
   89688:	f1007c3f 	cmp	x1, #0x1f
   8968c:	54ffff81 	b.ne	8967c <start_user_task+0x84>  // b.any
   89690:	f90002a5 	str	x5, [x21]
   89694:	a9107eb4 	stp	x20, xzr, [x21, #256]
   89698:	90007be0 	adrp	x0, 1005000 <hex_chars.0+0x3ff8>
   8969c:	9117a000 	add	x0, x0, #0x5e8
   896a0:	97ffe73f 	bl	8339c <uart_puts>
   896a4:	f94082a0 	ldr	x0, [x21, #256]
   896a8:	97ffe748 	bl	833c8 <uart_hex64>
   896ac:	90007be0 	adrp	x0, 1005000 <hex_chars.0+0x3ff8>
   896b0:	9115e000 	add	x0, x0, #0x578
   896b4:	97ffe73a 	bl	8339c <uart_puts>
   896b8:	f94086a0 	ldr	x0, [x21, #264]
   896bc:	97ffe743 	bl	833c8 <uart_hex64>
   896c0:	90007bc0 	adrp	x0, 1001000 <GLOBAL_UART>
   896c4:	91228000 	add	x0, x0, #0x8a0
   896c8:	97ffe735 	bl	8339c <uart_puts>
   896cc:	90007be0 	adrp	x0, 1005000 <hex_chars.0+0x3ff8>
   896d0:	91186000 	add	x0, x0, #0x618
   896d4:	97ffe732 	bl	8339c <uart_puts>
   896d8:	d538c001 	mrs	x1, vbar_el1
   896dc:	f0007ba0 	adrp	x0, 1000000 <vector_table>
   896e0:	91000000 	add	x0, x0, #0x0
   896e4:	eb00003f 	cmp	x1, x0
   896e8:	54000281 	b.ne	89738 <start_user_task+0x140>  // b.any
   896ec:	aa1503e0 	mov	x0, x21
   896f0:	97fff8aa 	bl	87998 <full_restore_context>
   896f4:	90007be0 	adrp	x0, 1005000 <hex_chars.0+0x3ff8>
   896f8:	9119e000 	add	x0, x0, #0x678
   896fc:	97ffe728 	bl	8339c <uart_puts>
   89700:	14000000 	b	89700 <start_user_task+0x108>
   89704:	90007be0 	adrp	x0, 1005000 <hex_chars.0+0x3ff8>
   89708:	91138000 	add	x0, x0, #0x4e0
   8970c:	97ffe724 	bl	8339c <uart_puts>
   89710:	a94153f3 	ldp	x19, x20, [sp, #16]
   89714:	a8c37bfd 	ldp	x29, x30, [sp], #48
   89718:	d65f03c0 	ret
   8971c:	90007be0 	adrp	x0, 1005000 <hex_chars.0+0x3ff8>
   89720:	91146000 	add	x0, x0, #0x518
   89724:	97ffe71e 	bl	8339c <uart_puts>
   89728:	aa1303e0 	mov	x0, x19
   8972c:	97ffe979 	bl	83d10 <free_page>
   89730:	f94013f5 	ldr	x21, [sp, #32]
   89734:	17fffff7 	b	89710 <start_user_task+0x118>
   89738:	90007be0 	adrp	x0, 1005000 <hex_chars.0+0x3ff8>
   8973c:	9118e000 	add	x0, x0, #0x638
   89740:	97ffe717 	bl	8339c <uart_puts>
   89744:	f0007ba0 	adrp	x0, 1000000 <vector_table>
   89748:	91000000 	add	x0, x0, #0x0
   8974c:	d518c000 	msr	vbar_el1, x0
   89750:	d5033fdf 	isb
   89754:	17ffffe6 	b	896ec <start_user_task+0xf4>

0000000000089758 <print_task_info>:
   89758:	d2a12001 	mov	x1, #0x9000000             	// #150994944
   8975c:	52800462 	mov	w2, #0x23                  	// #35
   89760:	b9000022 	str	w2, [x1]
   89764:	b9411002 	ldr	w2, [x0, #272]
   89768:	1100c042 	add	w2, w2, #0x30
   8976c:	b9000022 	str	w2, [x1]
   89770:	52800742 	mov	w2, #0x3a                  	// #58
   89774:	b9000022 	str	w2, [x1]
   89778:	f9408001 	ldr	x1, [x0, #256]
   8977c:	531c7c21 	lsr	w1, w1, #28
   89780:	f100243f 	cmp	x1, #0x9
   89784:	540002a8 	b.hi	897d8 <print_task_info+0x80>  // b.pmore
   89788:	1100c021 	add	w1, w1, #0x30
   8978c:	d2a12002 	mov	x2, #0x9000000             	// #150994944
   89790:	b9000041 	str	w1, [x2]
   89794:	f9400001 	ldr	x1, [x0]
   89798:	b4000281 	cbz	x1, 897e8 <print_task_info+0x90>
   8979c:	92400c21 	and	x1, x1, #0xf
   897a0:	b50002c1 	cbnz	x1, 897f8 <print_task_info+0xa0>
   897a4:	d2a12001 	mov	x1, #0x9000000             	// #150994944
   897a8:	52800822 	mov	w2, #0x41                  	// #65
   897ac:	b9000022 	str	w2, [x1]
   897b0:	b9411400 	ldr	w0, [x0, #276]
   897b4:	7100001f 	cmp	w0, #0x0
   897b8:	52800b00 	mov	w0, #0x58                  	// #88
   897bc:	52800a41 	mov	w1, #0x52                  	// #82
   897c0:	1a811000 	csel	w0, w0, w1, ne	// ne = any
   897c4:	d2a12001 	mov	x1, #0x9000000             	// #150994944
   897c8:	b9000020 	str	w0, [x1]
   897cc:	52800400 	mov	w0, #0x20                  	// #32
   897d0:	b9000020 	str	w0, [x1]
   897d4:	d65f03c0 	ret
   897d8:	1100dc21 	add	w1, w1, #0x37
   897dc:	d2a12002 	mov	x2, #0x9000000             	// #150994944
   897e0:	b9000041 	str	w1, [x2]
   897e4:	17ffffec 	b	89794 <print_task_info+0x3c>
   897e8:	d2a12001 	mov	x1, #0x9000000             	// #150994944
   897ec:	528009c2 	mov	w2, #0x4e                  	// #78
   897f0:	b9000022 	str	w2, [x1]
   897f4:	17ffffef 	b	897b0 <print_task_info+0x58>
   897f8:	d2a12001 	mov	x1, #0x9000000             	// #150994944
   897fc:	52800aa2 	mov	w2, #0x55                  	// #85
   89800:	b9000022 	str	w2, [x1]
   89804:	17ffffeb 	b	897b0 <print_task_info+0x58>

0000000000089808 <task_alloc_page>:
   89808:	a9be7bfd 	stp	x29, x30, [sp, #-32]!
   8980c:	910003fd 	mov	x29, sp
   89810:	f9000bf3 	str	x19, [sp, #16]
   89814:	97ffe901 	bl	83c18 <alloc_page>
   89818:	aa0003f3 	mov	x19, x0
   8981c:	90007be0 	adrp	x0, 1005000 <hex_chars.0+0x3ff8>
   89820:	911ac000 	add	x0, x0, #0x6b0
   89824:	97ffe6de 	bl	8339c <uart_puts>
   89828:	aa1303e1 	mov	x1, x19
   8982c:	90007be0 	adrp	x0, 1005000 <hex_chars.0+0x3ff8>
   89830:	91034000 	add	x0, x0, #0xd0
   89834:	97ffde2a 	bl	810dc <debug_hex64>
   89838:	90007bc0 	adrp	x0, 1001000 <GLOBAL_UART>
   8983c:	91228000 	add	x0, x0, #0x8a0
   89840:	97ffe6d7 	bl	8339c <uart_puts>
   89844:	aa1303e0 	mov	x0, x19
   89848:	f9400bf3 	ldr	x19, [sp, #16]
   8984c:	a8c27bfd 	ldp	x29, x30, [sp], #32
   89850:	d65f03c0 	ret

0000000000089854 <init_task_scheduler>:
   89854:	a9bf7bfd 	stp	x29, x30, [sp, #-16]!
   89858:	910003fd 	mov	x29, sp
   8985c:	97fffe96 	bl	892b4 <init_tasks>
   89860:	a8c17bfd 	ldp	x29, x30, [sp], #16
   89864:	d65f03c0 	ret

0000000000089868 <pick_next_task>:
   89868:	d0007be0 	adrp	x0, 1007000 <mmu_msg>
   8986c:	b947b005 	ldr	w5, [x0, #1968]
   89870:	710000bf 	cmp	w5, #0x0
   89874:	540002ad 	b.le	898c8 <pick_next_task+0x60>
   89878:	d0007be0 	adrp	x0, 1007000 <mmu_msg>
   8987c:	f943d403 	ldr	x3, [x0, #1960]
   89880:	93407ca4 	sxtw	x4, w5
   89884:	d2800000 	mov	x0, #0x0                   	// #0
   89888:	d0007be2 	adrp	x2, 1007000 <mmu_msg>
   8988c:	911ee042 	add	x2, x2, #0x7b8
   89890:	f8607841 	ldr	x1, [x2, x0, lsl #3]
   89894:	eb03003f 	cmp	x1, x3
   89898:	540000a0 	b.eq	898ac <pick_next_task+0x44>  // b.none
   8989c:	91000400 	add	x0, x0, #0x1
   898a0:	eb04001f 	cmp	x0, x4
   898a4:	54ffff61 	b.ne	89890 <pick_next_task+0x28>  // b.any
   898a8:	52800000 	mov	w0, #0x0                   	// #0
   898ac:	11000400 	add	w0, w0, #0x1
   898b0:	1ac50c01 	sdiv	w1, w0, w5
   898b4:	1b058021 	msub	w1, w1, w5, w0
   898b8:	d0007be0 	adrp	x0, 1007000 <mmu_msg>
   898bc:	911ee000 	add	x0, x0, #0x7b8
   898c0:	f861d800 	ldr	x0, [x0, w1, sxtw #3]
   898c4:	d65f03c0 	ret
   898c8:	d2800000 	mov	x0, #0x0                   	// #0
   898cc:	17fffffe 	b	898c4 <pick_next_task+0x5c>

00000000000898d0 <schedule>:
   898d0:	a9bf7bfd 	stp	x29, x30, [sp, #-16]!
   898d4:	910003fd 	mov	x29, sp
   898d8:	97ffffe4 	bl	89868 <pick_next_task>
   898dc:	b4000160 	cbz	x0, 89908 <schedule+0x38>
   898e0:	d0007be1 	adrp	x1, 1007000 <mmu_msg>
   898e4:	f943d421 	ldr	x1, [x1, #1960]
   898e8:	b4000061 	cbz	x1, 898f4 <schedule+0x24>
   898ec:	52800022 	mov	w2, #0x1                   	// #1
   898f0:	b9011422 	str	w2, [x1, #276]
   898f4:	52800041 	mov	w1, #0x2                   	// #2
   898f8:	b9011401 	str	w1, [x0, #276]
   898fc:	d0007be1 	adrp	x1, 1007000 <mmu_msg>
   89900:	f903d420 	str	x0, [x1, #1960]
   89904:	97fff825 	bl	87998 <full_restore_context>
   89908:	a8c17bfd 	ldp	x29, x30, [sp], #16
   8990c:	d65f03c0 	ret

0000000000089910 <yield>:
   89910:	a9bf7bfd 	stp	x29, x30, [sp, #-16]!
   89914:	910003fd 	mov	x29, sp
   89918:	90007be0 	adrp	x0, 1005000 <hex_chars.0+0x3ff8>
   8991c:	911b4000 	add	x0, x0, #0x6d0
   89920:	97ffddda 	bl	81088 <debug_print>
   89924:	97ffffeb 	bl	898d0 <schedule>
   89928:	a8c17bfd 	ldp	x29, x30, [sp], #16
   8992c:	d65f03c0 	ret

0000000000089930 <task_a_test>:
   89930:	a9bb7bfd 	stp	x29, x30, [sp, #-80]!
   89934:	910003fd 	mov	x29, sp
   89938:	a90153f3 	stp	x19, x20, [sp, #16]
   8993c:	a9025bf5 	stp	x21, x22, [sp, #32]
   89940:	f9001bf7 	str	x23, [sp, #48]
   89944:	d0007bf4 	adrp	x20, 1007000 <mmu_msg>
   89948:	91201294 	add	x20, x20, #0x804
   8994c:	5290d3f3 	mov	w19, #0x869f                	// #34463
   89950:	72a00033 	movk	w19, #0x1, lsl #16
   89954:	52800837 	mov	w23, #0x41                  	// #65
   89958:	528cccf6 	mov	w22, #0x6667                	// #26215
   8995c:	72acccd6 	movk	w22, #0x6666, lsl #16
   89960:	52800155 	mov	w21, #0xa                   	// #10
   89964:	b9400280 	ldr	w0, [x20]
   89968:	11000400 	add	w0, w0, #0x1
   8996c:	b9000280 	str	w0, [x20]
   89970:	2a1703e0 	mov	w0, w23
   89974:	97ffe680 	bl	83374 <uart_putc>
   89978:	b9004fff 	str	wzr, [sp, #76]
   8997c:	b9404fe0 	ldr	w0, [sp, #76]
   89980:	6b13001f 	cmp	w0, w19
   89984:	540000ec 	b.gt	899a0 <task_a_test+0x70>
   89988:	b9404fe0 	ldr	w0, [sp, #76]
   8998c:	11000400 	add	w0, w0, #0x1
   89990:	b9004fe0 	str	w0, [sp, #76]
   89994:	b9404fe0 	ldr	w0, [sp, #76]
   89998:	6b13001f 	cmp	w0, w19
   8999c:	54ffff6d 	b.le	89988 <task_a_test+0x58>
   899a0:	b9400281 	ldr	w1, [x20]
   899a4:	9b367c20 	smull	x0, w1, w22
   899a8:	9362fc00 	asr	x0, x0, #34
   899ac:	4b817c00 	sub	w0, w0, w1, asr #31
   899b0:	1b158400 	msub	w0, w0, w21, w1
   899b4:	35fffd80 	cbnz	w0, 89964 <task_a_test+0x34>
   899b8:	90007be0 	adrp	x0, 1005000 <hex_chars.0+0x3ff8>
   899bc:	911b8000 	add	x0, x0, #0x6e0
   899c0:	97ffe677 	bl	8339c <uart_puts>
   899c4:	b9400280 	ldr	w0, [x20]
   899c8:	93407c00 	sxtw	x0, w0
   899cc:	97ffe688 	bl	833ec <uart_puthex>
   899d0:	17ffffe1 	b	89954 <task_a_test+0x24>

00000000000899d4 <task_b_test>:
   899d4:	a9bb7bfd 	stp	x29, x30, [sp, #-80]!
   899d8:	910003fd 	mov	x29, sp
   899dc:	a90153f3 	stp	x19, x20, [sp, #16]
   899e0:	a9025bf5 	stp	x21, x22, [sp, #32]
   899e4:	f9001bf7 	str	x23, [sp, #48]
   899e8:	d0007bf4 	adrp	x20, 1007000 <mmu_msg>
   899ec:	91201294 	add	x20, x20, #0x804
   899f0:	5290d3f3 	mov	w19, #0x869f                	// #34463
   899f4:	72a00033 	movk	w19, #0x1, lsl #16
   899f8:	52800857 	mov	w23, #0x42                  	// #66
   899fc:	528cccf6 	mov	w22, #0x6667                	// #26215
   89a00:	72acccd6 	movk	w22, #0x6666, lsl #16
   89a04:	52800155 	mov	w21, #0xa                   	// #10
   89a08:	b9400680 	ldr	w0, [x20, #4]
   89a0c:	11000400 	add	w0, w0, #0x1
   89a10:	b9000680 	str	w0, [x20, #4]
   89a14:	2a1703e0 	mov	w0, w23
   89a18:	97ffe657 	bl	83374 <uart_putc>
   89a1c:	b9004fff 	str	wzr, [sp, #76]
   89a20:	b9404fe0 	ldr	w0, [sp, #76]
   89a24:	6b13001f 	cmp	w0, w19
   89a28:	540000ec 	b.gt	89a44 <task_b_test+0x70>
   89a2c:	b9404fe0 	ldr	w0, [sp, #76]
   89a30:	11000400 	add	w0, w0, #0x1
   89a34:	b9004fe0 	str	w0, [sp, #76]
   89a38:	b9404fe0 	ldr	w0, [sp, #76]
   89a3c:	6b13001f 	cmp	w0, w19
   89a40:	54ffff6d 	b.le	89a2c <task_b_test+0x58>
   89a44:	b9400681 	ldr	w1, [x20, #4]
   89a48:	9b367c20 	smull	x0, w1, w22
   89a4c:	9362fc00 	asr	x0, x0, #34
   89a50:	4b817c00 	sub	w0, w0, w1, asr #31
   89a54:	1b158400 	msub	w0, w0, w21, w1
   89a58:	35fffd80 	cbnz	w0, 89a08 <task_b_test+0x34>
   89a5c:	90007be0 	adrp	x0, 1005000 <hex_chars.0+0x3ff8>
   89a60:	911ba000 	add	x0, x0, #0x6e8
   89a64:	97ffe64e 	bl	8339c <uart_puts>
   89a68:	b9400680 	ldr	w0, [x20, #4]
   89a6c:	93407c00 	sxtw	x0, w0
   89a70:	97ffe65f 	bl	833ec <uart_puthex>
   89a74:	17ffffe1 	b	899f8 <task_b_test+0x24>

0000000000089a78 <task_c_test>:
   89a78:	a9bb7bfd 	stp	x29, x30, [sp, #-80]!
   89a7c:	910003fd 	mov	x29, sp
   89a80:	a90153f3 	stp	x19, x20, [sp, #16]
   89a84:	a9025bf5 	stp	x21, x22, [sp, #32]
   89a88:	f9001bf7 	str	x23, [sp, #48]
   89a8c:	d0007bf4 	adrp	x20, 1007000 <mmu_msg>
   89a90:	91201294 	add	x20, x20, #0x804
   89a94:	5290d3f3 	mov	w19, #0x869f                	// #34463
   89a98:	72a00033 	movk	w19, #0x1, lsl #16
   89a9c:	52800877 	mov	w23, #0x43                  	// #67
   89aa0:	528cccf6 	mov	w22, #0x6667                	// #26215
   89aa4:	72acccd6 	movk	w22, #0x6666, lsl #16
   89aa8:	52800155 	mov	w21, #0xa                   	// #10
   89aac:	b9400a80 	ldr	w0, [x20, #8]
   89ab0:	11000400 	add	w0, w0, #0x1
   89ab4:	b9000a80 	str	w0, [x20, #8]
   89ab8:	2a1703e0 	mov	w0, w23
   89abc:	97ffe62e 	bl	83374 <uart_putc>
   89ac0:	b9004fff 	str	wzr, [sp, #76]
   89ac4:	b9404fe0 	ldr	w0, [sp, #76]
   89ac8:	6b13001f 	cmp	w0, w19
   89acc:	540000ec 	b.gt	89ae8 <task_c_test+0x70>
   89ad0:	b9404fe0 	ldr	w0, [sp, #76]
   89ad4:	11000400 	add	w0, w0, #0x1
   89ad8:	b9004fe0 	str	w0, [sp, #76]
   89adc:	b9404fe0 	ldr	w0, [sp, #76]
   89ae0:	6b13001f 	cmp	w0, w19
   89ae4:	54ffff6d 	b.le	89ad0 <task_c_test+0x58>
   89ae8:	b9400a81 	ldr	w1, [x20, #8]
   89aec:	9b367c20 	smull	x0, w1, w22
   89af0:	9362fc00 	asr	x0, x0, #34
   89af4:	4b817c00 	sub	w0, w0, w1, asr #31
   89af8:	1b158400 	msub	w0, w0, w21, w1
   89afc:	35fffd80 	cbnz	w0, 89aac <task_c_test+0x34>
   89b00:	90007be0 	adrp	x0, 1005000 <hex_chars.0+0x3ff8>
   89b04:	911bc000 	add	x0, x0, #0x6f0
   89b08:	97ffe625 	bl	8339c <uart_puts>
   89b0c:	b9400a80 	ldr	w0, [x20, #8]
   89b10:	93407c00 	sxtw	x0, w0
   89b14:	97ffe636 	bl	833ec <uart_puthex>
   89b18:	17ffffe1 	b	89a9c <task_c_test+0x24>

0000000000089b1c <task_d_test>:
   89b1c:	a9bb7bfd 	stp	x29, x30, [sp, #-80]!
   89b20:	910003fd 	mov	x29, sp
   89b24:	a90153f3 	stp	x19, x20, [sp, #16]
   89b28:	a9025bf5 	stp	x21, x22, [sp, #32]
   89b2c:	f9001bf7 	str	x23, [sp, #48]
   89b30:	d0007bf4 	adrp	x20, 1007000 <mmu_msg>
   89b34:	91201294 	add	x20, x20, #0x804
   89b38:	5290d3f3 	mov	w19, #0x869f                	// #34463
   89b3c:	72a00033 	movk	w19, #0x1, lsl #16
   89b40:	52800897 	mov	w23, #0x44                  	// #68
   89b44:	528cccf6 	mov	w22, #0x6667                	// #26215
   89b48:	72acccd6 	movk	w22, #0x6666, lsl #16
   89b4c:	52800155 	mov	w21, #0xa                   	// #10
   89b50:	b9400e80 	ldr	w0, [x20, #12]
   89b54:	11000400 	add	w0, w0, #0x1
   89b58:	b9000e80 	str	w0, [x20, #12]
   89b5c:	2a1703e0 	mov	w0, w23
   89b60:	97ffe605 	bl	83374 <uart_putc>
   89b64:	b9004fff 	str	wzr, [sp, #76]
   89b68:	b9404fe0 	ldr	w0, [sp, #76]
   89b6c:	6b13001f 	cmp	w0, w19
   89b70:	540000ec 	b.gt	89b8c <task_d_test+0x70>
   89b74:	b9404fe0 	ldr	w0, [sp, #76]
   89b78:	11000400 	add	w0, w0, #0x1
   89b7c:	b9004fe0 	str	w0, [sp, #76]
   89b80:	b9404fe0 	ldr	w0, [sp, #76]
   89b84:	6b13001f 	cmp	w0, w19
   89b88:	54ffff6d 	b.le	89b74 <task_d_test+0x58>
   89b8c:	b9400e81 	ldr	w1, [x20, #12]
   89b90:	9b367c20 	smull	x0, w1, w22
   89b94:	9362fc00 	asr	x0, x0, #34
   89b98:	4b817c00 	sub	w0, w0, w1, asr #31
   89b9c:	1b158400 	msub	w0, w0, w21, w1
   89ba0:	35fffd80 	cbnz	w0, 89b50 <task_d_test+0x34>
   89ba4:	90007be0 	adrp	x0, 1005000 <hex_chars.0+0x3ff8>
   89ba8:	911be000 	add	x0, x0, #0x6f8
   89bac:	97ffe5fc 	bl	8339c <uart_puts>
   89bb0:	b9400e80 	ldr	w0, [x20, #12]
   89bb4:	93407c00 	sxtw	x0, w0
   89bb8:	97ffe60d 	bl	833ec <uart_puthex>
   89bbc:	17ffffe1 	b	89b40 <task_d_test+0x24>

0000000000089bc0 <timer_handler>:
   89bc0:	a9bf7bfd 	stp	x29, x30, [sp, #-16]!
   89bc4:	910003fd 	mov	x29, sp
   89bc8:	528005c0 	mov	w0, #0x2e                  	// #46
   89bcc:	97ffe5ea 	bl	83374 <uart_putc>
   89bd0:	d0007be0 	adrp	x0, 1007000 <mmu_msg>
   89bd4:	f943d400 	ldr	x0, [x0, #1960]
   89bd8:	b4000040 	cbz	x0, 89be0 <timer_handler+0x20>
   89bdc:	97fff735 	bl	878b0 <save_context>
   89be0:	97ffff3c 	bl	898d0 <schedule>
   89be4:	a8c17bfd 	ldp	x29, x30, [sp], #16
   89be8:	d65f03c0 	ret

0000000000089bec <print_current_el>:
   89bec:	a9be7bfd 	stp	x29, x30, [sp, #-32]!
   89bf0:	910003fd 	mov	x29, sp
   89bf4:	f9000bf3 	str	x19, [sp, #16]
   89bf8:	d5384253 	mrs	x19, currentel
   89bfc:	d342fe73 	lsr	x19, x19, #2
   89c00:	90007be0 	adrp	x0, 1005000 <hex_chars.0+0x3ff8>
   89c04:	911c0000 	add	x0, x0, #0x700
   89c08:	97ffe5e5 	bl	8339c <uart_puts>
   89c0c:	92400660 	and	x0, x19, #0x3
   89c10:	97ffe5f7 	bl	833ec <uart_puthex>
   89c14:	90007bc0 	adrp	x0, 1001000 <GLOBAL_UART>
   89c18:	91228000 	add	x0, x0, #0x8a0
   89c1c:	97ffe5e0 	bl	8339c <uart_puts>
   89c20:	f9400bf3 	ldr	x19, [sp, #16]
   89c24:	a8c27bfd 	ldp	x29, x30, [sp], #32
   89c28:	d65f03c0 	ret

0000000000089c2c <sync_el0_handler>:
   89c2c:	a9bc7bfd 	stp	x29, x30, [sp, #-64]!
   89c30:	910003fd 	mov	x29, sp
   89c34:	a90153f3 	stp	x19, x20, [sp, #16]
   89c38:	a9025bf5 	stp	x21, x22, [sp, #32]
   89c3c:	90007be0 	adrp	x0, 1005000 <hex_chars.0+0x3ff8>
   89c40:	911c6000 	add	x0, x0, #0x718
   89c44:	97ffe5d6 	bl	8339c <uart_puts>
   89c48:	d5384253 	mrs	x19, currentel
   89c4c:	d342fe73 	lsr	x19, x19, #2
   89c50:	90007be0 	adrp	x0, 1005000 <hex_chars.0+0x3ff8>
   89c54:	911d4000 	add	x0, x0, #0x750
   89c58:	97ffe5d1 	bl	8339c <uart_puts>
   89c5c:	92400660 	and	x0, x19, #0x3
   89c60:	97ffe5e3 	bl	833ec <uart_puthex>
   89c64:	90007bd3 	adrp	x19, 1001000 <GLOBAL_UART>
   89c68:	91228273 	add	x19, x19, #0x8a0
   89c6c:	aa1303e0 	mov	x0, x19
   89c70:	97ffe5cb 	bl	8339c <uart_puts>
   89c74:	97ffffde 	bl	89bec <print_current_el>
   89c78:	d5385214 	mrs	x20, esr_el1
   89c7c:	531a7e95 	lsr	w21, w20, #26
   89c80:	90007be0 	adrp	x0, 1005000 <hex_chars.0+0x3ff8>
   89c84:	911da000 	add	x0, x0, #0x768
   89c88:	97ffe5c5 	bl	8339c <uart_puts>
   89c8c:	2a1503f6 	mov	w22, w21
   89c90:	aa1603e0 	mov	x0, x22
   89c94:	97ffe5d6 	bl	833ec <uart_puthex>
   89c98:	aa1303e0 	mov	x0, x19
   89c9c:	97ffe5c0 	bl	8339c <uart_puts>
   89ca0:	710056bf 	cmp	w21, #0x15
   89ca4:	540001a0 	b.eq	89cd8 <sync_el0_handler+0xac>  // b.none
   89ca8:	90007be0 	adrp	x0, 1005000 <hex_chars.0+0x3ff8>
   89cac:	9121a000 	add	x0, x0, #0x868
   89cb0:	97ffe5bb 	bl	8339c <uart_puts>
   89cb4:	aa1603e0 	mov	x0, x22
   89cb8:	97ffe5cd 	bl	833ec <uart_puthex>
   89cbc:	90007bc0 	adrp	x0, 1001000 <GLOBAL_UART>
   89cc0:	91228000 	add	x0, x0, #0x8a0
   89cc4:	97ffe5b6 	bl	8339c <uart_puts>
   89cc8:	90007be0 	adrp	x0, 1005000 <hex_chars.0+0x3ff8>
   89ccc:	91224000 	add	x0, x0, #0x890
   89cd0:	97ffe5b3 	bl	8339c <uart_puts>
   89cd4:	14000000 	b	89cd4 <sync_el0_handler+0xa8>
   89cd8:	90007be0 	adrp	x0, 1005000 <hex_chars.0+0x3ff8>
   89cdc:	911e2000 	add	x0, x0, #0x788
   89ce0:	97ffe5af 	bl	8339c <uart_puts>
   89ce4:	92403e94 	and	x20, x20, #0xffff
   89ce8:	aa1403e0 	mov	x0, x20
   89cec:	97ffe5c0 	bl	833ec <uart_puthex>
   89cf0:	90007be0 	adrp	x0, 1005000 <hex_chars.0+0x3ff8>
   89cf4:	911e6000 	add	x0, x0, #0x798
   89cf8:	97ffe5a9 	bl	8339c <uart_puts>
   89cfc:	d5384020 	mrs	x0, elr_el1
   89d00:	91001000 	add	x0, x0, #0x4
   89d04:	d5184020 	msr	elr_el1, x0
   89d08:	d5384115 	mrs	x21, sp_el0
   89d0c:	90007be0 	adrp	x0, 1005000 <hex_chars.0+0x3ff8>
   89d10:	911ec000 	add	x0, x0, #0x7b0
   89d14:	97ffe5a2 	bl	8339c <uart_puts>
   89d18:	aa1503e0 	mov	x0, x21
   89d1c:	97ffe5b4 	bl	833ec <uart_puthex>
   89d20:	90007bd3 	adrp	x19, 1001000 <GLOBAL_UART>
   89d24:	91228273 	add	x19, x19, #0x8a0
   89d28:	aa1303e0 	mov	x0, x19
   89d2c:	97ffe59c 	bl	8339c <uart_puts>
   89d30:	f9001ff5 	str	x21, [sp, #56]
   89d34:	90007be0 	adrp	x0, 1005000 <hex_chars.0+0x3ff8>
   89d38:	911f4000 	add	x0, x0, #0x7d0
   89d3c:	97ffe598 	bl	8339c <uart_puts>
   89d40:	aa1403e0 	mov	x0, x20
   89d44:	97ffe5aa 	bl	833ec <uart_puthex>
   89d48:	aa1303e0 	mov	x0, x19
   89d4c:	97ffe594 	bl	8339c <uart_puts>
   89d50:	9100e3e1 	add	x1, sp, #0x38
   89d54:	aa1403e0 	mov	x0, x20
   89d58:	94000123 	bl	8a1e4 <syscall_dispatch>
   89d5c:	90007be0 	adrp	x0, 1005000 <hex_chars.0+0x3ff8>
   89d60:	91200000 	add	x0, x0, #0x800
   89d64:	97ffe58e 	bl	8339c <uart_puts>
   89d68:	90007be0 	adrp	x0, 1005000 <hex_chars.0+0x3ff8>
   89d6c:	91208000 	add	x0, x0, #0x820
   89d70:	97ffe58b 	bl	8339c <uart_puts>
   89d74:	17ffffd5 	b	89cc8 <sync_el0_handler+0x9c>

0000000000089d78 <sync_el1_handler>:
   89d78:	a9bc7bfd 	stp	x29, x30, [sp, #-64]!
   89d7c:	910003fd 	mov	x29, sp
   89d80:	a90153f3 	stp	x19, x20, [sp, #16]
   89d84:	f90013f5 	str	x21, [sp, #32]
   89d88:	90007be0 	adrp	x0, 1005000 <hex_chars.0+0x3ff8>
   89d8c:	9122e000 	add	x0, x0, #0x8b8
   89d90:	97ffe583 	bl	8339c <uart_puts>
   89d94:	97ffff96 	bl	89bec <print_current_el>
   89d98:	d5385213 	mrs	x19, esr_el1
   89d9c:	531a7e74 	lsr	w20, w19, #26
   89da0:	90007be0 	adrp	x0, 1005000 <hex_chars.0+0x3ff8>
   89da4:	911da000 	add	x0, x0, #0x768
   89da8:	97ffe57d 	bl	8339c <uart_puts>
   89dac:	2a1403f5 	mov	w21, w20
   89db0:	aa1503e0 	mov	x0, x21
   89db4:	97ffe58e 	bl	833ec <uart_puthex>
   89db8:	90007bc0 	adrp	x0, 1001000 <GLOBAL_UART>
   89dbc:	91228000 	add	x0, x0, #0x8a0
   89dc0:	97ffe577 	bl	8339c <uart_puts>
   89dc4:	7100569f 	cmp	w20, #0x15
   89dc8:	540001a0 	b.eq	89dfc <sync_el1_handler+0x84>  // b.none
   89dcc:	90007be0 	adrp	x0, 1005000 <hex_chars.0+0x3ff8>
   89dd0:	9124e000 	add	x0, x0, #0x938
   89dd4:	97ffe572 	bl	8339c <uart_puts>
   89dd8:	aa1503e0 	mov	x0, x21
   89ddc:	97ffe584 	bl	833ec <uart_puthex>
   89de0:	90007bc0 	adrp	x0, 1001000 <GLOBAL_UART>
   89de4:	91228000 	add	x0, x0, #0x8a0
   89de8:	97ffe56d 	bl	8339c <uart_puts>
   89dec:	90007be0 	adrp	x0, 1005000 <hex_chars.0+0x3ff8>
   89df0:	91224000 	add	x0, x0, #0x890
   89df4:	97ffe56a 	bl	8339c <uart_puts>
   89df8:	14000000 	b	89df8 <sync_el1_handler+0x80>
   89dfc:	90007be0 	adrp	x0, 1005000 <hex_chars.0+0x3ff8>
   89e00:	911e2000 	add	x0, x0, #0x788
   89e04:	97ffe566 	bl	8339c <uart_puts>
   89e08:	92403e73 	and	x19, x19, #0xffff
   89e0c:	aa1303e0 	mov	x0, x19
   89e10:	97ffe577 	bl	833ec <uart_puthex>
   89e14:	90007be0 	adrp	x0, 1005000 <hex_chars.0+0x3ff8>
   89e18:	9123c000 	add	x0, x0, #0x8f0
   89e1c:	97ffe560 	bl	8339c <uart_puts>
   89e20:	d5384034 	mrs	x20, elr_el1
   89e24:	90007be0 	adrp	x0, 1005000 <hex_chars.0+0x3ff8>
   89e28:	91242000 	add	x0, x0, #0x908
   89e2c:	97ffe55c 	bl	8339c <uart_puts>
   89e30:	aa1403e0 	mov	x0, x20
   89e34:	97ffe565 	bl	833c8 <uart_hex64>
   89e38:	90007bd4 	adrp	x20, 1001000 <GLOBAL_UART>
   89e3c:	91228294 	add	x20, x20, #0x8a0
   89e40:	aa1403e0 	mov	x0, x20
   89e44:	97ffe556 	bl	8339c <uart_puts>
   89e48:	aa0003f5 	mov	x21, x0
   89e4c:	90007be0 	adrp	x0, 1005000 <hex_chars.0+0x3ff8>
   89e50:	91248000 	add	x0, x0, #0x920
   89e54:	97ffe552 	bl	8339c <uart_puts>
   89e58:	aa1503e0 	mov	x0, x21
   89e5c:	97ffe55b 	bl	833c8 <uart_hex64>
   89e60:	aa1403e0 	mov	x0, x20
   89e64:	97ffe54e 	bl	8339c <uart_puts>
   89e68:	f9001ff5 	str	x21, [sp, #56]
   89e6c:	9100e3e1 	add	x1, sp, #0x38
   89e70:	aa1303e0 	mov	x0, x19
   89e74:	940000dc 	bl	8a1e4 <syscall_dispatch>
   89e78:	d5384020 	mrs	x0, elr_el1
   89e7c:	91001000 	add	x0, x0, #0x4
   89e80:	d5184020 	msr	elr_el1, x0
   89e84:	d69f03e0 	eret
   89e88:	a94153f3 	ldp	x19, x20, [sp, #16]
   89e8c:	f94013f5 	ldr	x21, [sp, #32]
   89e90:	a8c47bfd 	ldp	x29, x30, [sp], #64
   89e94:	d65f03c0 	ret

0000000000089e98 <irq_el0_handler>:
   89e98:	a9bf7bfd 	stp	x29, x30, [sp, #-16]!
   89e9c:	910003fd 	mov	x29, sp
   89ea0:	90007be0 	adrp	x0, 1005000 <hex_chars.0+0x3ff8>
   89ea4:	9125c000 	add	x0, x0, #0x970
   89ea8:	97ffe53d 	bl	8339c <uart_puts>
   89eac:	14000000 	b	89eac <irq_el0_handler+0x14>

0000000000089eb0 <fiq_el0_handler>:
   89eb0:	a9bf7bfd 	stp	x29, x30, [sp, #-16]!
   89eb4:	910003fd 	mov	x29, sp
   89eb8:	90007be0 	adrp	x0, 1005000 <hex_chars.0+0x3ff8>
   89ebc:	91262000 	add	x0, x0, #0x988
   89ec0:	97ffe537 	bl	8339c <uart_puts>
   89ec4:	14000000 	b	89ec4 <fiq_el0_handler+0x14>

0000000000089ec8 <serror_el0_handler>:
   89ec8:	a9bf7bfd 	stp	x29, x30, [sp, #-16]!
   89ecc:	910003fd 	mov	x29, sp
   89ed0:	90007be0 	adrp	x0, 1005000 <hex_chars.0+0x3ff8>
   89ed4:	91268000 	add	x0, x0, #0x9a0
   89ed8:	97ffe531 	bl	8339c <uart_puts>
   89edc:	14000000 	b	89edc <serror_el0_handler+0x14>

0000000000089ee0 <irq_el1_handler>:
   89ee0:	a9bf7bfd 	stp	x29, x30, [sp, #-16]!
   89ee4:	910003fd 	mov	x29, sp
   89ee8:	90007be0 	adrp	x0, 1005000 <hex_chars.0+0x3ff8>
   89eec:	9126e000 	add	x0, x0, #0x9b8
   89ef0:	97ffe52b 	bl	8339c <uart_puts>
   89ef4:	14000000 	b	89ef4 <irq_el1_handler+0x14>

0000000000089ef8 <fiq_el1_handler>:
   89ef8:	a9bf7bfd 	stp	x29, x30, [sp, #-16]!
   89efc:	910003fd 	mov	x29, sp
   89f00:	90007be0 	adrp	x0, 1005000 <hex_chars.0+0x3ff8>
   89f04:	91274000 	add	x0, x0, #0x9d0
   89f08:	97ffe525 	bl	8339c <uart_puts>
   89f0c:	14000000 	b	89f0c <fiq_el1_handler+0x14>

0000000000089f10 <serror_el1_handler>:
   89f10:	a9bf7bfd 	stp	x29, x30, [sp, #-16]!
   89f14:	910003fd 	mov	x29, sp
   89f18:	90007be0 	adrp	x0, 1005000 <hex_chars.0+0x3ff8>
   89f1c:	9127a000 	add	x0, x0, #0x9e8
   89f20:	97ffe51f 	bl	8339c <uart_puts>
   89f24:	14000000 	b	89f24 <serror_el1_handler+0x14>
	...

0000000000089f30 <user_test_svc>:
   89f30:	58000dc2 	ldr	x2, 8a0e8 <hang_message+0x35>
   89f34:	52800aa3 	mov	w3, #0x55                  	// #85
   89f38:	b9000043 	str	w3, [x2]
   89f3c:	52800823 	mov	w3, #0x41                  	// #65
   89f40:	b9000043 	str	w3, [x2]
   89f44:	52800a43 	mov	w3, #0x52                  	// #82
   89f48:	b9000043 	str	w3, [x2]
   89f4c:	52800a83 	mov	w3, #0x54                  	// #84
   89f50:	b9000043 	str	w3, [x2]
   89f54:	52800743 	mov	w3, #0x3a                  	// #58
   89f58:	b9000043 	str	w3, [x2]
   89f5c:	52800143 	mov	w3, #0xa                   	// #10
   89f60:	b9000043 	str	w3, [x2]
   89f64:	10000361 	adr	x1, 89fd0 <banner_message>
   89f68:	94000012 	bl	89fb0 <print_string_user>
   89f6c:	500004c1 	adr	x1, 8a006 <hello_message>
   89f70:	94000010 	bl	89fb0 <print_string_user>
   89f74:	d4000001 	svc	#0x0
   89f78:	30000581 	adr	x1, 8a029 <write_message>
   89f7c:	9400000d 	bl	89fb0 <print_string_user>
   89f80:	d2824680 	mov	x0, #0x1234                	// #4660
   89f84:	d4000021 	svc	#0x1
   89f88:	100006a1 	adr	x1, 8a05c <yield_message>
   89f8c:	94000009 	bl	89fb0 <print_string_user>
   89f90:	d4000061 	svc	#0x3
   89f94:	70000741 	adr	x1, 8a07f <exit_message>
   89f98:	94000006 	bl	89fb0 <print_string_user>
   89f9c:	d2800540 	mov	x0, #0x2a                  	// #42
   89fa0:	d4000041 	svc	#0x2
   89fa4:	70000861 	adr	x1, 8a0b3 <hang_message>
   89fa8:	94000002 	bl	89fb0 <print_string_user>

0000000000089fac <hang>:
   89fac:	14000000 	b	89fac <hang>

0000000000089fb0 <print_string_user>:
   89fb0:	580009c2 	ldr	x2, 8a0e8 <hang_message+0x35>
   89fb4:	38401423 	ldrb	w3, [x1], #1
   89fb8:	34000063 	cbz	w3, 89fc4 <print_string_user+0x14>
   89fbc:	b9000043 	str	w3, [x2]
   89fc0:	17fffffd 	b	89fb4 <print_string_user+0x4>
   89fc4:	d65f03c0 	ret
   89fc8:	d503201f 	nop
   89fcc:	d503201f 	nop

0000000000089fd0 <banner_message>:
   89fd0:	53555b0a 	.word	0x53555b0a
   89fd4:	205d5245 	.word	0x205d5245
   89fd8:	20304c45 	.word	0x20304c45
   89fdc:	74736574 	.word	0x74736574
   89fe0:	6f727020 	.word	0x6f727020
   89fe4:	6d617267 	.word	0x6d617267
   89fe8:	61747320 	.word	0x61747320
   89fec:	6e697472 	.word	0x6e697472
   89ff0:	202d2067 	.word	0x202d2067
   89ff4:	74736554 	.word	0x74736554
   89ff8:	20676e69 	.word	0x20676e69
   89ffc:	63737973 	.word	0x63737973
   8a000:	736c6c61 	.word	0x736c6c61
   8a004:	000a      	.short	0x000a

000000000008a006 <hello_message>:
   8a006:	555b      	.short	0x555b
   8a008:	5d524553 	.word	0x5d524553
   8a00c:	6c614320 	.word	0x6c614320
   8a010:	676e696c 	.word	0x676e696c
   8a014:	73797320 	.word	0x73797320
   8a018:	6c65685f 	.word	0x6c65685f
   8a01c:	28206f6c 	.word	0x28206f6c
   8a020:	20435653 	.word	0x20435653
   8a024:	0a293023 	.word	0x0a293023
	...

000000000008a029 <write_message>:
   8a029:	5b          	.byte	0x5b
   8a02a:	5355      	.short	0x5355
   8a02c:	205d5245 	.word	0x205d5245
   8a030:	6c6c6143 	.word	0x6c6c6143
   8a034:	20676e69 	.word	0x20676e69
   8a038:	5f737973 	.word	0x5f737973
   8a03c:	74697277 	.word	0x74697277
   8a040:	53282065 	.word	0x53282065
   8a044:	23204356 	.word	0x23204356
   8a048:	77202931 	.word	0x77202931
   8a04c:	20687469 	.word	0x20687469
   8a050:	3d677261 	.word	0x3d677261
   8a054:	32317830 	.word	0x32317830
   8a058:	000a3433 	.word	0x000a3433

000000000008a05c <yield_message>:
   8a05c:	4553555b 	.word	0x4553555b
   8a060:	43205d52 	.word	0x43205d52
   8a064:	696c6c61 	.word	0x696c6c61
   8a068:	7320676e 	.word	0x7320676e
   8a06c:	795f7379 	.word	0x795f7379
   8a070:	646c6569 	.word	0x646c6569
   8a074:	56532820 	.word	0x56532820
   8a078:	33232043 	.word	0x33232043
   8a07c:	0a29      	.short	0x0a29
	...

000000000008a07f <exit_message>:
   8a07f:	5b          	.byte	0x5b
   8a080:	52455355 	.word	0x52455355
   8a084:	6143205d 	.word	0x6143205d
   8a088:	6e696c6c 	.word	0x6e696c6c
   8a08c:	79732067 	.word	0x79732067
   8a090:	78655f73 	.word	0x78655f73
   8a094:	28207469 	.word	0x28207469
   8a098:	20435653 	.word	0x20435653
   8a09c:	20293223 	.word	0x20293223
   8a0a0:	68746977 	.word	0x68746977
   8a0a4:	69786520 	.word	0x69786520
   8a0a8:	6f635f74 	.word	0x6f635f74
   8a0ac:	343d6564 	.word	0x343d6564
   8a0b0:	0a32      	.short	0x0a32
	...

000000000008a0b3 <hang_message>:
   8a0b3:	5b          	.byte	0x5b
   8a0b4:	52455355 	.word	0x52455355
   8a0b8:	6552205d 	.word	0x6552205d
   8a0bc:	6e727574 	.word	0x6e727574
   8a0c0:	66206465 	.word	0x66206465
   8a0c4:	206d6f72 	.word	0x206d6f72
   8a0c8:	63737973 	.word	0x63737973
   8a0cc:	736c6c61 	.word	0x736c6c61
   8a0d0:	68732820 	.word	0x68732820
   8a0d4:	646c756f 	.word	0x646c756f
   8a0d8:	2074276e 	.word	0x2074276e
   8a0dc:	70706168 	.word	0x70706168
   8a0e0:	21296e65 	.word	0x21296e65
   8a0e4:	000a      	.short	0x000a
   8a0e6:	00000000 	udf	#0
   8a0ea:	0900      	.short	0x0900
   8a0ec:	00000000 	.word	0x00000000

000000000008a0f0 <syscall_debug_marker>:
   8a0f0:	a9bf7bfd 	stp	x29, x30, [sp, #-16]!
   8a0f4:	910003fd 	mov	x29, sp
   8a0f8:	f0007bc0 	adrp	x0, 1005000 <hex_chars.0+0x3ff8>
   8a0fc:	91280000 	add	x0, x0, #0xa00
   8a100:	97ffe4a7 	bl	8339c <uart_puts>
   8a104:	f0007bc0 	adrp	x0, 1005000 <hex_chars.0+0x3ff8>
   8a108:	91286000 	add	x0, x0, #0xa18
   8a10c:	97ffe4a4 	bl	8339c <uart_puts>
   8a110:	f0007bc0 	adrp	x0, 1005000 <hex_chars.0+0x3ff8>
   8a114:	9128c000 	add	x0, x0, #0xa30
   8a118:	97ffe4a1 	bl	8339c <uart_puts>
   8a11c:	a8c17bfd 	ldp	x29, x30, [sp], #16
   8a120:	d65f03c0 	ret

000000000008a124 <sys_hello>:
   8a124:	a9bf7bfd 	stp	x29, x30, [sp, #-16]!
   8a128:	910003fd 	mov	x29, sp
   8a12c:	97fffff1 	bl	8a0f0 <syscall_debug_marker>
   8a130:	f0007bc0 	adrp	x0, 1005000 <hex_chars.0+0x3ff8>
   8a134:	91292000 	add	x0, x0, #0xa48
   8a138:	97ffe499 	bl	8339c <uart_puts>
   8a13c:	a8c17bfd 	ldp	x29, x30, [sp], #16
   8a140:	d65f03c0 	ret

000000000008a144 <sys_write>:
   8a144:	a9be7bfd 	stp	x29, x30, [sp, #-32]!
   8a148:	910003fd 	mov	x29, sp
   8a14c:	f9000bf3 	str	x19, [sp, #16]
   8a150:	aa0003f3 	mov	x19, x0
   8a154:	97ffffe7 	bl	8a0f0 <syscall_debug_marker>
   8a158:	f0007bc0 	adrp	x0, 1005000 <hex_chars.0+0x3ff8>
   8a15c:	9129c000 	add	x0, x0, #0xa70
   8a160:	97ffe48f 	bl	8339c <uart_puts>
   8a164:	aa1303e0 	mov	x0, x19
   8a168:	97ffe498 	bl	833c8 <uart_hex64>
   8a16c:	f0007ba0 	adrp	x0, 1001000 <GLOBAL_UART>
   8a170:	91228000 	add	x0, x0, #0x8a0
   8a174:	97ffe48a 	bl	8339c <uart_puts>
   8a178:	f9400bf3 	ldr	x19, [sp, #16]
   8a17c:	a8c27bfd 	ldp	x29, x30, [sp], #32
   8a180:	d65f03c0 	ret

000000000008a184 <sys_exit>:
   8a184:	a9be7bfd 	stp	x29, x30, [sp, #-32]!
   8a188:	910003fd 	mov	x29, sp
   8a18c:	f9000bf3 	str	x19, [sp, #16]
   8a190:	aa0003f3 	mov	x19, x0
   8a194:	97ffffd7 	bl	8a0f0 <syscall_debug_marker>
   8a198:	f0007bc0 	adrp	x0, 1005000 <hex_chars.0+0x3ff8>
   8a19c:	912a6000 	add	x0, x0, #0xa98
   8a1a0:	97ffe47f 	bl	8339c <uart_puts>
   8a1a4:	aa1303e0 	mov	x0, x19
   8a1a8:	97ffe488 	bl	833c8 <uart_hex64>
   8a1ac:	f0007ba0 	adrp	x0, 1001000 <GLOBAL_UART>
   8a1b0:	91228000 	add	x0, x0, #0x8a0
   8a1b4:	97ffe47a 	bl	8339c <uart_puts>
   8a1b8:	f9400bf3 	ldr	x19, [sp, #16]
   8a1bc:	a8c27bfd 	ldp	x29, x30, [sp], #32
   8a1c0:	d65f03c0 	ret

000000000008a1c4 <sys_yield>:
   8a1c4:	a9bf7bfd 	stp	x29, x30, [sp, #-16]!
   8a1c8:	910003fd 	mov	x29, sp
   8a1cc:	97ffffc9 	bl	8a0f0 <syscall_debug_marker>
   8a1d0:	f0007bc0 	adrp	x0, 1005000 <hex_chars.0+0x3ff8>
   8a1d4:	912b0000 	add	x0, x0, #0xac0
   8a1d8:	97ffe471 	bl	8339c <uart_puts>
   8a1dc:	a8c17bfd 	ldp	x29, x30, [sp], #16
   8a1e0:	d65f03c0 	ret

000000000008a1e4 <syscall_dispatch>:
   8a1e4:	a9be7bfd 	stp	x29, x30, [sp, #-32]!
   8a1e8:	910003fd 	mov	x29, sp
   8a1ec:	a90153f3 	stp	x19, x20, [sp, #16]
   8a1f0:	aa0003f3 	mov	x19, x0
   8a1f4:	aa0103f4 	mov	x20, x1
   8a1f8:	f0007bc0 	adrp	x0, 1005000 <hex_chars.0+0x3ff8>
   8a1fc:	912be000 	add	x0, x0, #0xaf8
   8a200:	97ffe467 	bl	8339c <uart_puts>
   8a204:	aa1303e0 	mov	x0, x19
   8a208:	97ffe470 	bl	833c8 <uart_hex64>
   8a20c:	f0007ba0 	adrp	x0, 1001000 <GLOBAL_UART>
   8a210:	91228000 	add	x0, x0, #0x8a0
   8a214:	97ffe462 	bl	8339c <uart_puts>
   8a218:	f1000a7f 	cmp	x19, #0x2
   8a21c:	54000320 	b.eq	8a280 <syscall_dispatch+0x9c>  // b.none
   8a220:	54000148 	b.hi	8a248 <syscall_dispatch+0x64>  // b.pmore
   8a224:	b4000213 	cbz	x19, 8a264 <syscall_dispatch+0x80>
   8a228:	f0007bc0 	adrp	x0, 1005000 <hex_chars.0+0x3ff8>
   8a22c:	912d2000 	add	x0, x0, #0xb48
   8a230:	97ffe45b 	bl	8339c <uart_puts>
   8a234:	d2800000 	mov	x0, #0x0                   	// #0
   8a238:	b4000054 	cbz	x20, 8a240 <syscall_dispatch+0x5c>
   8a23c:	f9400280 	ldr	x0, [x20]
   8a240:	97ffffc1 	bl	8a144 <sys_write>
   8a244:	1400000c 	b	8a274 <syscall_dispatch+0x90>
   8a248:	f1000e7f 	cmp	x19, #0x3
   8a24c:	540002a1 	b.ne	8a2a0 <syscall_dispatch+0xbc>  // b.any
   8a250:	f0007bc0 	adrp	x0, 1005000 <hex_chars.0+0x3ff8>
   8a254:	912e4000 	add	x0, x0, #0xb90
   8a258:	97ffe451 	bl	8339c <uart_puts>
   8a25c:	97ffffda 	bl	8a1c4 <sys_yield>
   8a260:	14000005 	b	8a274 <syscall_dispatch+0x90>
   8a264:	f0007bc0 	adrp	x0, 1005000 <hex_chars.0+0x3ff8>
   8a268:	912c8000 	add	x0, x0, #0xb20
   8a26c:	97ffe44c 	bl	8339c <uart_puts>
   8a270:	97ffffad 	bl	8a124 <sys_hello>
   8a274:	a94153f3 	ldp	x19, x20, [sp, #16]
   8a278:	a8c27bfd 	ldp	x29, x30, [sp], #32
   8a27c:	d65f03c0 	ret
   8a280:	f0007bc0 	adrp	x0, 1005000 <hex_chars.0+0x3ff8>
   8a284:	912dc000 	add	x0, x0, #0xb70
   8a288:	97ffe445 	bl	8339c <uart_puts>
   8a28c:	d2800000 	mov	x0, #0x0                   	// #0
   8a290:	b4000054 	cbz	x20, 8a298 <syscall_dispatch+0xb4>
   8a294:	f9400280 	ldr	x0, [x20]
   8a298:	97ffffbb 	bl	8a184 <sys_exit>
   8a29c:	17fffff6 	b	8a274 <syscall_dispatch+0x90>
   8a2a0:	f0007bc0 	adrp	x0, 1005000 <hex_chars.0+0x3ff8>
   8a2a4:	912ee000 	add	x0, x0, #0xbb8
   8a2a8:	97ffe43d 	bl	8339c <uart_puts>
   8a2ac:	aa1303e0 	mov	x0, x19
   8a2b0:	97ffe446 	bl	833c8 <uart_hex64>
   8a2b4:	f0007ba0 	adrp	x0, 1001000 <GLOBAL_UART>
   8a2b8:	91228000 	add	x0, x0, #0x8a0
   8a2bc:	97ffe438 	bl	8339c <uart_puts>
   8a2c0:	17ffffed 	b	8a274 <syscall_dispatch+0x90>

000000000008a2c4 <user_task_entry>:
   8a2c4:	a9bf7bfd 	stp	x29, x30, [sp, #-16]!
   8a2c8:	910003fd 	mov	x29, sp
   8a2cc:	f0007bc0 	adrp	x0, 1005000 <hex_chars.0+0x3ff8>
   8a2d0:	912f8000 	add	x0, x0, #0xbe0
   8a2d4:	97ffe432 	bl	8339c <uart_puts>
   8a2d8:	d2800000 	mov	x0, #0x0                   	// #0
   8a2dc:	d4000001 	svc	#0x0
   8a2e0:	d2824680 	mov	x0, #0x1234                	// #4660
   8a2e4:	d4000021 	svc	#0x1
   8a2e8:	d4000061 	svc	#0x3
   8a2ec:	d2800540 	mov	x0, #0x2a                  	// #42
   8a2f0:	d4000041 	svc	#0x2
   8a2f4:	14000000 	b	8a2f4 <user_task_entry+0x30>

Disassembly of section .text.rest:

000000000008b000 <mmu_continuation_point>:
   8b000:	a9be7bfd 	stp	x29, x30, [sp, #-32]!
   8b004:	910003fd 	mov	x29, sp
   8b008:	a90153f3 	stp	x19, x20, [sp, #16]
   8b00c:	d2a12001 	mov	x1, #0x9000000             	// #150994944
   8b010:	52800860 	mov	w0, #0x43                  	// #67
   8b014:	b9000020 	str	w0, [x1]
   8b018:	528009e0 	mov	w0, #0x4f                  	// #79
   8b01c:	b9000020 	str	w0, [x1]
   8b020:	528009c0 	mov	w0, #0x4e                  	// #78
   8b024:	b9000020 	str	w0, [x1]
   8b028:	52800a80 	mov	w0, #0x54                  	// #84
   8b02c:	b9000020 	str	w0, [x1]
   8b030:	52800740 	mov	w0, #0x3a                  	// #58
   8b034:	b9000020 	str	w0, [x1]
   8b038:	d5384253 	mrs	x19, currentel
   8b03c:	d3420e73 	ubfx	x19, x19, #2, #2
   8b040:	1100c260 	add	w0, w19, #0x30
   8b044:	b9000020 	str	w0, [x1]
   8b048:	d5381014 	mrs	x20, sctlr_el1
   8b04c:	36000874 	tbz	w20, #0, 8b158 <mmu_continuation_point+0x158>
   8b050:	aa0103e0 	mov	x0, x1
   8b054:	528009a1 	mov	w1, #0x4d                  	// #77
   8b058:	b9000001 	str	w1, [x0]
   8b05c:	52800561 	mov	w1, #0x2b                  	// #43
   8b060:	b9000001 	str	w1, [x0]
   8b064:	d2a12000 	mov	x0, #0x9000000             	// #150994944
   8b068:	52800ac1 	mov	w1, #0x56                  	// #86
   8b06c:	b9000001 	str	w1, [x0]
   8b070:	52800741 	mov	w1, #0x3a                  	// #58
   8b074:	b9000001 	str	w1, [x0]
   8b078:	d2a12001 	mov	x1, #0x9000000             	// #150994944
   8b07c:	f2ffffe1 	movk	x1, #0xffff, lsl #48
   8b080:	52800a80 	mov	w0, #0x54                  	// #84
   8b084:	b9000020 	str	w0, [x1]
   8b088:	528008a2 	mov	w2, #0x45                  	// #69
   8b08c:	b9000022 	str	w2, [x1]
   8b090:	52800a62 	mov	w2, #0x53                  	// #83
   8b094:	b9000022 	str	w2, [x1]
   8b098:	b9000020 	str	w0, [x1]
   8b09c:	528009e0 	mov	w0, #0x4f                  	// #79
   8b0a0:	b9000020 	str	w0, [x1]
   8b0a4:	52800960 	mov	w0, #0x4b                  	// #75
   8b0a8:	b9000020 	str	w0, [x1]
   8b0ac:	528001a0 	mov	w0, #0xd                   	// #13
   8b0b0:	b9000020 	str	w0, [x1]
   8b0b4:	52800140 	mov	w0, #0xa                   	// #10
   8b0b8:	b9000020 	str	w0, [x1]
   8b0bc:	f0007ba2 	adrp	x2, 1002000 <hex_chars.0+0xff8>
   8b0c0:	912fe042 	add	x2, x2, #0xbf8
   8b0c4:	52800b61 	mov	w1, #0x5b                  	// #91
   8b0c8:	d2a12003 	mov	x3, #0x9000000             	// #150994944
   8b0cc:	f2ffffe3 	movk	x3, #0xffff, lsl #48
   8b0d0:	b9000061 	str	w1, [x3]
   8b0d4:	38401c41 	ldrb	w1, [x2, #1]!
   8b0d8:	35ffffc1 	cbnz	w1, 8b0d0 <mmu_continuation_point+0xd0>
   8b0dc:	d2a12000 	mov	x0, #0x9000000             	// #150994944
   8b0e0:	f2ffffe0 	movk	x0, #0xffff, lsl #48
   8b0e4:	97ffe146 	bl	835fc <uart_set_base>
   8b0e8:	f0007ba0 	adrp	x0, 1002000 <hex_chars.0+0xff8>
   8b0ec:	9130a000 	add	x0, x0, #0xc28
   8b0f0:	97ffe0ab 	bl	8339c <uart_puts>
   8b0f4:	f0007ba0 	adrp	x0, 1002000 <hex_chars.0+0xff8>
   8b0f8:	91316000 	add	x0, x0, #0xc58
   8b0fc:	97ffe0a8 	bl	8339c <uart_puts>
   8b100:	f0007ba0 	adrp	x0, 1002000 <hex_chars.0+0xff8>
   8b104:	91324000 	add	x0, x0, #0xc90
   8b108:	97ffe0a5 	bl	8339c <uart_puts>
   8b10c:	1100c260 	add	w0, w19, #0x30
   8b110:	97ffe099 	bl	83374 <uart_putc>
   8b114:	d0007bb3 	adrp	x19, 1001000 <GLOBAL_UART>
   8b118:	91228273 	add	x19, x19, #0x8a0
   8b11c:	aa1303e0 	mov	x0, x19
   8b120:	97ffe09f 	bl	8339c <uart_puts>
   8b124:	f0007ba0 	adrp	x0, 1002000 <hex_chars.0+0xff8>
   8b128:	9132c000 	add	x0, x0, #0xcb0
   8b12c:	97ffe09c 	bl	8339c <uart_puts>
   8b130:	aa1403e0 	mov	x0, x20
   8b134:	97ffe0a5 	bl	833c8 <uart_hex64>
   8b138:	aa1303e0 	mov	x0, x19
   8b13c:	97ffe098 	bl	8339c <uart_puts>
   8b140:	f0007ba0 	adrp	x0, 1002000 <hex_chars.0+0xff8>
   8b144:	91332000 	add	x0, x0, #0xcc8
   8b148:	97ffe095 	bl	8339c <uart_puts>
   8b14c:	a94153f3 	ldp	x19, x20, [sp, #16]
   8b150:	a8c27bfd 	ldp	x29, x30, [sp], #32
   8b154:	d65f03c0 	ret
   8b158:	d2a12000 	mov	x0, #0x9000000             	// #150994944
   8b15c:	528009a1 	mov	w1, #0x4d                  	// #77
   8b160:	b9000001 	str	w1, [x0]
   8b164:	528005a1 	mov	w1, #0x2d                  	// #45
   8b168:	b9000001 	str	w1, [x0]
   8b16c:	17ffffbe 	b	8b064 <mmu_continuation_point+0x64>

Disassembly of section .vector_table:

0000000001000000 <vector_table>:
 1000000:	140002a0 	b	1000a80 <sync_handler>
 1000004:	d503201f 	nop
 1000008:	d503201f 	nop
 100000c:	d503201f 	nop
 1000010:	d503201f 	nop
 1000014:	d503201f 	nop
 1000018:	d503201f 	nop
 100001c:	d503201f 	nop
 1000020:	d503201f 	nop
 1000024:	d503201f 	nop
 1000028:	d503201f 	nop
 100002c:	d503201f 	nop
 1000030:	d503201f 	nop
 1000034:	d503201f 	nop
 1000038:	d503201f 	nop
 100003c:	d503201f 	nop
 1000040:	d503201f 	nop
 1000044:	d503201f 	nop
 1000048:	d503201f 	nop
 100004c:	d503201f 	nop
 1000050:	d503201f 	nop
 1000054:	d503201f 	nop
 1000058:	d503201f 	nop
 100005c:	d503201f 	nop
 1000060:	d503201f 	nop
 1000064:	d503201f 	nop
 1000068:	d503201f 	nop
 100006c:	d503201f 	nop
 1000070:	d503201f 	nop
 1000074:	d503201f 	nop
 1000078:	d503201f 	nop
 100007c:	d503201f 	nop
 1000080:	17c2203c 	b	88170 <irq_handler>
 1000084:	d503201f 	nop
 1000088:	d503201f 	nop
 100008c:	d503201f 	nop
 1000090:	d503201f 	nop
 1000094:	d503201f 	nop
 1000098:	d503201f 	nop
 100009c:	d503201f 	nop
 10000a0:	d503201f 	nop
 10000a4:	d503201f 	nop
 10000a8:	d503201f 	nop
 10000ac:	d503201f 	nop
 10000b0:	d503201f 	nop
 10000b4:	d503201f 	nop
 10000b8:	d503201f 	nop
 10000bc:	d503201f 	nop
 10000c0:	d503201f 	nop
 10000c4:	d503201f 	nop
 10000c8:	d503201f 	nop
 10000cc:	d503201f 	nop
 10000d0:	d503201f 	nop
 10000d4:	d503201f 	nop
 10000d8:	d503201f 	nop
 10000dc:	d503201f 	nop
 10000e0:	d503201f 	nop
 10000e4:	d503201f 	nop
 10000e8:	d503201f 	nop
 10000ec:	d503201f 	nop
 10000f0:	d503201f 	nop
 10000f4:	d503201f 	nop
 10000f8:	d503201f 	nop
 10000fc:	d503201f 	nop
 1000100:	14000216 	b	1000958 <fiq_debug_handler>
 1000104:	d503201f 	nop
 1000108:	d503201f 	nop
 100010c:	d503201f 	nop
 1000110:	d503201f 	nop
 1000114:	d503201f 	nop
 1000118:	d503201f 	nop
 100011c:	d503201f 	nop
 1000120:	d503201f 	nop
 1000124:	d503201f 	nop
 1000128:	d503201f 	nop
 100012c:	d503201f 	nop
 1000130:	d503201f 	nop
 1000134:	d503201f 	nop
 1000138:	d503201f 	nop
 100013c:	d503201f 	nop
 1000140:	d503201f 	nop
 1000144:	d503201f 	nop
 1000148:	d503201f 	nop
 100014c:	d503201f 	nop
 1000150:	d503201f 	nop
 1000154:	d503201f 	nop
 1000158:	d503201f 	nop
 100015c:	d503201f 	nop
 1000160:	d503201f 	nop
 1000164:	d503201f 	nop
 1000168:	d503201f 	nop
 100016c:	d503201f 	nop
 1000170:	d503201f 	nop
 1000174:	d503201f 	nop
 1000178:	d503201f 	nop
 100017c:	d503201f 	nop
 1000180:	17c220ed 	b	88534 <serror_debug_handler>
 1000184:	d503201f 	nop
 1000188:	d503201f 	nop
 100018c:	d503201f 	nop
 1000190:	d503201f 	nop
 1000194:	d503201f 	nop
 1000198:	d503201f 	nop
 100019c:	d503201f 	nop
 10001a0:	d503201f 	nop
 10001a4:	d503201f 	nop
 10001a8:	d503201f 	nop
 10001ac:	d503201f 	nop
 10001b0:	d503201f 	nop
 10001b4:	d503201f 	nop
 10001b8:	d503201f 	nop
 10001bc:	d503201f 	nop
 10001c0:	d503201f 	nop
 10001c4:	d503201f 	nop
 10001c8:	d503201f 	nop
 10001cc:	d503201f 	nop
 10001d0:	d503201f 	nop
 10001d4:	d503201f 	nop
 10001d8:	d503201f 	nop
 10001dc:	d503201f 	nop
 10001e0:	d503201f 	nop
 10001e4:	d503201f 	nop
 10001e8:	d503201f 	nop
 10001ec:	d503201f 	nop
 10001f0:	d503201f 	nop
 10001f4:	d503201f 	nop
 10001f8:	d503201f 	nop
 10001fc:	d503201f 	nop
 1000200:	14000161 	b	1000784 <sync_debug_handler>
 1000204:	d503201f 	nop
 1000208:	d503201f 	nop
 100020c:	d503201f 	nop
 1000210:	d503201f 	nop
 1000214:	d503201f 	nop
 1000218:	d503201f 	nop
 100021c:	d503201f 	nop
 1000220:	d503201f 	nop
 1000224:	d503201f 	nop
 1000228:	d503201f 	nop
 100022c:	d503201f 	nop
 1000230:	d503201f 	nop
 1000234:	d503201f 	nop
 1000238:	d503201f 	nop
 100023c:	d503201f 	nop
 1000240:	d503201f 	nop
 1000244:	d503201f 	nop
 1000248:	d503201f 	nop
 100024c:	d503201f 	nop
 1000250:	d503201f 	nop
 1000254:	d503201f 	nop
 1000258:	d503201f 	nop
 100025c:	d503201f 	nop
 1000260:	d503201f 	nop
 1000264:	d503201f 	nop
 1000268:	d503201f 	nop
 100026c:	d503201f 	nop
 1000270:	d503201f 	nop
 1000274:	d503201f 	nop
 1000278:	d503201f 	nop
 100027c:	d503201f 	nop
 1000280:	140001aa 	b	1000928 <irq_debug_handler>
 1000284:	d503201f 	nop
 1000288:	d503201f 	nop
 100028c:	d503201f 	nop
 1000290:	d503201f 	nop
 1000294:	d503201f 	nop
 1000298:	d503201f 	nop
 100029c:	d503201f 	nop
 10002a0:	d503201f 	nop
 10002a4:	d503201f 	nop
 10002a8:	d503201f 	nop
 10002ac:	d503201f 	nop
 10002b0:	d503201f 	nop
 10002b4:	d503201f 	nop
 10002b8:	d503201f 	nop
 10002bc:	d503201f 	nop
 10002c0:	d503201f 	nop
 10002c4:	d503201f 	nop
 10002c8:	d503201f 	nop
 10002cc:	d503201f 	nop
 10002d0:	d503201f 	nop
 10002d4:	d503201f 	nop
 10002d8:	d503201f 	nop
 10002dc:	d503201f 	nop
 10002e0:	d503201f 	nop
 10002e4:	d503201f 	nop
 10002e8:	d503201f 	nop
 10002ec:	d503201f 	nop
 10002f0:	d503201f 	nop
 10002f4:	d503201f 	nop
 10002f8:	d503201f 	nop
 10002fc:	d503201f 	nop
 1000300:	14000196 	b	1000958 <fiq_debug_handler>
 1000304:	d503201f 	nop
 1000308:	d503201f 	nop
 100030c:	d503201f 	nop
 1000310:	d503201f 	nop
 1000314:	d503201f 	nop
 1000318:	d503201f 	nop
 100031c:	d503201f 	nop
 1000320:	d503201f 	nop
 1000324:	d503201f 	nop
 1000328:	d503201f 	nop
 100032c:	d503201f 	nop
 1000330:	d503201f 	nop
 1000334:	d503201f 	nop
 1000338:	d503201f 	nop
 100033c:	d503201f 	nop
 1000340:	d503201f 	nop
 1000344:	d503201f 	nop
 1000348:	d503201f 	nop
 100034c:	d503201f 	nop
 1000350:	d503201f 	nop
 1000354:	d503201f 	nop
 1000358:	d503201f 	nop
 100035c:	d503201f 	nop
 1000360:	d503201f 	nop
 1000364:	d503201f 	nop
 1000368:	d503201f 	nop
 100036c:	d503201f 	nop
 1000370:	d503201f 	nop
 1000374:	d503201f 	nop
 1000378:	d503201f 	nop
 100037c:	d503201f 	nop
 1000380:	17c2206d 	b	88534 <serror_debug_handler>
 1000384:	d503201f 	nop
 1000388:	d503201f 	nop
 100038c:	d503201f 	nop
 1000390:	d503201f 	nop
 1000394:	d503201f 	nop
 1000398:	d503201f 	nop
 100039c:	d503201f 	nop
 10003a0:	d503201f 	nop
 10003a4:	d503201f 	nop
 10003a8:	d503201f 	nop
 10003ac:	d503201f 	nop
 10003b0:	d503201f 	nop
 10003b4:	d503201f 	nop
 10003b8:	d503201f 	nop
 10003bc:	d503201f 	nop
 10003c0:	d503201f 	nop
 10003c4:	d503201f 	nop
 10003c8:	d503201f 	nop
 10003cc:	d503201f 	nop
 10003d0:	d503201f 	nop
 10003d4:	d503201f 	nop
 10003d8:	d503201f 	nop
 10003dc:	d503201f 	nop
 10003e0:	d503201f 	nop
 10003e4:	d503201f 	nop
 10003e8:	d503201f 	nop
 10003ec:	d503201f 	nop
 10003f0:	d503201f 	nop
 10003f4:	d503201f 	nop
 10003f8:	d503201f 	nop
 10003fc:	d503201f 	nop
 1000400:	17c2260b 	b	89c2c <sync_el0_handler>
 1000404:	d503201f 	nop
 1000408:	d503201f 	nop
 100040c:	d503201f 	nop
 1000410:	d503201f 	nop
 1000414:	d503201f 	nop
 1000418:	d503201f 	nop
 100041c:	d503201f 	nop
 1000420:	d503201f 	nop
 1000424:	d503201f 	nop
 1000428:	d503201f 	nop
 100042c:	d503201f 	nop
 1000430:	d503201f 	nop
 1000434:	d503201f 	nop
 1000438:	d503201f 	nop
 100043c:	d503201f 	nop
 1000440:	d503201f 	nop
 1000444:	d503201f 	nop
 1000448:	d503201f 	nop
 100044c:	d503201f 	nop
 1000450:	d503201f 	nop
 1000454:	d503201f 	nop
 1000458:	d503201f 	nop
 100045c:	d503201f 	nop
 1000460:	d503201f 	nop
 1000464:	d503201f 	nop
 1000468:	d503201f 	nop
 100046c:	d503201f 	nop
 1000470:	d503201f 	nop
 1000474:	d503201f 	nop
 1000478:	d503201f 	nop
 100047c:	d503201f 	nop
 1000480:	17c22686 	b	89e98 <irq_el0_handler>
 1000484:	d503201f 	nop
 1000488:	d503201f 	nop
 100048c:	d503201f 	nop
 1000490:	d503201f 	nop
 1000494:	d503201f 	nop
 1000498:	d503201f 	nop
 100049c:	d503201f 	nop
 10004a0:	d503201f 	nop
 10004a4:	d503201f 	nop
 10004a8:	d503201f 	nop
 10004ac:	d503201f 	nop
 10004b0:	d503201f 	nop
 10004b4:	d503201f 	nop
 10004b8:	d503201f 	nop
 10004bc:	d503201f 	nop
 10004c0:	d503201f 	nop
 10004c4:	d503201f 	nop
 10004c8:	d503201f 	nop
 10004cc:	d503201f 	nop
 10004d0:	d503201f 	nop
 10004d4:	d503201f 	nop
 10004d8:	d503201f 	nop
 10004dc:	d503201f 	nop
 10004e0:	d503201f 	nop
 10004e4:	d503201f 	nop
 10004e8:	d503201f 	nop
 10004ec:	d503201f 	nop
 10004f0:	d503201f 	nop
 10004f4:	d503201f 	nop
 10004f8:	d503201f 	nop
 10004fc:	d503201f 	nop
 1000500:	17c2266c 	b	89eb0 <fiq_el0_handler>
 1000504:	d503201f 	nop
 1000508:	d503201f 	nop
 100050c:	d503201f 	nop
 1000510:	d503201f 	nop
 1000514:	d503201f 	nop
 1000518:	d503201f 	nop
 100051c:	d503201f 	nop
 1000520:	d503201f 	nop
 1000524:	d503201f 	nop
 1000528:	d503201f 	nop
 100052c:	d503201f 	nop
 1000530:	d503201f 	nop
 1000534:	d503201f 	nop
 1000538:	d503201f 	nop
 100053c:	d503201f 	nop
 1000540:	d503201f 	nop
 1000544:	d503201f 	nop
 1000548:	d503201f 	nop
 100054c:	d503201f 	nop
 1000550:	d503201f 	nop
 1000554:	d503201f 	nop
 1000558:	d503201f 	nop
 100055c:	d503201f 	nop
 1000560:	d503201f 	nop
 1000564:	d503201f 	nop
 1000568:	d503201f 	nop
 100056c:	d503201f 	nop
 1000570:	d503201f 	nop
 1000574:	d503201f 	nop
 1000578:	d503201f 	nop
 100057c:	d503201f 	nop
 1000580:	17c22652 	b	89ec8 <serror_el0_handler>
 1000584:	d503201f 	nop
 1000588:	d503201f 	nop
 100058c:	d503201f 	nop
 1000590:	d503201f 	nop
 1000594:	d503201f 	nop
 1000598:	d503201f 	nop
 100059c:	d503201f 	nop
 10005a0:	d503201f 	nop
 10005a4:	d503201f 	nop
 10005a8:	d503201f 	nop
 10005ac:	d503201f 	nop
 10005b0:	d503201f 	nop
 10005b4:	d503201f 	nop
 10005b8:	d503201f 	nop
 10005bc:	d503201f 	nop
 10005c0:	d503201f 	nop
 10005c4:	d503201f 	nop
 10005c8:	d503201f 	nop
 10005cc:	d503201f 	nop
 10005d0:	d503201f 	nop
 10005d4:	d503201f 	nop
 10005d8:	d503201f 	nop
 10005dc:	d503201f 	nop
 10005e0:	d503201f 	nop
 10005e4:	d503201f 	nop
 10005e8:	d503201f 	nop
 10005ec:	d503201f 	nop
 10005f0:	d503201f 	nop
 10005f4:	d503201f 	nop
 10005f8:	d503201f 	nop
 10005fc:	d503201f 	nop
 1000600:	17c2258b 	b	89c2c <sync_el0_handler>
 1000604:	d503201f 	nop
 1000608:	d503201f 	nop
 100060c:	d503201f 	nop
 1000610:	d503201f 	nop
 1000614:	d503201f 	nop
 1000618:	d503201f 	nop
 100061c:	d503201f 	nop
 1000620:	d503201f 	nop
 1000624:	d503201f 	nop
 1000628:	d503201f 	nop
 100062c:	d503201f 	nop
 1000630:	d503201f 	nop
 1000634:	d503201f 	nop
 1000638:	d503201f 	nop
 100063c:	d503201f 	nop
 1000640:	d503201f 	nop
 1000644:	d503201f 	nop
 1000648:	d503201f 	nop
 100064c:	d503201f 	nop
 1000650:	d503201f 	nop
 1000654:	d503201f 	nop
 1000658:	d503201f 	nop
 100065c:	d503201f 	nop
 1000660:	d503201f 	nop
 1000664:	d503201f 	nop
 1000668:	d503201f 	nop
 100066c:	d503201f 	nop
 1000670:	d503201f 	nop
 1000674:	d503201f 	nop
 1000678:	d503201f 	nop
 100067c:	d503201f 	nop
 1000680:	17c22606 	b	89e98 <irq_el0_handler>
 1000684:	d503201f 	nop
 1000688:	d503201f 	nop
 100068c:	d503201f 	nop
 1000690:	d503201f 	nop
 1000694:	d503201f 	nop
 1000698:	d503201f 	nop
 100069c:	d503201f 	nop
 10006a0:	d503201f 	nop
 10006a4:	d503201f 	nop
 10006a8:	d503201f 	nop
 10006ac:	d503201f 	nop
 10006b0:	d503201f 	nop
 10006b4:	d503201f 	nop
 10006b8:	d503201f 	nop
 10006bc:	d503201f 	nop
 10006c0:	d503201f 	nop
 10006c4:	d503201f 	nop
 10006c8:	d503201f 	nop
 10006cc:	d503201f 	nop
 10006d0:	d503201f 	nop
 10006d4:	d503201f 	nop
 10006d8:	d503201f 	nop
 10006dc:	d503201f 	nop
 10006e0:	d503201f 	nop
 10006e4:	d503201f 	nop
 10006e8:	d503201f 	nop
 10006ec:	d503201f 	nop
 10006f0:	d503201f 	nop
 10006f4:	d503201f 	nop
 10006f8:	d503201f 	nop
 10006fc:	d503201f 	nop
 1000700:	17c225ec 	b	89eb0 <fiq_el0_handler>
 1000704:	d503201f 	nop
 1000708:	d503201f 	nop
 100070c:	d503201f 	nop
 1000710:	d503201f 	nop
 1000714:	d503201f 	nop
 1000718:	d503201f 	nop
 100071c:	d503201f 	nop
 1000720:	d503201f 	nop
 1000724:	d503201f 	nop
 1000728:	d503201f 	nop
 100072c:	d503201f 	nop
 1000730:	d503201f 	nop
 1000734:	d503201f 	nop
 1000738:	d503201f 	nop
 100073c:	d503201f 	nop
 1000740:	d503201f 	nop
 1000744:	d503201f 	nop
 1000748:	d503201f 	nop
 100074c:	d503201f 	nop
 1000750:	d503201f 	nop
 1000754:	d503201f 	nop
 1000758:	d503201f 	nop
 100075c:	d503201f 	nop
 1000760:	d503201f 	nop
 1000764:	d503201f 	nop
 1000768:	d503201f 	nop
 100076c:	d503201f 	nop
 1000770:	d503201f 	nop
 1000774:	d503201f 	nop
 1000778:	d503201f 	nop
 100077c:	d503201f 	nop
 1000780:	17c225d2 	b	89ec8 <serror_el0_handler>

0000000001000784 <sync_debug_handler>:
 1000784:	d2800420 	mov	x0, #0x21                  	// #33
 1000788:	58002741 	ldr	x1, 1000c70 <check_fix_stack_alignment+0x70>
 100078c:	b9000020 	str	w0, [x1]
 1000790:	d2800a60 	mov	x0, #0x53                  	// #83
 1000794:	b9000020 	str	w0, [x1]
 1000798:	d2800b20 	mov	x0, #0x59                  	// #89
 100079c:	b9000020 	str	w0, [x1]
 10007a0:	d28009c0 	mov	x0, #0x4e                  	// #78
 10007a4:	b9000020 	str	w0, [x1]
 10007a8:	d2800860 	mov	x0, #0x43                  	// #67
 10007ac:	b9000020 	str	w0, [x1]
 10007b0:	d2800420 	mov	x0, #0x21                  	// #33
 10007b4:	b9000020 	str	w0, [x1]
 10007b8:	580025c1 	ldr	x1, 1000c70 <check_fix_stack_alignment+0x70>
 10007bc:	d5384022 	mrs	x2, elr_el1
 10007c0:	d35cfc42 	lsr	x2, x2, #28
 10007c4:	92400c42 	and	x2, x2, #0xf
 10007c8:	f100285f 	cmp	x2, #0xa
 10007cc:	5400006b 	b.lt	10007d8 <sync_debug_handler+0x54>  // b.tstop
 10007d0:	9100dc42 	add	x2, x2, #0x37
 10007d4:	14000002 	b	10007dc <sync_debug_handler+0x58>
 10007d8:	9100c042 	add	x2, x2, #0x30
 10007dc:	b9000022 	str	w2, [x1]
 10007e0:	d2800740 	mov	x0, #0x3a                  	// #58
 10007e4:	b9000020 	str	w0, [x1]
 10007e8:	d28008a0 	mov	x0, #0x45                  	// #69
 10007ec:	b9000020 	str	w0, [x1]
 10007f0:	d2800860 	mov	x0, #0x43                  	// #67
 10007f4:	b9000020 	str	w0, [x1]
 10007f8:	d28007a0 	mov	x0, #0x3d                  	// #61
 10007fc:	b9000020 	str	w0, [x1]
 1000800:	d5385202 	mrs	x2, esr_el1
 1000804:	d35afc42 	lsr	x2, x2, #26
 1000808:	92401442 	and	x2, x2, #0x3f
 100080c:	f100285f 	cmp	x2, #0xa
 1000810:	5400006b 	b.lt	100081c <sync_debug_handler+0x98>  // b.tstop
 1000814:	9100dc42 	add	x2, x2, #0x37
 1000818:	14000002 	b	1000820 <sync_debug_handler+0x9c>
 100081c:	9100c042 	add	x2, x2, #0x30
 1000820:	b9000022 	str	w2, [x1]
 1000824:	d2800740 	mov	x0, #0x3a                  	// #58
 1000828:	b9000020 	str	w0, [x1]
 100082c:	d2800800 	mov	x0, #0x40                  	// #64
 1000830:	b9000020 	str	w0, [x1]
 1000834:	d5386002 	mrs	x2, far_el1
 1000838:	d35cfc42 	lsr	x2, x2, #28
 100083c:	92400c42 	and	x2, x2, #0xf
 1000840:	f100285f 	cmp	x2, #0xa
 1000844:	5400006b 	b.lt	1000850 <sync_debug_handler+0xcc>  // b.tstop
 1000848:	9100dc42 	add	x2, x2, #0x37
 100084c:	14000002 	b	1000854 <sync_debug_handler+0xd0>
 1000850:	9100c042 	add	x2, x2, #0x30
 1000854:	b9000022 	str	w2, [x1]
 1000858:	d2800740 	mov	x0, #0x3a                  	// #58
 100085c:	b9000020 	str	w0, [x1]
 1000860:	d28008a0 	mov	x0, #0x45                  	// #69
 1000864:	b9000020 	str	w0, [x1]
 1000868:	d28007a0 	mov	x0, #0x3d                  	// #61
 100086c:	b9000020 	str	w0, [x1]
 1000870:	d5385202 	mrs	x2, esr_el1
 1000874:	aa0203e3 	mov	x3, x2
 1000878:	d350fc63 	lsr	x3, x3, #16
 100087c:	92400c63 	and	x3, x3, #0xf
 1000880:	f100287f 	cmp	x3, #0xa
 1000884:	5400006b 	b.lt	1000890 <sync_debug_handler+0x10c>  // b.tstop
 1000888:	9100dc63 	add	x3, x3, #0x37
 100088c:	14000002 	b	1000894 <sync_debug_handler+0x110>
 1000890:	9100c063 	add	x3, x3, #0x30
 1000894:	b9000023 	str	w3, [x1]
 1000898:	aa0203e3 	mov	x3, x2
 100089c:	d34cfc63 	lsr	x3, x3, #12
 10008a0:	92400c63 	and	x3, x3, #0xf
 10008a4:	f100287f 	cmp	x3, #0xa
 10008a8:	5400006b 	b.lt	10008b4 <sync_debug_handler+0x130>  // b.tstop
 10008ac:	9100dc63 	add	x3, x3, #0x37
 10008b0:	14000002 	b	10008b8 <sync_debug_handler+0x134>
 10008b4:	9100c063 	add	x3, x3, #0x30
 10008b8:	b9000023 	str	w3, [x1]
 10008bc:	aa0203e3 	mov	x3, x2
 10008c0:	d348fc63 	lsr	x3, x3, #8
 10008c4:	92400c63 	and	x3, x3, #0xf
 10008c8:	f100287f 	cmp	x3, #0xa
 10008cc:	5400006b 	b.lt	10008d8 <sync_debug_handler+0x154>  // b.tstop
 10008d0:	9100dc63 	add	x3, x3, #0x37
 10008d4:	14000002 	b	10008dc <sync_debug_handler+0x158>
 10008d8:	9100c063 	add	x3, x3, #0x30
 10008dc:	b9000023 	str	w3, [x1]
 10008e0:	aa0203e3 	mov	x3, x2
 10008e4:	d344fc63 	lsr	x3, x3, #4
 10008e8:	92400c63 	and	x3, x3, #0xf
 10008ec:	f100287f 	cmp	x3, #0xa
 10008f0:	5400006b 	b.lt	10008fc <sync_debug_handler+0x178>  // b.tstop
 10008f4:	9100dc63 	add	x3, x3, #0x37
 10008f8:	14000002 	b	1000900 <sync_debug_handler+0x17c>
 10008fc:	9100c063 	add	x3, x3, #0x30
 1000900:	b9000023 	str	w3, [x1]
 1000904:	aa0203e3 	mov	x3, x2
 1000908:	92400c63 	and	x3, x3, #0xf
 100090c:	f100287f 	cmp	x3, #0xa
 1000910:	5400006b 	b.lt	100091c <sync_debug_handler+0x198>  // b.tstop
 1000914:	9100dc63 	add	x3, x3, #0x37
 1000918:	14000002 	b	1000920 <sync_debug_handler+0x19c>
 100091c:	9100c063 	add	x3, x3, #0x30
 1000920:	b9000023 	str	w3, [x1]
 1000924:	14000000 	b	1000924 <sync_debug_handler+0x1a0>

0000000001000928 <irq_debug_handler>:
 1000928:	d2800420 	mov	x0, #0x21                  	// #33
 100092c:	58001a21 	ldr	x1, 1000c70 <check_fix_stack_alignment+0x70>
 1000930:	b9000020 	str	w0, [x1]
 1000934:	d2800920 	mov	x0, #0x49                  	// #73
 1000938:	b9000020 	str	w0, [x1]
 100093c:	d2800a40 	mov	x0, #0x52                  	// #82
 1000940:	b9000020 	str	w0, [x1]
 1000944:	d2800a20 	mov	x0, #0x51                  	// #81
 1000948:	b9000020 	str	w0, [x1]
 100094c:	d2800420 	mov	x0, #0x21                  	// #33
 1000950:	b9000020 	str	w0, [x1]
 1000954:	14000000 	b	1000954 <irq_debug_handler+0x2c>

0000000001000958 <fiq_debug_handler>:
 1000958:	d2800420 	mov	x0, #0x21                  	// #33
 100095c:	580018a1 	ldr	x1, 1000c70 <check_fix_stack_alignment+0x70>
 1000960:	b9000020 	str	w0, [x1]
 1000964:	d28008c0 	mov	x0, #0x46                  	// #70
 1000968:	b9000020 	str	w0, [x1]
 100096c:	d2800920 	mov	x0, #0x49                  	// #73
 1000970:	b9000020 	str	w0, [x1]
 1000974:	d2800a20 	mov	x0, #0x51                  	// #81
 1000978:	b9000020 	str	w0, [x1]
 100097c:	d2800420 	mov	x0, #0x21                  	// #33
 1000980:	b9000020 	str	w0, [x1]
 1000984:	14000000 	b	1000984 <fiq_debug_handler+0x2c>

0000000001000988 <irq_entry_el1h>:
 1000988:	d28008a0 	mov	x0, #0x45                  	// #69
 100098c:	58001721 	ldr	x1, 1000c70 <check_fix_stack_alignment+0x70>
 1000990:	b9000020 	str	w0, [x1]
 1000994:	d2800980 	mov	x0, #0x4c                  	// #76
 1000998:	b9000020 	str	w0, [x1]
 100099c:	d2800620 	mov	x0, #0x31                  	// #49
 10009a0:	b9000020 	str	w0, [x1]
 10009a4:	d2800d00 	mov	x0, #0x68                  	// #104
 10009a8:	b9000020 	str	w0, [x1]
 10009ac:	d28005a0 	mov	x0, #0x2d                  	// #45
 10009b0:	b9000020 	str	w0, [x1]
 10009b4:	d2800920 	mov	x0, #0x49                  	// #73
 10009b8:	b9000020 	str	w0, [x1]
 10009bc:	d2800a40 	mov	x0, #0x52                  	// #82
 10009c0:	b9000020 	str	w0, [x1]
 10009c4:	d2800a20 	mov	x0, #0x51                  	// #81
 10009c8:	b9000020 	str	w0, [x1]
 10009cc:	d28001a0 	mov	x0, #0xd                   	// #13
 10009d0:	b9000020 	str	w0, [x1]
 10009d4:	d2800140 	mov	x0, #0xa                   	// #10
 10009d8:	b9000020 	str	w0, [x1]
 10009dc:	17c21de5 	b	88170 <irq_handler>

00000000010009e0 <svc_handler>:
 10009e0:	a9bf7bfd 	stp	x29, x30, [sp, #-16]!
 10009e4:	a9bf07e0 	stp	x0, x1, [sp, #-16]!
 10009e8:	d2800a60 	mov	x0, #0x53                  	// #83
 10009ec:	58001421 	ldr	x1, 1000c70 <check_fix_stack_alignment+0x70>
 10009f0:	b9000020 	str	w0, [x1]
 10009f4:	d2800ac0 	mov	x0, #0x56                  	// #86
 10009f8:	b9000020 	str	w0, [x1]
 10009fc:	d2800860 	mov	x0, #0x43                  	// #67
 1000a00:	b9000020 	str	w0, [x1]
 1000a04:	d2800740 	mov	x0, #0x3a                  	// #58
 1000a08:	b9000020 	str	w0, [x1]
 1000a0c:	d5385200 	mrs	x0, esr_el1
 1000a10:	d35afc00 	lsr	x0, x0, #26
 1000a14:	92401400 	and	x0, x0, #0x3f
 1000a18:	f100541f 	cmp	x0, #0x15
 1000a1c:	54000181 	b.ne	1000a4c <not_svc>  // b.any
 1000a20:	d5385200 	mrs	x0, esr_el1
 1000a24:	92403c00 	and	x0, x0, #0xffff
 1000a28:	9100c000 	add	x0, x0, #0x30
 1000a2c:	b9000020 	str	w0, [x1]
 1000a30:	d28001a0 	mov	x0, #0xd                   	// #13
 1000a34:	b9000020 	str	w0, [x1]
 1000a38:	d2800140 	mov	x0, #0xa                   	// #10
 1000a3c:	b9000020 	str	w0, [x1]
 1000a40:	a8c107e0 	ldp	x0, x1, [sp], #16
 1000a44:	a8c17bfd 	ldp	x29, x30, [sp], #16
 1000a48:	d65f03c0 	ret

0000000001000a4c <not_svc>:
 1000a4c:	d2800420 	mov	x0, #0x21                  	// #33
 1000a50:	b9000020 	str	w0, [x1]
 1000a54:	d28008a0 	mov	x0, #0x45                  	// #69
 1000a58:	b9000020 	str	w0, [x1]
 1000a5c:	d2800a40 	mov	x0, #0x52                  	// #82
 1000a60:	b9000020 	str	w0, [x1]
 1000a64:	d2800a40 	mov	x0, #0x52                  	// #82
 1000a68:	b9000020 	str	w0, [x1]
 1000a6c:	d2800420 	mov	x0, #0x21                  	// #33
 1000a70:	b9000020 	str	w0, [x1]
 1000a74:	a8c107e0 	ldp	x0, x1, [sp], #16
 1000a78:	a8c17bfd 	ldp	x29, x30, [sp], #16
 1000a7c:	14000001 	b	1000a80 <sync_handler>

0000000001000a80 <sync_handler>:
 1000a80:	d5385202 	mrs	x2, esr_el1
 1000a84:	d35afc44 	lsr	x4, x2, #26
 1000a88:	92401484 	and	x4, x4, #0x3f
 1000a8c:	f100549f 	cmp	x4, #0x15
 1000a90:	540001a0 	b.eq	1000ac4 <handle_svc>  // b.none
 1000a94:	d2800b00 	mov	x0, #0x58                  	// #88
 1000a98:	58000ec1 	ldr	x1, 1000c70 <check_fix_stack_alignment+0x70>
 1000a9c:	b9000020 	str	w0, [x1]
 1000aa0:	d5385202 	mrs	x2, esr_el1
 1000aa4:	d5384023 	mrs	x3, elr_el1
 1000aa8:	d35cfc42 	lsr	x2, x2, #28
 1000aac:	d35cfc63 	lsr	x3, x3, #28
 1000ab0:	9100c042 	add	x2, x2, #0x30
 1000ab4:	9100c063 	add	x3, x3, #0x30
 1000ab8:	b9000022 	str	w2, [x1]
 1000abc:	b9000023 	str	w3, [x1]
 1000ac0:	14000000 	b	1000ac0 <sync_handler+0x40>

0000000001000ac4 <handle_svc>:
 1000ac4:	a9bf7bfd 	stp	x29, x30, [sp, #-16]!
 1000ac8:	97ffffc6 	bl	10009e0 <svc_handler>
 1000acc:	a8c17bfd 	ldp	x29, x30, [sp], #16
 1000ad0:	d69f03e0 	eret

0000000001000ad4 <sync_abort_handler>:
 1000ad4:	d2800420 	mov	x0, #0x21                  	// #33
 1000ad8:	58000cc1 	ldr	x1, 1000c70 <check_fix_stack_alignment+0x70>
 1000adc:	b9000020 	str	w0, [x1]
 1000ae0:	d28008a0 	mov	x0, #0x45                  	// #69
 1000ae4:	b9000020 	str	w0, [x1]
 1000ae8:	d2800b00 	mov	x0, #0x58                  	// #88
 1000aec:	b9000020 	str	w0, [x1]
 1000af0:	d2800860 	mov	x0, #0x43                  	// #67
 1000af4:	b9000020 	str	w0, [x1]
 1000af8:	d2800a00 	mov	x0, #0x50                  	// #80
 1000afc:	b9000020 	str	w0, [x1]
 1000b00:	d2800a80 	mov	x0, #0x54                  	// #84
 1000b04:	b9000020 	str	w0, [x1]
 1000b08:	d2800420 	mov	x0, #0x21                  	// #33
 1000b0c:	b9000020 	str	w0, [x1]
 1000b10:	d5385202 	mrs	x2, esr_el1
 1000b14:	d5384023 	mrs	x3, elr_el1
 1000b18:	d35cfc42 	lsr	x2, x2, #28
 1000b1c:	d35cfc63 	lsr	x3, x3, #28
 1000b20:	9100c042 	add	x2, x2, #0x30
 1000b24:	9100c063 	add	x3, x3, #0x30
 1000b28:	b9000022 	str	w2, [x1]
 1000b2c:	b9000023 	str	w3, [x1]
 1000b30:	d5385204 	mrs	x4, esr_el1
 1000b34:	d358fc84 	lsr	x4, x4, #24
 1000b38:	92401c84 	and	x4, x4, #0xff
 1000b3c:	aa0403e5 	mov	x5, x4
 1000b40:	d344fca5 	lsr	x5, x5, #4
 1000b44:	92400ca5 	and	x5, x5, #0xf
 1000b48:	f10028bf 	cmp	x5, #0xa
 1000b4c:	5400006b 	b.lt	1000b58 <sync_abort_handler+0x84>  // b.tstop
 1000b50:	9100dca5 	add	x5, x5, #0x37
 1000b54:	14000002 	b	1000b5c <sync_abort_handler+0x88>
 1000b58:	9100c0a5 	add	x5, x5, #0x30
 1000b5c:	b9000025 	str	w5, [x1]
 1000b60:	92400c85 	and	x5, x4, #0xf
 1000b64:	f10028bf 	cmp	x5, #0xa
 1000b68:	5400006b 	b.lt	1000b74 <sync_abort_handler+0xa0>  // b.tstop
 1000b6c:	9100dca5 	add	x5, x5, #0x37
 1000b70:	14000002 	b	1000b78 <sync_abort_handler+0xa4>
 1000b74:	9100c0a5 	add	x5, x5, #0x30
 1000b78:	b9000025 	str	w5, [x1]
 1000b7c:	14000000 	b	1000b7c <sync_abort_handler+0xa8>

0000000001000b80 <set_vbar_el1>:
 1000b80:	d518c000 	msr	vbar_el1, x0
 1000b84:	d5033fdf 	isb
 1000b88:	d65f03c0 	ret
 1000b8c:	d503201f 	nop

0000000001000b90 <set_safe_spsr>:
 1000b90:	58000709 	ldr	x9, 1000c70 <check_fix_stack_alignment+0x70>
 1000b94:	52800a6a 	mov	w10, #0x53                  	// #83
 1000b98:	b900012a 	str	w10, [x9]
 1000b9c:	52800a0a 	mov	w10, #0x50                  	// #80
 1000ba0:	b900012a 	str	w10, [x9]
 1000ba4:	52800a6a 	mov	w10, #0x53                  	// #83
 1000ba8:	b900012a 	str	w10, [x9]
 1000bac:	52800a4a 	mov	w10, #0x52                  	// #82
 1000bb0:	b900012a 	str	w10, [x9]
 1000bb4:	5280074a 	mov	w10, #0x3a                  	// #58
 1000bb8:	b900012a 	str	w10, [x9]
 1000bbc:	d2806800 	mov	x0, #0x340                 	// #832
 1000bc0:	d5184000 	msr	spsr_el1, x0
 1000bc4:	d5384001 	mrs	x1, spsr_el1
 1000bc8:	eb00003f 	cmp	x1, x0
 1000bcc:	54000080 	b.eq	1000bdc <set_safe_spsr+0x4c>  // b.none
 1000bd0:	5280042a 	mov	w10, #0x21                  	// #33
 1000bd4:	b900012a 	str	w10, [x9]
 1000bd8:	d65f03c0 	ret
 1000bdc:	528009ea 	mov	w10, #0x4f                  	// #79
 1000be0:	b900012a 	str	w10, [x9]
 1000be4:	5280096a 	mov	w10, #0x4b                  	// #75
 1000be8:	b900012a 	str	w10, [x9]
 1000bec:	528001aa 	mov	w10, #0xd                   	// #13
 1000bf0:	b900012a 	str	w10, [x9]
 1000bf4:	5280014a 	mov	w10, #0xa                   	// #10
 1000bf8:	b900012a 	str	w10, [x9]
 1000bfc:	d65f03c0 	ret

0000000001000c00 <check_fix_stack_alignment>:
 1000c00:	58000389 	ldr	x9, 1000c70 <check_fix_stack_alignment+0x70>
 1000c04:	52800a6a 	mov	w10, #0x53                  	// #83
 1000c08:	b900012a 	str	w10, [x9]
 1000c0c:	52800a8a 	mov	w10, #0x54                  	// #84
 1000c10:	b900012a 	str	w10, [x9]
 1000c14:	5280096a 	mov	w10, #0x4b                  	// #75
 1000c18:	b900012a 	str	w10, [x9]
 1000c1c:	5280074a 	mov	w10, #0x3a                  	// #58
 1000c20:	b900012a 	str	w10, [x9]
 1000c24:	910003e0 	mov	x0, sp
 1000c28:	91003c00 	add	x0, x0, #0xf
 1000c2c:	d344fc00 	lsr	x0, x0, #4
 1000c30:	d37cec00 	lsl	x0, x0, #4
 1000c34:	9100001f 	mov	sp, x0
 1000c38:	910003e1 	mov	x1, sp
 1000c3c:	d3440c21 	lsl	x1, x1, #60
 1000c40:	d37cfc21 	lsr	x1, x1, #60
 1000c44:	b5000101 	cbnz	x1, 1000c64 <check_fix_stack_alignment+0x64>
 1000c48:	5280082a 	mov	w10, #0x41                  	// #65
 1000c4c:	b900012a 	str	w10, [x9]
 1000c50:	528001aa 	mov	w10, #0xd                   	// #13
 1000c54:	b900012a 	str	w10, [x9]
 1000c58:	5280014a 	mov	w10, #0xa                   	// #10
 1000c5c:	b900012a 	str	w10, [x9]
 1000c60:	d65f03c0 	ret
 1000c64:	5280042a 	mov	w10, #0x21                  	// #33
 1000c68:	b900012a 	str	w10, [x9]
 1000c6c:	d65f03c0 	ret
 1000c70:	09000000 	.word	0x09000000
 1000c74:	00000000 	.word	0x00000000
